 main

 Timestamp is 6441374c (Thu Apr 20 20:59:56 2023)

 Preferred load address is 0000000140000000

 Start         Length     Name                   Class
 0001:00000000 00011000H .text$di                CODE
 0001:00011000 000dbf90H .text$mn                CODE
 0001:000ecf90 00001040H .text$mn$00             CODE
 0001:000edfd0 00008920H .text$x                 CODE
 0001:000f68f0 000010f3H .text$yd                CODE
 0002:00000000 00000110H .CRT$XCA                DATA
 0002:00000110 00000110H .CRT$XCAA               DATA
 0002:00000220 00000110H .CRT$XCL                DATA
 0002:00000330 00000128H .CRT$XCU                DATA
 0002:00000458 00000110H .CRT$XCZ                DATA
 0002:00000568 00000110H .CRT$XIA                DATA
 0002:00000678 00000110H .CRT$XIAA               DATA
 0002:00000788 00000110H .CRT$XIAC               DATA
 0002:00000898 00000110H .CRT$XIZ                DATA
 0002:000009a8 00000008H .CRT$XLA                DATA
 0002:000009b0 00000008H .CRT$XLZ                DATA
 0002:000009b8 00000110H .CRT$XPA                DATA
 0002:00000ac8 00000110H .CRT$XPZ                DATA
 0002:00000bd8 00000110H .CRT$XTA                DATA
 0002:00000ce8 00000118H .CRT$XTZ                DATA
 0002:00000e00 00027980H .rdata                  DATA
 0002:00028780 00000200H .rdata$CastGuardVftablesA DATA
 0002:00028980 000001a0H .rdata$CastGuardVftablesC DATA
 0002:00028b20 00000130H .rdata$T                DATA
 0002:00028c50 00001a44H .rdata$r                DATA
 0002:0002a694 0000015cH .rdata$zzzdbg           DATA
 0002:0002a7f0 00000110H .rtc$IAA                DATA
 0002:0002a900 00000110H .rtc$IZZ                DATA
 0002:0002aa10 00000110H .rtc$TAA                DATA
 0002:0002ab20 00000110H .rtc$TZZ                DATA
 0002:0002ac30 00011498H .xdata                  DATA
 0002:0003c0c8 000006a3H .xdata$x                DATA
 0002:0003c76b 00000000H .edata                  DATA
 0003:00000000 000057c0H .data                   DATA
 0003:000057c0 00000570H .data$r                 DATA
 0003:00005d30 000007a0H .data$rs                DATA
 0003:000064d0 00005771H .bss                    DATA
 0004:00000000 00010338H .pdata                  DATA
 0005:00000000 000011c0H .idata$5                DATA
 0005:000011c0 00000140H .idata$2                DATA
 0005:00001300 00000018H .idata$3                DATA
 0005:00001318 000011c0H .idata$4                DATA
 0005:000024d8 00002786H .idata$6                DATA
 0006:00000000 00000108H .tls                    DATA
 0006:00000108 00000126H .tls$                   DATA
 0006:0000022e 00000101H .tls$ZZZ                DATA
 0007:00000000 00000175H .00cfg                  DATA

  Address         Publics by Value              Rva+Base               Lib:Object

 0000:00000000       __AbsoluteZero             0000000000000000     <absolute>
 0000:00000000       ___safe_se_handler_count   0000000000000000     <absolute>
 0000:00000000       ___safe_se_handler_table   0000000000000000     <absolute>
 0000:00000000       __arm64x_extra_rfe_table   0000000000000000     <absolute>
 0000:00000000       __arm64x_extra_rfe_table_size 0000000000000000     <absolute>
 0000:00000000       __arm64x_native_entrypoint 0000000000000000     <absolute>
 0000:00000000       __arm64x_redirection_metadata 0000000000000000     <absolute>
 0000:00000000       __arm64x_redirection_metadata_count 0000000000000000     <absolute>
 0000:00000000       __dynamic_value_reloc_table 0000000000000000     <absolute>
 0000:00000000       __enclave_config           0000000000000000     <absolute>
 0000:00000000       __guard_check_icall_a64n_fptr 0000000000000000     <absolute>
 0000:00000000       __guard_eh_cont_count      0000000000000000     <absolute>
 0000:00000000       __guard_eh_cont_table      0000000000000000     <absolute>
 0000:00000000       __guard_fids_count         0000000000000000     <absolute>
 0000:00000000       __guard_fids_table         0000000000000000     <absolute>
 0000:00000000       __guard_iat_count          0000000000000000     <absolute>
 0000:00000000       __guard_iat_table          0000000000000000     <absolute>
 0000:00000000       __guard_longjmp_count      0000000000000000     <absolute>
 0000:00000000       __guard_longjmp_table      0000000000000000     <absolute>
 0000:00000000       __hybrid_auxiliary_iat     0000000000000000     <absolute>
 0000:00000000       __hybrid_auxiliary_iat_copy 0000000000000000     <absolute>
 0000:00000000       __hybrid_code_map          0000000000000000     <absolute>
 0000:00000000       __hybrid_code_map_count    0000000000000000     <absolute>
 0000:00000000       __volatile_metadata        0000000000000000     <absolute>
 0000:00000000       __x64_code_ranges_to_entry_points 0000000000000000     <absolute>
 0000:00000000       __x64_code_ranges_to_entry_points_count 0000000000000000     <absolute>
 0000:00000100       __guard_flags              0000000000000100     <absolute>
 0000:00000000       __ImageBase                0000000140000000     <linker-defined>
 0001:00011000       ?GLClear@@YAXXZ            0000000140012000 f   main.obj
 0001:00011070       ?SetupOpenGL@@YAXXZ        0000000140012070 f   main.obj
 0001:000110f0       ?GetCurrentContext@@YAPEAVWindow@@XZ 00000001400120f0 f   main.obj
 0001:00011110       ?Load@gltf@@YA?AUglTF@1@AEBV?$basic_string@DU?$char_traits@D@std@@V?$allocator@D@2@@std@@@Z 0000000140012110 f   main.obj
 0001:00013fa0       ?Access@gltf@@YA?AUAccessResult@1@AEBUglTF@1@H@Z 0000000140014fa0 f   main.obj
 0001:00014050       ??0mat4@@QEAA@AEBU?$quatt@M@@@Z 0000000140015050 f   main.obj
 0001:00014530       ?OrthographicProjection@@YA?AUmat4@@MMMM@Z 0000000140015530 f   main.obj
 0001:000146c0       ?PerspectiveProjection@@YA?AUmat4@@MMMM@Z 00000001400156c0 f   main.obj
 0001:000148a0       ??6@YAAEAV?$basic_ostream@DU?$char_traits@D@std@@@std@@AEAV01@AEBVTransform@@@Z 00000001400158a0 f   main.obj
 0001:00014970       ?GLEboData@@YAXAEBV?$vector@IV?$allocator@I@std@@@std@@@Z 0000000140015970 f   main.obj
 0001:000149d0       ?StringFromFile@@YAXAEBV?$basic_string@DU?$char_traits@D@std@@V?$allocator@D@2@@std@@AEAV12@@Z 00000001400159d0 f   main.obj
 0001:00014ac0       stbi_load_from_memory      0000000140015ac0 f   main.obj
 0001:00014b60       stbi_load_from_callbacks   0000000140015b60 f   main.obj
 0001:00014c00       stbi_load                  0000000140015c00 f   main.obj
 0001:00014cb0       stbi_load_from_file        0000000140015cb0 f   main.obj
 0001:00014d80       stbi_load_gif_from_memory  0000000140015d80 f   main.obj
 0001:00014ed0       stbi_load_16_from_memory   0000000140015ed0 f   main.obj
 0001:00014f70       stbi_load_16_from_callbacks 0000000140015f70 f   main.obj
 0001:00015010       stbi_load_16               0000000140016010 f   main.obj
 0001:000150c0       stbi_load_from_file_16     00000001400160c0 f   main.obj
 0001:00015190       stbi_loadf_from_memory     0000000140016190 f   main.obj
 0001:00015230       stbi_loadf_from_callbacks  0000000140016230 f   main.obj
 0001:000152d0       stbi_loadf                 00000001400162d0 f   main.obj
 0001:00015380       stbi_loadf_from_file       0000000140016380 f   main.obj
 0001:00015410       stbi_hdr_to_ldr_gamma      0000000140016410 f   main.obj
 0001:00015440       stbi_hdr_to_ldr_scale      0000000140016440 f   main.obj
 0001:00015470       stbi_ldr_to_hdr_gamma      0000000140016470 f   main.obj
 0001:00015490       stbi_ldr_to_hdr_scale      0000000140016490 f   main.obj
 0001:000154b0       stbi_is_hdr_from_callbacks 00000001400164b0 f   main.obj
 0001:00015520       stbi_is_hdr_from_memory    0000000140016520 f   main.obj
 0001:00015590       stbi_is_hdr                0000000140016590 f   main.obj
 0001:000155f0       stbi_is_hdr_from_file      00000001400165f0 f   main.obj
 0001:00015680       stbi_failure_reason        0000000140016680 f   main.obj
 0001:000156b0       stbi_image_free            00000001400166b0 f   main.obj
 0001:000156d0       stbi_info_from_memory      00000001400166d0 f   main.obj
 0001:00015760       stbi_info_from_callbacks   0000000140016760 f   main.obj
 0001:000157f0       stbi_is_16_bit_from_memory 00000001400167f0 f   main.obj
 0001:00015860       stbi_is_16_bit_from_callbacks 0000000140016860 f   main.obj
 0001:000158d0       stbi_info                  00000001400168d0 f   main.obj
 0001:00015950       stbi_info_from_file        0000000140016950 f   main.obj
 0001:00015a00       stbi_is_16_bit             0000000140016a00 f   main.obj
 0001:00015a60       stbi_is_16_bit_from_file   0000000140016a60 f   main.obj
 0001:00015af0       stbi_set_unpremultiply_on_load 0000000140016af0 f   main.obj
 0001:00015b10       stbi_convert_iphone_png_to_rgb 0000000140016b10 f   main.obj
 0001:00015b30       stbi_set_flip_vertically_on_load 0000000140016b30 f   main.obj
 0001:00015b50       stbi_set_unpremultiply_on_load_thread 0000000140016b50 f   main.obj
 0001:00015ba0       stbi_convert_iphone_png_to_rgb_thread 0000000140016ba0 f   main.obj
 0001:00015bf0       stbi_set_flip_vertically_on_load_thread 0000000140016bf0 f   main.obj
 0001:00015c40       stbi_zlib_decode_malloc_guesssize 0000000140016c40 f   main.obj
 0001:00015d40       stbi_zlib_decode_malloc_guesssize_headerflag 0000000140016d40 f   main.obj
 0001:00015e50       stbi_zlib_decode_malloc    0000000140016e50 f   main.obj
 0001:00015e90       stbi_zlib_decode_buffer    0000000140016e90 f   main.obj
 0001:00015f50       stbi_zlib_decode_noheader_malloc 0000000140016f50 f   main.obj
 0001:00016050       stbi_zlib_decode_noheader_buffer 0000000140017050 f   main.obj
 0001:00030430       ?CubePrimitive@@YA?AVMeshPrimitive@@XZ 0000000140031430 f   main.obj
 0001:00030e80       ?CDAppleResourcesDir@@YAXXZ 0000000140031e80 f   main.obj
 0001:00030e90       ?CDResourcesDir@@YAXXZ     0000000140031e90 f   main.obj
 0001:00030ef0       ?FindNodeByName@@YAPEAVNode@@AEBV?$basic_string@DU?$char_traits@D@std@@V?$allocator@D@2@@std@@PEAV1@@Z 0000000140031ef0 f   main.obj
 0001:00030fb0       main                       0000000140031fb0 f   main.obj
 0001:00031500       ??0Image@@QEAA@XZ          0000000140032500 f i main.obj
 0001:00031550       ??0Image@gltf@@QEAA@$$QEAU01@@Z 0000000140032550 f i main.obj
 0001:000315e0       ??0Material@@QEAA@XZ       00000001400325e0 f i main.obj
 0001:00031660       ??0Material@gltf@@QEAA@$$QEAU01@@Z 0000000140032660 f i main.obj
 0001:00031770       ??0MaterialPBRMetallicRoughness@gltf@@QEAA@XZ 0000000140032770 f i main.obj
 0001:00031810       ??0Mesh@gltf@@QEAA@$$QEAU01@@Z 0000000140032810 f i main.obj
 0001:00031890       ??0MeshAttribute@@QEAA@AEBV0@@Z 0000000140032890 f i main.obj
 0001:00031a40       ??0MeshPrimitive@@QEAA@AEBV0@@Z 0000000140032a40 f i main.obj
 0001:00031b10       ??0Node@gltf@@QEAA@$$QEAU01@@Z 0000000140032b10 f i main.obj
 0001:00031c40       ??0Node@gltf@@QEAA@XZ      0000000140032c40 f i main.obj
 0001:00031e40       ??0Sampler@gltf@@QEAA@$$QEAU01@@Z 0000000140032e40 f i main.obj
 0001:00031ec0       ??0Scene@gltf@@QEAA@$$QEAU01@@Z 0000000140032ec0 f i main.obj
 0001:00031f20       ??0SceneNode@@QEAA@AEBV0@@Z 0000000140032f20 f i main.obj
 0001:00031fc0       ??0Scenes@@QEAA@XZ         0000000140032fc0 f i main.obj
 0001:00032080       ??0Skin@@QEAA@XZ           0000000140033080 f i main.obj
 0001:000320d0       ??0Skin@gltf@@QEAA@$$QEAU01@@Z 00000001400330d0 f i main.obj
 0001:00032150       ??0Texture2D@@QEAA@XZ      0000000140033150 f i main.obj
 0001:000321b0       ??0TextureSampler@@QEAA@XZ 00000001400331b0 f i main.obj
 0001:000321f0       ??0Transform@@QEAA@AEBUmat4@@@Z 00000001400331f0 f i main.obj
 0001:00032290       ??0Window@@QEAA@HHPEBD@Z   0000000140033290 f i main.obj
 0001:00032430       ??0_Ref_count_base@std@@IEAA@XZ 0000000140033430 f i main.obj
 0001:00032460       ??0_Sentry_base@?$basic_ostream@DU?$char_traits@D@std@@@std@@QEAA@AEAV12@@Z 0000000140033460 f i main.obj
 0001:000324d0       ??0_System_error@std@@IEAA@Verror_code@1@AEBV?$basic_string@DU?$char_traits@D@std@@V?$allocator@D@2@@1@@Z 00000001400334d0 f i main.obj
 0001:000325f0       ??0exception@detail@json_abi_v3_11_2@nlohmann@@IEAA@HPEBD@Z 00000001400335f0 f i main.obj
 0001:00032650       ??0filesystem_error@filesystem@std@@QEAA@AEBV012@@Z 0000000140033650 f i main.obj
 0001:00032700       ??0filesystem_error@filesystem@std@@QEAA@AEBV?$basic_string@DU?$char_traits@D@std@@V?$allocator@D@2@@2@AEBVpath@12@Verror_code@2@@Z 0000000140033700 f i main.obj
 0001:00032870       ??0json_value@?$basic_json@Vmap@std@@Vvector@2@V?$basic_string@DU?$char_traits@D@std@@V?$allocator@D@2@@2@_N_J_KNVallocator@2@Uadl_serializer@json_abi_v3_11_2@nlohmann@@V?$vector@EV?$allocator@E@std@@@2@X@json_abi_v3_11_2@nlohmann@@QEAA@W4value_t@detail@23@@Z 0000000140033870 f i main.obj
 0001:00032a20       ??0mat4@@QEAA@AEBU0@@Z     0000000140033a20 f i main.obj
 0001:00032a70       ??0mat4@@QEAA@AEBV?$initializer_list@U?$vec4t@M@@@std@@@Z 0000000140033a70 f i main.obj
 0001:00032b00       ??0mat4@@QEAA@XZ           0000000140033b00 f i main.obj
 0001:00032be0       ??0parse_error@detail@json_abi_v3_11_2@nlohmann@@AEAA@H_KPEBD@Z 0000000140033be0 f i main.obj
 0001:00032c40       ??0runtime_error@std@@QEAA@AEBV01@@Z 0000000140033c40 f i main.obj
 0001:00032c80       ??0sentry@?$basic_ostream@DU?$char_traits@D@std@@@std@@QEAA@AEAV12@@Z 0000000140033c80 f i main.obj
 0001:00032d60       ??0system_error@std@@QEAA@Verror_code@1@@Z 0000000140033d60 f i main.obj
 0001:00032e00       ??1?$_Alloc_construct_ptr@V?$allocator@U?$_Tree_node@U?$pair@$$CBV?$basic_string@DU?$char_traits@D@std@@V?$allocator@D@2@@std@@PEAUmat4@@@std@@PEAX@std@@@std@@@std@@QEAA@XZ 0000000140033e00 f i main.obj
 0001:00032e50       ??1?$_Ref_count_obj2@VAnimation@@@std@@UEAA@XZ 0000000140033e50 f i main.obj
 0001:00032e80       ??1?$_Tree@V?$_Tmap_traits@V?$basic_string@DU?$char_traits@D@std@@V?$allocator@D@2@@std@@PEAUmat4@@U?$less@V?$basic_string@DU?$char_traits@D@std@@V?$allocator@D@2@@std@@@2@V?$allocator@U?$pair@$$CBV?$basic_string@DU?$char_traits@D@std@@V?$allocator@D@2@@std@@PEAUmat4@@@std@@@2@$0A@@std@@@std@@QEAA@XZ 0000000140033e80 f i main.obj
 0001:00032ec0       ??1?$_Tree_temp_node@V?$allocator@U?$_Tree_node@U?$pair@$$CBV?$basic_string@DU?$char_traits@D@std@@V?$allocator@D@2@@std@@PEAUmat4@@@std@@PEAX@std@@@std@@@std@@QEAA@XZ 0000000140033ec0 f i main.obj
 0001:00032f60       ??1?$_Uninitialized_backout_al@V?$allocator@D@std@@@std@@QEAA@XZ 0000000140033f60 f i main.obj
 0001:00032f90       ??1?$basic_filebuf@DU?$char_traits@D@std@@@std@@UEAA@XZ 0000000140033f90 f i main.obj
 0001:00032ff0       ??1?$basic_ifstream@DU?$char_traits@D@std@@@std@@UEAA@XZ 0000000140033ff0 f i main.obj
 0001:00033080       ??1?$json_sax_dom_callback_parser@V?$basic_json@Vmap@std@@Vvector@2@V?$basic_string@DU?$char_traits@D@std@@V?$allocator@D@2@@2@_N_J_KNVallocator@2@Uadl_serializer@json_abi_v3_11_2@nlohmann@@V?$vector@EV?$allocator@E@std@@@2@X@json_abi_v3_11_2@nlohmann@@@detail@json_abi_v3_11_2@nlohmann@@QEAA@XZ 0000000140034080 f i main.obj
 0001:000330f0       ??1?$lexer@V?$basic_json@Vmap@std@@Vvector@2@V?$basic_string@DU?$char_traits@D@std@@V?$allocator@D@2@@2@_N_J_KNVallocator@2@Uadl_serializer@json_abi_v3_11_2@nlohmann@@V?$vector@EV?$allocator@E@std@@@2@X@json_abi_v3_11_2@nlohmann@@Vinput_stream_adapter@detail@23@@detail@json_abi_v3_11_2@nlohmann@@QEAA@XZ 00000001400340f0 f i main.obj
 0001:00033130       ??1?$unique_ptr@V?$basic_string@DU?$char_traits@D@std@@V?$allocator@D@2@@std@@V<lambda_1>@?1???$create@V?$basic_string@DU?$char_traits@D@std@@V?$allocator@D@2@@std@@AEAY00$$CBD@?$basic_json@Vmap@std@@Vvector@2@V?$basic_string@DU?$char_traits@D@std@@V?$allocator@D@2@@2@_N_J_KNVallocator@2@Uadl_serializer@json_abi_v3_11_2@nlohmann@@V?$vector@EV?$allocator@E@std@@@2@X@json_abi_v3_11_2@nlohmann@@CAPEAV12@AEAY00$$CBD@Z@@std@@QEAA@XZ 0000000140034130 f i main.obj
 0001:00033180       ??1Accessor@gltf@@QEAA@XZ  0000000140034180 f i main.obj
 0001:000331d0       ??1Animation@@QEAA@XZ      00000001400341d0 f i main.obj
 0001:00033210       ??1AnimationSampler@@QEAA@XZ 0000000140034210 f i main.obj
 0001:00033260       ??1Asset@gltf@@QEAA@XZ     0000000140034260 f i main.obj
 0001:000332b0       ??1Entity@@UEAA@XZ         00000001400342b0 f i main.obj
 0001:000333b0       ??1GLBuffer@@QEAA@XZ       00000001400343b0 f i main.obj
 0001:000333e0       ??1GLPrimitive@@QEAA@XZ    00000001400343e0 f i main.obj
 0001:00033420       ??1GLShader@@QEAA@XZ       0000000140034420 f i main.obj
 0001:00033470       ??1MeshAttribute@@QEAA@XZ  0000000140034470 f i main.obj
 0001:00033520       ??1Node@@UEAA@XZ           0000000140034520 f i main.obj
 0001:00033620       ??1Node@gltf@@QEAA@XZ      0000000140034620 f i main.obj
 0001:00033670       ??1Scenes@@QEAA@XZ         0000000140034670 f i main.obj
 0001:00033720       ??1ScenesComponent@@UEAA@XZ 0000000140034720 f i main.obj
 0001:00033780       ??1Window@@QEAA@XZ         0000000140034780 f i main.obj
 0001:000337e0       ??1_Generic_error_category@std@@UEAA@XZ 00000001400347e0 f i main.obj
 0001:00033800       ??1_Sentry_base@?$basic_ostream@DU?$char_traits@D@std@@@std@@QEAA@XZ 0000000140034800 f i main.obj
 0001:00033860       ??1_System_error@std@@UEAA@XZ 0000000140034860 f i main.obj
 0001:00033880       ??1data@?$basic_json@Vmap@std@@Vvector@2@V?$basic_string@DU?$char_traits@D@std@@V?$allocator@D@2@@2@_N_J_KNVallocator@2@Uadl_serializer@json_abi_v3_11_2@nlohmann@@V?$vector@EV?$allocator@E@std@@@2@X@json_abi_v3_11_2@nlohmann@@QEAA@XZ 0000000140034880 f i main.obj
 0001:000338b0       ??1exception@std@@UEAA@XZ  00000001400348b0 f i main.obj
 0001:000338e0       ??1filesystem_error@filesystem@std@@UEAA@XZ 00000001400348e0 f i main.obj
 0001:00033930       ??1glTF@gltf@@QEAA@XZ      0000000140034930 f i main.obj
 0001:00033a40       ??1input_stream_adapter@detail@json_abi_v3_11_2@nlohmann@@QEAA@XZ 0000000140034a40 f i main.obj
 0001:00033ad0       ??1sentry@?$basic_ostream@DU?$char_traits@D@std@@@std@@QEAA@XZ 0000000140034ad0 f i main.obj
 0001:00033b20       ??4?$_Vb_reference@U?$_Wrap_alloc@V?$allocator@I@std@@@std@@@std@@QEAAAEAV01@AEBV01@@Z 0000000140034b20 f i main.obj
 0001:00033b50       ??4?$_Vb_reference@U?$_Wrap_alloc@V?$allocator@I@std@@@std@@@std@@QEAAAEAV01@_N@Z 0000000140034b50 f i main.obj
 0001:00033bf0       ??4?$basic_string@DU?$char_traits@D@std@@V?$allocator@D@2@@std@@QEAAAEAV01@$$QEAV01@@Z 0000000140034bf0 f i main.obj
 0001:00033c70       ??4?$vector@HV?$allocator@H@std@@@std@@QEAAAEAV01@AEBV01@@Z 0000000140034c70 f i main.obj
 0001:00033d10       ??4?$vector@IV?$allocator@I@std@@@std@@QEAAAEAV01@$$QEAV01@@Z 0000000140034d10 f i main.obj
 0001:00033da0       ??8?$_Vb_const_iterator@U?$_Wrap_alloc@V?$allocator@I@std@@@std@@@std@@QEBA_NAEBV01@@Z 0000000140034da0 f i main.obj
 0001:00033e00       ??8std@@YA_NAEBVerror_condition@0@0@Z 0000000140034e00 f i main.obj
 0001:00033e80       ??A?$basic_json@Vmap@std@@Vvector@2@V?$basic_string@DU?$char_traits@D@std@@V?$allocator@D@2@@2@_N_J_KNVallocator@2@Uadl_serializer@json_abi_v3_11_2@nlohmann@@V?$vector@EV?$allocator@E@std@@@2@X@json_abi_v3_11_2@nlohmann@@QEAAAEAV012@V?$basic_string@DU?$char_traits@D@std@@V?$allocator@D@2@@std@@@Z 0000000140034e80 f i main.obj
 0001:00034010       ??A?$vector@GV?$allocator@G@std@@@std@@QEAAAEAG_K@Z 0000000140035010 f i main.obj
 0001:00034040       ??A?$vector@HV?$allocator@H@std@@@std@@QEAAAEAH_K@Z 0000000140035040 f i main.obj
 0001:00034070       ??B?$_Vb_reference@U?$_Wrap_alloc@V?$allocator@I@std@@@std@@@std@@QEBA_NXZ 0000000140035070 f i main.obj
 0001:000340c0       ??B?$basic_string@_WU?$char_traits@_W@std@@V?$allocator@_W@2@@std@@QEBA?AV?$basic_string_view@_WU?$char_traits@_W@std@@@1@XZ 00000001400350c0 f i main.obj
 0001:00034110       ??B?$shared_ptr@VImage@@@std@@QEBA_NXZ 0000000140035110 f i main.obj
 0001:00034150       ??C?$iter_impl@$$CBV?$basic_json@Vmap@std@@Vvector@2@V?$basic_string@DU?$char_traits@D@std@@V?$allocator@D@2@@2@_N_J_KNVallocator@2@Uadl_serializer@json_abi_v3_11_2@nlohmann@@V?$vector@EV?$allocator@E@std@@@2@X@json_abi_v3_11_2@nlohmann@@@detail@json_abi_v3_11_2@nlohmann@@QEBAPEBV?$basic_json@Vmap@std@@Vvector@2@V?$basic_string@DU?$char_traits@D@std@@V?$allocator@D@2@@2@_N_J_KNVallocator@2@Uadl_serializer@json_abi_v3_11_2@nlohmann@@V?$vector@EV?$allocator@E@std@@@2@X@23@XZ 0000000140035150 f i main.obj
 0001:000343a0       ??C?$iter_impl@V?$basic_json@Vmap@std@@Vvector@2@V?$basic_string@DU?$char_traits@D@std@@V?$allocator@D@2@@2@_N_J_KNVallocator@2@Uadl_serializer@json_abi_v3_11_2@nlohmann@@V?$vector@EV?$allocator@E@std@@@2@X@json_abi_v3_11_2@nlohmann@@@detail@json_abi_v3_11_2@nlohmann@@QEBAPEAV?$basic_json@Vmap@std@@Vvector@2@V?$basic_string@DU?$char_traits@D@std@@V?$allocator@D@2@@2@_N_J_KNVallocator@2@Uadl_serializer@json_abi_v3_11_2@nlohmann@@V?$vector@EV?$allocator@E@std@@@2@X@23@XZ 00000001400353a0 f i main.obj
 0001:000345f0       ??D?$_Vb_iterator@U?$_Wrap_alloc@V?$allocator@I@std@@@std@@@std@@QEBA?AV?$_Vb_reference@U?$_Wrap_alloc@V?$allocator@I@std@@@std@@@1@XZ 00000001400355f0 f i main.obj
 0001:00034620       ??D?$iter_impl@V?$basic_json@Vmap@std@@Vvector@2@V?$basic_string@DU?$char_traits@D@std@@V?$allocator@D@2@@2@_N_J_KNVallocator@2@Uadl_serializer@json_abi_v3_11_2@nlohmann@@V?$vector@EV?$allocator@E@std@@@2@X@json_abi_v3_11_2@nlohmann@@@detail@json_abi_v3_11_2@nlohmann@@QEBAAEAV?$basic_json@Vmap@std@@Vvector@2@V?$basic_string@DU?$char_traits@D@std@@V?$allocator@D@2@@2@_N_J_KNVallocator@2@Uadl_serializer@json_abi_v3_11_2@nlohmann@@V?$vector@EV?$allocator@E@std@@@2@X@23@XZ 0000000140035620 f i main.obj
 0001:000348d0       ??D?$vec3t@M@@QEBA?AU0@M@Z 00000001400358d0 f i main.obj
 0001:00034940       ??Dmat4@@QEBA?AU0@M@Z      0000000140035940 f i main.obj
 0001:000349e0       ??E?$_Tree_unchecked_const_iterator@V?$_Tree_val@U?$_Tree_simple_types@U?$pair@$$CBV?$basic_string@DU?$char_traits@D@std@@V?$allocator@D@2@@std@@PEAUmat4@@@std@@@std@@@std@@U_Iterator_base0@2@@std@@QEAAAEAV01@XZ 00000001400359e0 f i main.obj
 0001:00034a70       ??E?$_Tree_unchecked_const_iterator@V?$_Tree_val@U?$_Tree_simple_types@U?$pair@$$CBV?$basic_string@DU?$char_traits@D@std@@V?$allocator@D@2@@std@@V?$basic_json@Vmap@std@@Vvector@2@V?$basic_string@DU?$char_traits@D@std@@V?$allocator@D@2@@2@_N_J_KNVallocator@2@Uadl_serializer@json_abi_v3_11_2@nlohmann@@V?$vector@EV?$allocator@E@std@@@2@X@json_abi_v3_11_2@nlohmann@@@std@@@std@@@std@@U_Iterator_base0@2@@std@@QEAAAEAV01@XZ 0000000140035a70 f i main.obj
 0001:00034b00       ??E?$iter_impl@V?$basic_json@Vmap@std@@Vvector@2@V?$basic_string@DU?$char_traits@D@std@@V?$allocator@D@2@@2@_N_J_KNVallocator@2@Uadl_serializer@json_abi_v3_11_2@nlohmann@@V?$vector@EV?$allocator@E@std@@@2@X@json_abi_v3_11_2@nlohmann@@@detail@json_abi_v3_11_2@nlohmann@@QEAAAEAV0123@XZ 0000000140035b00 f i main.obj
 0001:00034be0       ??Eprimitive_iterator_t@detail@json_abi_v3_11_2@nlohmann@@QEAAAEAV0123@XZ 0000000140035be0 f i main.obj
 0001:00034c00       ??G?$_Vb_const_iterator@U?$_Wrap_alloc@V?$allocator@I@std@@@std@@@std@@QEBA_JAEBV01@@Z 0000000140035c00 f i main.obj
 0001:00034c50       ??G?$_Vb_iterator@U?$_Wrap_alloc@V?$allocator@I@std@@@std@@@std@@QEBA?AV01@_J@Z 0000000140035c50 f i main.obj
 0001:00034ca0       ??G?$vec4t@M@@QEBA?AU0@AEBU0@@Z 0000000140035ca0 f i main.obj
 0001:00034d30       ??H?$vec3t@M@@QEBA?AU0@AEBU0@@Z 0000000140035d30 f i main.obj
 0001:00034db0       ??H?$vec4t@M@@QEBA?AU0@AEBU0@@Z 0000000140035db0 f i main.obj
 0001:00034e40       ??R<lambda_1>@?1???0Window@@QEAA@HHPEBD@Z@QEBA@PEAUGLFWwindow@@HH@Z 0000000140035e40 f i main.obj
 0001:00034e90       ??R<lambda_1>@?1??append@?$basic_string@DU?$char_traits@D@std@@V?$allocator@D@2@@std@@QEAAAEAV23@QEBD_K@Z@QEBA@QEAD0101@Z 0000000140035e90 f i main.obj
 0001:00034f10       ??R<lambda_1>@?1??append@?$basic_string@DU?$char_traits@D@std@@V?$allocator@D@2@@std@@QEAAAEAV23@_KD@Z@QEBA@QEADQEBD00D@Z 0000000140035f10 f i main.obj
 0001:00034fa0       ??X?$vec3t@M@@QEAA?AU0@AEBU0@@Z 0000000140035fa0 f i main.obj
 0001:00035030       ??Y?$_Vb_const_iterator@U?$_Wrap_alloc@V?$allocator@I@std@@@std@@@std@@QEAAAEAV01@_J@Z 0000000140036030 f i main.obj
 0001:00035130       ??Y?$_Vector_const_iterator@V?$_Vector_val@U?$_Simple_types@V?$basic_json@Vmap@std@@Vvector@2@V?$basic_string@DU?$char_traits@D@std@@V?$allocator@D@2@@2@_N_J_KNVallocator@2@Uadl_serializer@json_abi_v3_11_2@nlohmann@@V?$vector@EV?$allocator@E@std@@@2@X@json_abi_v3_11_2@nlohmann@@@std@@@std@@@std@@QEAAAEAV01@_J@Z 0000000140036130 f i main.obj
 0001:00035170       ??_E?$_Ref_count_obj2@VAnimation@@@std@@UEAAPEAXI@Z 0000000140036170 f i main.obj
 0001:00035170       ??_G?$_Ref_count_obj2@VAnimation@@@std@@UEAAPEAXI@Z 0000000140036170 f i main.obj
 0001:000351b0       ??_E?$basic_ifstream@DU?$char_traits@D@std@@@std@@UEAAPEAXI@Z 00000001400361b0 f i main.obj
 0001:000351b0       ??_G?$basic_ifstream@DU?$char_traits@D@std@@@std@@UEAAPEAXI@Z 00000001400361b0 f i main.obj
 0001:00035210       ??_H@YAXPEAX_K1P6APEAX0@Z@Z 0000000140036210 f i main.obj
 0001:00035280       ??__G@YAXPEAX0_K1P6APEAX00@Z@Z 0000000140036280 f i main.obj
 0001:00035300       ?Bind@Material@@QEAAXXZ    0000000140036300 f i main.obj
 0001:00035540       ?Compile@GLShader@@QEAA_NPEBD@Z 0000000140036540 f i main.obj
 0001:00035690       ?DropCallback@Window@@QEAAXPEAUGLFWwindow@@HQEAPEBD@Z 0000000140036690 f i main.obj
 0001:00035740       ?FieldExpand@ScenesComponent@@QEAAXXZ 0000000140036740 f i main.obj
 0001:00035e00       ?Find@MeshPrimitive@gltf@@QEBAHAEBV?$basic_string@DU?$char_traits@D@std@@V?$allocator@D@2@@std@@@Z 0000000140036e00 f i main.obj
 0001:00035f10       ?Get@?$Blob@VShader@@@@QEAA?AV?$shared_ptr@VShader@@@std@@AEBV?$basic_string@DU?$char_traits@D@std@@V?$allocator@D@2@@3@@Z 0000000140036f10 f i main.obj
 0001:00036000       ?Link@GLProgram@@QEAA_NII@Z 0000000140037000 f i main.obj
 0001:00036170       ?Load@Image@@QEAAXAEBV?$basic_string@DU?$char_traits@D@std@@V?$allocator@D@2@@std@@@Z 0000000140037170 f i main.obj
 0001:000362a0       ?Load@Scenes@@QEAAXAEBV?$basic_string@DU?$char_traits@D@std@@V?$allocator@D@2@@std@@@Z 00000001400372a0 f i main.obj
 0001:00036800       ?Load@Shader@@QEAAXAEBV?$basic_string@DU?$char_traits@D@std@@V?$allocator@D@2@@std@@0@Z 0000000140037800 f i main.obj
 0001:000369d0       ?SetMat4@Shader@@QEBAXAEBV?$basic_string@DU?$char_traits@D@std@@V?$allocator@D@2@@std@@AEBUmat4@@@Z 00000001400379d0 f i main.obj
 0001:00036a70       ?Setup@GLTexture2D@@QEAAXHHHHHHHIIPEBX@Z 0000000140037a70 f i main.obj
 0001:00036bc0       ?SetupAnimation@Scenes@@QEAAXAEBUglTF@gltf@@H@Z 0000000140037bc0 f i main.obj
 0001:00037410       ?SetupGLPrimitive@MeshPrimitive@@QEAAXXZ 0000000140038410 f i main.obj
 0001:00037520       ?SetupGLTexture2D@Texture2D@@QEAAXXZ 0000000140038520 f i main.obj
 0001:000376d0       ?SetupMesh@Scenes@@QEAAXAEBUglTF@gltf@@H@Z 00000001400386d0 f i main.obj
 0001:00037f30       ?SetupSkin@Scenes@@QEAAXAEBUglTF@gltf@@H@Z 0000000140038f30 f i main.obj
 0001:000382c0       ?SetupTexture@Scenes@@QEAAXAEBUglTF@gltf@@H@Z 00000001400392c0 f i main.obj
 0001:000389a0       ?ToString@Sampler@gltf@@QEBA?AV?$basic_string@DU?$char_traits@D@std@@V?$allocator@D@2@@std@@XZ 00000001400399a0 f i main.obj
 0001:00038c80       ?Use@Shader@@QEAAXXZ       0000000140039c80 f i main.obj
 0001:00038cb0       ?UseDefaultShader@Material@@QEAAXXZ 0000000140039cb0 f i main.obj
 0001:00038e90       ?_Activate_SSO_buffer@?$_String_val@U?$_Simple_types@_W@std@@@std@@QEAAXXZ 0000000140039e90 f i main.obj
 0001:00038ee0       ?_Alloc_sentinel_and_proxy@?$_Tree@V?$_Tmap_traits@V?$basic_string@DU?$char_traits@D@std@@V?$allocator@D@2@@std@@V?$basic_json@Vmap@std@@Vvector@2@V?$basic_string@DU?$char_traits@D@std@@V?$allocator@D@2@@2@_N_J_KNVallocator@2@Uadl_serializer@json_abi_v3_11_2@nlohmann@@V?$vector@EV?$allocator@E@std@@@2@X@json_abi_v3_11_2@nlohmann@@U?$less@X@2@V?$allocator@U?$pair@$$CBV?$basic_string@DU?$char_traits@D@std@@V?$allocator@D@2@@std@@V?$basic_json@Vmap@std@@Vvector@2@V?$basic_string@DU?$char_traits@D@std@@V?$allocator@D@2@@2@_N_J_KNVallocator@2@Uadl_serializer@json_abi_v3_11_2@nlohmann@@V?$vector@EV?$allocator@E@std@@@2@X@json_abi_v3_11_2@nlohmann@@@std@@@2@$0A@@std@@@std@@IEAAXXZ 0000000140039ee0 f i main.obj
 0001:00038f50       ?_Alloc_sentinel_and_proxy@?$_Tree@V?$_Tmap_traits@V?$basic_string@DU?$char_traits@D@std@@V?$allocator@D@2@@std@@V?$weak_ptr@VImage@@@2@U?$less@V?$basic_string@DU?$char_traits@D@std@@V?$allocator@D@2@@std@@@2@V?$allocator@U?$pair@$$CBV?$basic_string@DU?$char_traits@D@std@@V?$allocator@D@2@@std@@V?$weak_ptr@VImage@@@2@@std@@@2@$0A@@std@@@std@@IEAAXXZ 0000000140039f50 f i main.obj
 0001:00038fc0       ?_Buy_nonzero@?$vector@IV?$allocator@I@std@@@std@@AEAAX_K@Z 0000000140039fc0 f i main.obj
 0001:00039000       ?_Buy_raw@?$vector@EV?$allocator@E@std@@@std@@AEAAX_K@Z 000000014003a000 f i main.obj
 0001:000390a0       ?_Buy_raw@?$vector@HV?$allocator@H@std@@@std@@AEAAX_K@Z 000000014003a0a0 f i main.obj
 0001:00039140       ?_Buy_raw@?$vector@IV?$allocator@I@std@@@std@@AEAAX_K@Z 000000014003a140 f i main.obj
 0001:000391e0       ?_Calculate_growth@?$basic_string@_WU?$char_traits@_W@std@@V?$allocator@_W@2@@std@@CA_K_K00@Z 000000014003a1e0 f i main.obj
 0001:00039280       ?_Calculate_growth@?$vector@GV?$allocator@G@std@@@std@@AEBA_K_K@Z 000000014003a280 f i main.obj
 0001:00039310       ?_Change_array@?$vector@DV?$allocator@D@std@@@std@@AEAAXQEAD_K1@Z 000000014003a310 f i main.obj
 0001:00039400       ?_Change_array@?$vector@GV?$allocator@G@std@@@std@@AEAAXQEAG_K1@Z 000000014003a400 f i main.obj
 0001:000394f0       ?_Change_array@?$vector@HV?$allocator@H@std@@@std@@AEAAXQEAH_K1@Z 000000014003a4f0 f i main.obj
 0001:000395e0       ?_Check_grow_by_1@?$_Tree@V?$_Tmap_traits@V?$basic_string@DU?$char_traits@D@std@@V?$allocator@D@2@@std@@V?$weak_ptr@VImage@@@2@U?$less@V?$basic_string@DU?$char_traits@D@std@@V?$allocator@D@2@@std@@@2@V?$allocator@U?$pair@$$CBV?$basic_string@DU?$char_traits@D@std@@V?$allocator@D@2@@std@@V?$weak_ptr@VImage@@@2@@std@@@2@$0A@@std@@@std@@IEAAXXZ 000000014003a5e0 f i main.obj
 0001:00039620       ?_Clear_and_reserve_geometric@?$vector@HV?$allocator@H@std@@@std@@AEAAX_K@Z 000000014003a620 f i main.obj
 0001:00039730       ?<lambda_invoker_cdecl>@<lambda_1>@?1???0Window@@QEAA@HHPEBD@Z@SA@PEAUGLFWwindow@@HH@Z 000000014003a730 f i main.obj
 0001:00039770       ?<lambda_invoker_cdecl>@<lambda_2>@?1???0Window@@QEAA@HHPEBD@Z@SA@PEAUGLFWwindow@@HHHH@Z 000000014003a770 f i main.obj
 0001:000397d0       ?<lambda_invoker_cdecl>@<lambda_3>@?1???0Window@@QEAA@HHPEBD@Z@SA@PEAUGLFWwindow@@HQEAPEBD@Z 000000014003a7d0 f i main.obj
 0001:00039810       ??$?0$$BY06D$0A@@path@filesystem@std@@QEAA@AEAY06$$CBDW4format@012@@Z 000000014003a810 f i main.obj
 0001:00039870       ??$?0$$QEAV?$basic_string@DU?$char_traits@D@std@@V?$allocator@D@2@@std@@$$Z$$V@?$pair@$$CBV?$basic_string@DU?$char_traits@D@std@@V?$allocator@D@2@@std@@PEAUmat4@@@std@@QEAA@Upiecewise_construct_t@1@V?$tuple@$$QEAV?$basic_string@DU?$char_traits@D@std@@V?$allocator@D@2@@std@@@1@V?$tuple@$$V@1@@Z 000000014003a870 f i main.obj
 0001:000398e0       ?_Get_scary@?$_Tree@V?$_Tmap_traits@V?$basic_string@DU?$char_traits@D@std@@V?$allocator@D@2@@std@@PEAUmat4@@U?$less@V?$basic_string@DU?$char_traits@D@std@@V?$allocator@D@2@@std@@@2@V?$allocator@U?$pair@$$CBV?$basic_string@DU?$char_traits@D@std@@V?$allocator@D@2@@std@@PEAUmat4@@@std@@@2@$0A@@std@@@std@@IEAAPEAV?$_Tree_val@U?$_Tree_simple_types@U?$pair@$$CBV?$basic_string@DU?$char_traits@D@std@@V?$allocator@D@2@@std@@PEAUmat4@@@std@@@std@@@2@XZ 000000014003a8e0 f i main.obj
 0001:00039900       ??$?0$$V@?$_Compressed_pair@V?$allocator@D@std@@V?$_String_val@U?$_Simple_types@D@std@@@2@$00@std@@QEAA@U_Zero_then_variadic_args_t@1@@Z 000000014003a900 f i main.obj
 0001:00039940       ??$?0$$V@?$_Compressed_pair@V?$allocator@D@std@@V?$_Vector_val@U?$_Simple_types@D@std@@@2@$00@std@@QEAA@U_Zero_then_variadic_args_t@1@@Z 000000014003a940 f i main.obj
 0001:00039980       ??$?0$$V@?$_Compressed_pair@V?$allocator@E@std@@V?$_Vector_val@U?$_Simple_types@E@std@@@2@$00@std@@QEAA@U_Zero_then_variadic_args_t@1@@Z 000000014003a980 f i main.obj
 0001:000399c0       ??$?0$$V@?$_Compressed_pair@V?$allocator@G@std@@V?$_Vector_val@U?$_Simple_types@G@std@@@2@$00@std@@QEAA@U_Zero_then_variadic_args_t@1@@Z 000000014003a9c0 f i main.obj
 0001:00039a00       ??$?0$$V@?$_Compressed_pair@V?$allocator@H@std@@V?$_Vector_val@U?$_Simple_types@H@std@@@2@$00@std@@QEAA@U_Zero_then_variadic_args_t@1@@Z 000000014003aa00 f i main.obj
 0001:00039a40       ??$?0$$V@?$_Compressed_pair@V?$allocator@I@std@@V?$_Vector_val@U?$_Simple_types@I@std@@@2@$00@std@@QEAA@U_Zero_then_variadic_args_t@1@@Z 000000014003aa40 f i main.obj
 0001:00039a80       ??$?0$$V@?$_Compressed_pair@V?$allocator@M@std@@V?$_Vector_val@U?$_Simple_types@M@std@@@2@$00@std@@QEAA@U_Zero_then_variadic_args_t@1@@Z 000000014003aa80 f i main.obj
 0001:00039ac0       ??$?0$$V@?$_Compressed_pair@V?$allocator@PEAV?$basic_json@Vmap@std@@Vvector@2@V?$basic_string@DU?$char_traits@D@std@@V?$allocator@D@2@@2@_N_J_KNVallocator@2@Uadl_serializer@json_abi_v3_11_2@nlohmann@@V?$vector@EV?$allocator@E@std@@@2@X@json_abi_v3_11_2@nlohmann@@@std@@V?$_Vector_val@U?$_Simple_types@PEAV?$basic_json@Vmap@std@@Vvector@2@V?$basic_string@DU?$char_traits@D@std@@V?$allocator@D@2@@2@_N_J_KNVallocator@2@Uadl_serializer@json_abi_v3_11_2@nlohmann@@V?$vector@EV?$allocator@E@std@@@2@X@json_abi_v3_11_2@nlohmann@@@std@@@2@$00@std@@QEAA@U_Zero_then_variadic_args_t@1@@Z 000000014003aac0 f i main.obj
 0001:00039b00       ??$?0$$V@?$_Compressed_pair@V?$allocator@PEAVActor@@@std@@V?$_Vector_val@U?$_Simple_types@PEAVActor@@@std@@@2@$00@std@@QEAA@U_Zero_then_variadic_args_t@1@@Z 000000014003ab00 f i main.obj
 0001:00039b40       ??$?0$$V@?$_Compressed_pair@V?$allocator@PEAVAnimationChannel@@@std@@V?$_Vector_val@U?$_Simple_types@PEAVAnimationChannel@@@std@@@2@$00@std@@QEAA@U_Zero_then_variadic_args_t@1@@Z 000000014003ab40 f i main.obj
 0001:00039b80       ??$?0$$V@?$_Compressed_pair@V?$allocator@PEAVComponent@@@std@@V?$_Vector_val@U?$_Simple_types@PEAVComponent@@@std@@@2@$00@std@@QEAA@U_Zero_then_variadic_args_t@1@@Z 000000014003ab80 f i main.obj
 0001:00039bc0       ??$?0$$V@?$_Compressed_pair@V?$allocator@PEAVNode@@@std@@V?$_Vector_val@U?$_Simple_types@PEAVNode@@@std@@@2@$00@std@@QEAA@U_Zero_then_variadic_args_t@1@@Z 000000014003abc0 f i main.obj
 0001:00039c00       ??$?0$$V@?$_Compressed_pair@V?$allocator@PEAVSkinInstance@@@std@@V?$_Vector_val@U?$_Simple_types@PEAVSkinInstance@@@std@@@2@$00@std@@QEAA@U_Zero_then_variadic_args_t@1@@Z 000000014003ac00 f i main.obj
 0001:00039c40       ??$?0$$V@?$_Compressed_pair@V?$allocator@U?$_Tree_node@U?$pair@$$CBV?$basic_string@DU?$char_traits@D@std@@V?$allocator@D@2@@std@@PEAUmat4@@@std@@PEAX@std@@@std@@V?$_Tree_val@U?$_Tree_simple_types@U?$pair@$$CBV?$basic_string@DU?$char_traits@D@std@@V?$allocator@D@2@@std@@PEAUmat4@@@std@@@std@@@2@$00@std@@QEAA@U_Zero_then_variadic_args_t@1@@Z 000000014003ac40 f i main.obj
 0001:00039c80       ??$?0$$V@?$_Compressed_pair@V?$allocator@U?$_Tree_node@U?$pair@$$CBV?$basic_string@DU?$char_traits@D@std@@V?$allocator@D@2@@std@@V?$basic_json@Vmap@std@@Vvector@2@V?$basic_string@DU?$char_traits@D@std@@V?$allocator@D@2@@2@_N_J_KNVallocator@2@Uadl_serializer@json_abi_v3_11_2@nlohmann@@V?$vector@EV?$allocator@E@std@@@2@X@json_abi_v3_11_2@nlohmann@@@std@@PEAX@std@@@std@@V?$_Tree_val@U?$_Tree_simple_types@U?$pair@$$CBV?$basic_string@DU?$char_traits@D@std@@V?$allocator@D@2@@std@@V?$basic_json@Vmap@std@@Vvector@2@V?$basic_string@DU?$char_traits@D@std@@V?$allocator@D@2@@2@_N_J_KNVallocator@2@Uadl_serializer@json_abi_v3_11_2@nlohmann@@V?$vector@EV?$allocator@E@std@@@2@X@json_abi_v3_11_2@nlohmann@@@std@@@std@@@2@$00@std@@QEAA@U_Zero_then_variadic_args_t@1@@Z 000000014003ac80 f i main.obj
 0001:00039cc0       ??$?0$$V@?$_Compressed_pair@V?$allocator@U?$_Tree_node@U?$pair@$$CBV?$basic_string@DU?$char_traits@D@std@@V?$allocator@D@2@@std@@V?$weak_ptr@VImage@@@2@@std@@PEAX@std@@@std@@V?$_Tree_val@U?$_Tree_simple_types@U?$pair@$$CBV?$basic_string@DU?$char_traits@D@std@@V?$allocator@D@2@@std@@V?$weak_ptr@VImage@@@2@@std@@@std@@@2@$00@std@@QEAA@U_Zero_then_variadic_args_t@1@@Z 000000014003acc0 f i main.obj
 0001:00039d00       ??$?0$$V@?$_Compressed_pair@V?$allocator@U?$_Tree_node@U?$pair@$$CBV?$basic_string@DU?$char_traits@D@std@@V?$allocator@D@2@@std@@V?$weak_ptr@VScenes@@@2@@std@@PEAX@std@@@std@@V?$_Tree_val@U?$_Tree_simple_types@U?$pair@$$CBV?$basic_string@DU?$char_traits@D@std@@V?$allocator@D@2@@std@@V?$weak_ptr@VScenes@@@2@@std@@@std@@@2@$00@std@@QEAA@U_Zero_then_variadic_args_t@1@@Z 000000014003ad00 f i main.obj
 0001:00039d40       ??$?0$$V@?$_Compressed_pair@V?$allocator@U?$_Tree_node@U?$pair@$$CBV?$basic_string@DU?$char_traits@D@std@@V?$allocator@D@2@@std@@V?$weak_ptr@VShader@@@2@@std@@PEAX@std@@@std@@V?$_Tree_val@U?$_Tree_simple_types@U?$pair@$$CBV?$basic_string@DU?$char_traits@D@std@@V?$allocator@D@2@@std@@V?$weak_ptr@VShader@@@2@@std@@@std@@@2@$00@std@@QEAA@U_Zero_then_variadic_args_t@1@@Z 000000014003ad40 f i main.obj
 0001:00039d80       ??$?0$$V@?$_Compressed_pair@V?$allocator@U?$_Tree_node@U?$pair@$$CBV?$basic_string@DU?$char_traits@D@std@@V?$allocator@D@2@@std@@V?$weak_ptr@VTexture2D@@@2@@std@@PEAX@std@@@std@@V?$_Tree_val@U?$_Tree_simple_types@U?$pair@$$CBV?$basic_string@DU?$char_traits@D@std@@V?$allocator@D@2@@std@@V?$weak_ptr@VTexture2D@@@2@@std@@@std@@@2@$00@std@@QEAA@U_Zero_then_variadic_args_t@1@@Z 000000014003ad80 f i main.obj
 0001:00039dc0       ??$?0$$V@?$_Compressed_pair@V?$allocator@U?$pair@V?$basic_string@DU?$char_traits@D@std@@V?$allocator@D@2@@std@@H@std@@@std@@V?$_Vector_val@U?$_Simple_types@U?$pair@V?$basic_string@DU?$char_traits@D@std@@V?$allocator@D@2@@std@@H@std@@@std@@@2@$00@std@@QEAA@U_Zero_then_variadic_args_t@1@@Z 000000014003adc0 f i main.obj
 0001:00039e00       ??$?0$$V@?$_Compressed_pair@V?$allocator@U?$pair@V?$basic_string@DU?$char_traits@D@std@@V?$allocator@D@2@@std@@V?$shared_ptr@VTexture2D@@@2@@std@@@std@@V?$_Vector_val@U?$_Simple_types@U?$pair@V?$basic_string@DU?$char_traits@D@std@@V?$allocator@D@2@@std@@V?$shared_ptr@VTexture2D@@@2@@std@@@std@@@2@$00@std@@QEAA@U_Zero_then_variadic_args_t@1@@Z 000000014003ae00 f i main.obj
 0001:00039e40       ??$?0$$V@?$_Compressed_pair@V?$allocator@U?$quatt@M@@@std@@V?$_Vector_val@U?$_Simple_types@U?$quatt@M@@@std@@@2@$00@std@@QEAA@U_Zero_then_variadic_args_t@1@@Z 000000014003ae40 f i main.obj
 0001:00039e80       ??$?0$$V@?$_Compressed_pair@V?$allocator@U?$vec2t@M@@@std@@V?$_Vector_val@U?$_Simple_types@U?$vec2t@M@@@std@@@2@$00@std@@QEAA@U_Zero_then_variadic_args_t@1@@Z 000000014003ae80 f i main.obj
 0001:00039ec0       ??$?0$$V@?$_Compressed_pair@V?$allocator@U?$vec3t@M@@@std@@V?$_Vector_val@U?$_Simple_types@U?$vec3t@M@@@std@@@2@$00@std@@QEAA@U_Zero_then_variadic_args_t@1@@Z 000000014003aec0 f i main.obj
 0001:00039f00       ??$?0$$V@?$_Compressed_pair@V?$allocator@U?$vec4t@H@@@std@@V?$_Vector_val@U?$_Simple_types@U?$vec4t@H@@@std@@@2@$00@std@@QEAA@U_Zero_then_variadic_args_t@1@@Z 000000014003af00 f i main.obj
 0001:00039f40       ??$?0$$V@?$_Compressed_pair@V?$allocator@U?$vec4t@M@@@std@@V?$_Vector_val@U?$_Simple_types@U?$vec4t@M@@@std@@@2@$00@std@@QEAA@U_Zero_then_variadic_args_t@1@@Z 000000014003af40 f i main.obj
 0001:00039f80       ??$?0$$V@?$_Compressed_pair@V?$allocator@UAccessor@gltf@@@std@@V?$_Vector_val@U?$_Simple_types@UAccessor@gltf@@@std@@@2@$00@std@@QEAA@U_Zero_then_variadic_args_t@1@@Z 000000014003af80 f i main.obj
 0001:00039fc0       ??$?0$$V@?$_Compressed_pair@V?$allocator@UAnimation@gltf@@@std@@V?$_Vector_val@U?$_Simple_types@UAnimation@gltf@@@std@@@2@$00@std@@QEAA@U_Zero_then_variadic_args_t@1@@Z 000000014003afc0 f i main.obj
 0001:0003a000       ??$?0$$V@?$_Compressed_pair@V?$allocator@UAnimationChannel@gltf@@@std@@V?$_Vector_val@U?$_Simple_types@UAnimationChannel@gltf@@@std@@@2@$00@std@@QEAA@U_Zero_then_variadic_args_t@1@@Z 000000014003b000 f i main.obj
 0001:0003a040       ??$?0$$V@?$_Compressed_pair@V?$allocator@UAnimationSampler@gltf@@@std@@V?$_Vector_val@U?$_Simple_types@UAnimationSampler@gltf@@@std@@@2@$00@std@@QEAA@U_Zero_then_variadic_args_t@1@@Z 000000014003b040 f i main.obj
 0001:0003a080       ??$?0$$V@?$_Compressed_pair@V?$allocator@UBuffer@gltf@@@std@@V?$_Vector_val@U?$_Simple_types@UBuffer@gltf@@@std@@@2@$00@std@@QEAA@U_Zero_then_variadic_args_t@1@@Z 000000014003b080 f i main.obj
 0001:0003a0c0       ??$?0$$V@?$_Compressed_pair@V?$allocator@UBufferView@gltf@@@std@@V?$_Vector_val@U?$_Simple_types@UBufferView@gltf@@@std@@@2@$00@std@@QEAA@U_Zero_then_variadic_args_t@1@@Z 000000014003b0c0 f i main.obj
 0001:0003a100       ??$?0$$V@?$_Compressed_pair@V?$allocator@UCamera@gltf@@@std@@V?$_Vector_val@U?$_Simple_types@UCamera@gltf@@@std@@@2@$00@std@@QEAA@U_Zero_then_variadic_args_t@1@@Z 000000014003b100 f i main.obj
 0001:0003a140       ??$?0$$V@?$_Compressed_pair@V?$allocator@UImage@gltf@@@std@@V?$_Vector_val@U?$_Simple_types@UImage@gltf@@@std@@@2@$00@std@@QEAA@U_Zero_then_variadic_args_t@1@@Z 000000014003b140 f i main.obj
 0001:0003a180       ??$?0$$V@?$_Compressed_pair@V?$allocator@UMaterial@gltf@@@std@@V?$_Vector_val@U?$_Simple_types@UMaterial@gltf@@@std@@@2@$00@std@@QEAA@U_Zero_then_variadic_args_t@1@@Z 000000014003b180 f i main.obj
 0001:0003a1c0       ??$?0$$V@?$_Compressed_pair@V?$allocator@UMesh@gltf@@@std@@V?$_Vector_val@U?$_Simple_types@UMesh@gltf@@@std@@@2@$00@std@@QEAA@U_Zero_then_variadic_args_t@1@@Z 000000014003b1c0 f i main.obj
 0001:0003a200       ??$?0$$V@?$_Compressed_pair@V?$allocator@UMeshPrimitive@gltf@@@std@@V?$_Vector_val@U?$_Simple_types@UMeshPrimitive@gltf@@@std@@@2@$00@std@@QEAA@U_Zero_then_variadic_args_t@1@@Z 000000014003b200 f i main.obj
 0001:0003a240       ??$?0$$V@?$_Compressed_pair@V?$allocator@UNode@gltf@@@std@@V?$_Vector_val@U?$_Simple_types@UNode@gltf@@@std@@@2@$00@std@@QEAA@U_Zero_then_variadic_args_t@1@@Z 000000014003b240 f i main.obj
 0001:0003a280       ??$?0$$V@?$_Compressed_pair@V?$allocator@USampler@gltf@@@std@@V?$_Vector_val@U?$_Simple_types@USampler@gltf@@@std@@@2@$00@std@@QEAA@U_Zero_then_variadic_args_t@1@@Z 000000014003b280 f i main.obj
 0001:0003a2c0       ??$?0$$V@?$_Compressed_pair@V?$allocator@UScene@gltf@@@std@@V?$_Vector_val@U?$_Simple_types@UScene@gltf@@@std@@@2@$00@std@@QEAA@U_Zero_then_variadic_args_t@1@@Z 000000014003b2c0 f i main.obj
 0001:0003a300       ??$?0$$V@?$_Compressed_pair@V?$allocator@USkin@gltf@@@std@@V?$_Vector_val@U?$_Simple_types@USkin@gltf@@@std@@@2@$00@std@@QEAA@U_Zero_then_variadic_args_t@1@@Z 000000014003b300 f i main.obj
 0001:0003a340       ??$?0$$V@?$_Compressed_pair@V?$allocator@UTexture@gltf@@@std@@V?$_Vector_val@U?$_Simple_types@UTexture@gltf@@@std@@@2@$00@std@@QEAA@U_Zero_then_variadic_args_t@1@@Z 000000014003b340 f i main.obj
 0001:0003a380       ??$?0$$V@?$_Compressed_pair@V?$allocator@Umat4@@@std@@V?$_Vector_val@U?$_Simple_types@Umat4@@@std@@@2@$00@std@@QEAA@U_Zero_then_variadic_args_t@1@@Z 000000014003b380 f i main.obj
 0001:0003a3c0       ??$?0$$V@?$_Compressed_pair@V?$allocator@V?$basic_json@Vmap@std@@Vvector@2@V?$basic_string@DU?$char_traits@D@std@@V?$allocator@D@2@@2@_N_J_KNVallocator@2@Uadl_serializer@json_abi_v3_11_2@nlohmann@@V?$vector@EV?$allocator@E@std@@@2@X@json_abi_v3_11_2@nlohmann@@@std@@V?$_Vector_val@U?$_Simple_types@V?$basic_json@Vmap@std@@Vvector@2@V?$basic_string@DU?$char_traits@D@std@@V?$allocator@D@2@@2@_N_J_KNVallocator@2@Uadl_serializer@json_abi_v3_11_2@nlohmann@@V?$vector@EV?$allocator@E@std@@@2@X@json_abi_v3_11_2@nlohmann@@@std@@@2@$00@std@@QEAA@U_Zero_then_variadic_args_t@1@@Z 000000014003b3c0 f i main.obj
 0001:0003a400       ??$?0$$V@?$_Compressed_pair@V?$allocator@V?$basic_string@DU?$char_traits@D@std@@V?$allocator@D@2@@std@@@std@@V?$_Vector_val@U?$_Simple_types@V?$basic_string@DU?$char_traits@D@std@@V?$allocator@D@2@@std@@@std@@@2@$00@std@@QEAA@U_Zero_then_variadic_args_t@1@@Z 000000014003b400 f i main.obj
 0001:0003a440       ??$?0$$V@?$_Compressed_pair@V?$allocator@V?$shared_ptr@VAnimation@@@std@@@std@@V?$_Vector_val@U?$_Simple_types@V?$shared_ptr@VAnimation@@@std@@@std@@@2@$00@std@@QEAA@U_Zero_then_variadic_args_t@1@@Z 000000014003b440 f i main.obj
 0001:0003a480       ??$?0$$V@?$_Compressed_pair@V?$allocator@V?$shared_ptr@VMaterial@@@std@@@std@@V?$_Vector_val@U?$_Simple_types@V?$shared_ptr@VMaterial@@@std@@@std@@@2@$00@std@@QEAA@U_Zero_then_variadic_args_t@1@@Z 000000014003b480 f i main.obj
 0001:0003a4c0       ??$?0$$V@?$_Compressed_pair@V?$allocator@V?$shared_ptr@VMesh@@@std@@@std@@V?$_Vector_val@U?$_Simple_types@V?$shared_ptr@VMesh@@@std@@@std@@@2@$00@std@@QEAA@U_Zero_then_variadic_args_t@1@@Z 000000014003b4c0 f i main.obj
 0001:0003a500       ??$?0$$V@?$_Compressed_pair@V?$allocator@V?$shared_ptr@VSkin@@@std@@@std@@V?$_Vector_val@U?$_Simple_types@V?$shared_ptr@VSkin@@@std@@@std@@@2@$00@std@@QEAA@U_Zero_then_variadic_args_t@1@@Z 000000014003b500 f i main.obj
 0001:0003a540       ??$?0$$V@?$_Compressed_pair@V?$allocator@V?$shared_ptr@VTexture2D@@@std@@@std@@V?$_Vector_val@U?$_Simple_types@V?$shared_ptr@VTexture2D@@@std@@@std@@@2@$00@std@@QEAA@U_Zero_then_variadic_args_t@1@@Z 000000014003b540 f i main.obj
 0001:0003a580       ??$?0$$V@?$_Compressed_pair@V?$allocator@VAnimationChannel@@@std@@V?$_Vector_val@U?$_Simple_types@VAnimationChannel@@@std@@@2@$00@std@@QEAA@U_Zero_then_variadic_args_t@1@@Z 000000014003b580 f i main.obj
 0001:0003a5c0       ??$?0$$V@?$_Compressed_pair@V?$allocator@VAnimationInstance@@@std@@V?$_Vector_val@U?$_Simple_types@VAnimationInstance@@@std@@@2@$00@std@@QEAA@U_Zero_then_variadic_args_t@1@@Z 000000014003b5c0 f i main.obj
 0001:0003a600       ??$?0$$V@?$_Compressed_pair@V?$allocator@VAnimationInstanceView@@@std@@V?$_Vector_val@U?$_Simple_types@VAnimationInstanceView@@@std@@@2@$00@std@@QEAA@U_Zero_then_variadic_args_t@1@@Z 000000014003b600 f i main.obj
 0001:0003a640       ??$?0$$V@?$_Compressed_pair@V?$allocator@VAnimationSampler@@@std@@V?$_Vector_val@U?$_Simple_types@VAnimationSampler@@@std@@@2@$00@std@@QEAA@U_Zero_then_variadic_args_t@1@@Z 000000014003b640 f i main.obj
 0001:0003a680       ??$?0$$V@?$_Compressed_pair@V?$allocator@VMeshPrimitive@@@std@@V?$_Vector_val@U?$_Simple_types@VMeshPrimitive@@@std@@@2@$00@std@@QEAA@U_Zero_then_variadic_args_t@1@@Z 000000014003b680 f i main.obj
 0001:0003a6c0       ??$?0$$V@?$_Compressed_pair@V?$allocator@VScene@@@std@@V?$_Vector_val@U?$_Simple_types@VScene@@@std@@@2@$00@std@@QEAA@U_Zero_then_variadic_args_t@1@@Z 000000014003b6c0 f i main.obj
 0001:0003a700       ??$?0$$V@?$_Compressed_pair@V?$allocator@VSceneNode@@@std@@V?$_Vector_val@U?$_Simple_types@VSceneNode@@@std@@@2@$00@std@@QEAA@U_Zero_then_variadic_args_t@1@@Z 000000014003b700 f i main.obj
 0001:0003a740       ??$?0$$V@?$_Compressed_pair@V?$allocator@_W@std@@V?$_String_val@U?$_Simple_types@_W@std@@@2@$00@std@@QEAA@U_Zero_then_variadic_args_t@1@@Z 000000014003b740 f i main.obj
 0001:0003a780       ??$?0$$V@?$_Ref_count_obj2@VAnimation@@@std@@QEAA@XZ 000000014003b780 f i main.obj
 0001:0003a7e0       ??$?0$$V@?$_Ref_count_obj2@VImage@@@std@@QEAA@XZ 000000014003b7e0 f i main.obj
 0001:0003a830       ?_Get_scary@?$_Tree@V?$_Tmap_traits@V?$basic_string@DU?$char_traits@D@std@@V?$allocator@D@2@@std@@PEAUmat4@@U?$less@V?$basic_string@DU?$char_traits@D@std@@V?$allocator@D@2@@std@@@2@V?$allocator@U?$pair@$$CBV?$basic_string@DU?$char_traits@D@std@@V?$allocator@D@2@@std@@PEAUmat4@@@std@@@2@$0A@@std@@@std@@IEBAPEBV?$_Tree_val@U?$_Tree_simple_types@U?$pair@$$CBV?$basic_string@DU?$char_traits@D@std@@V?$allocator@D@2@@std@@PEAUmat4@@@std@@@std@@@2@XZ 000000014003b830 f i main.obj
 0001:0003a850       ??$?0$$V@?$_Ref_count_obj2@VMaterial@@@std@@QEAA@XZ 000000014003b850 f i main.obj
 0001:0003a8a0       ?_Get_scary@?$_Tree@V?$_Tmap_traits@V?$basic_string@DU?$char_traits@D@std@@V?$allocator@D@2@@std@@V?$basic_json@Vmap@std@@Vvector@2@V?$basic_string@DU?$char_traits@D@std@@V?$allocator@D@2@@2@_N_J_KNVallocator@2@Uadl_serializer@json_abi_v3_11_2@nlohmann@@V?$vector@EV?$allocator@E@std@@@2@X@json_abi_v3_11_2@nlohmann@@U?$less@X@2@V?$allocator@U?$pair@$$CBV?$basic_string@DU?$char_traits@D@std@@V?$allocator@D@2@@std@@V?$basic_json@Vmap@std@@Vvector@2@V?$basic_string@DU?$char_traits@D@std@@V?$allocator@D@2@@2@_N_J_KNVallocator@2@Uadl_serializer@json_abi_v3_11_2@nlohmann@@V?$vector@EV?$allocator@E@std@@@2@X@json_abi_v3_11_2@nlohmann@@@std@@@2@$0A@@std@@@std@@IEAAPEAV?$_Tree_val@U?$_Tree_simple_types@U?$pair@$$CBV?$basic_string@DU?$char_traits@D@std@@V?$allocator@D@2@@std@@V?$basic_json@Vmap@std@@Vvector@2@V?$basic_string@DU?$char_traits@D@std@@V?$allocator@D@2@@2@_N_J_KNVallocator@2@Uadl_serializer@json_abi_v3_11_2@nlohmann@@V?$vector@EV?$allocator@E@std@@@2@X@json_abi_v3_11_2@nlohmann@@@std@@@std@@@2@XZ 000000014003b8a0 f i main.obj
 0001:0003a8c0       ??$?0$$V@?$_Ref_count_obj2@VMesh@@@std@@QEAA@XZ 000000014003b8c0 f i main.obj
 0001:0003a920       ??$?0$$V@?$_Ref_count_obj2@VScenes@@@std@@QEAA@XZ 000000014003b920 f i main.obj
 0001:0003a980       ??$?0$$V@?$_Ref_count_obj2@VShader@@@std@@QEAA@XZ 000000014003b980 f i main.obj
 0001:0003a9d0       ?_Xlen_string@std@@YAXXZ   000000014003b9d0 f i main.obj
 0001:0003a9f0       ??$?0$$V@?$_Ref_count_obj2@VSkin@@@std@@QEAA@XZ 000000014003b9f0 f i main.obj
 0001:0003aa50       ??$?0$$V@?$_Ref_count_obj2@VTexture2D@@@std@@QEAA@XZ 000000014003ba50 f i main.obj
 0001:0003aaa0       ?_Xlength@?$vector@DV?$allocator@D@std@@@std@@CAXXZ 000000014003baa0 f i main.obj
 0001:0003aac0       ??$?0AEANN$0A@@?$basic_json@Vmap@std@@Vvector@2@V?$basic_string@DU?$char_traits@D@std@@V?$allocator@D@2@@2@_N_J_KNVallocator@2@Uadl_serializer@json_abi_v3_11_2@nlohmann@@V?$vector@EV?$allocator@E@std@@@2@X@json_abi_v3_11_2@nlohmann@@QEAA@AEAN@Z 000000014003bac0 f i main.obj
 0001:0003ab20       ?data@?$basic_string@DU?$char_traits@D@std@@V?$allocator@D@2@@std@@QEAAPEADXZ 000000014003bb20 f i main.obj
 0001:0003ab40       ??$?0AEAPEAU?$_Tree_node@U?$pair@$$CBV?$basic_string@DU?$char_traits@D@std@@V?$allocator@D@2@@std@@V?$basic_json@Vmap@std@@Vvector@2@V?$basic_string@DU?$char_traits@D@std@@V?$allocator@D@2@@2@_N_J_KNVallocator@2@Uadl_serializer@json_abi_v3_11_2@nlohmann@@V?$vector@EV?$allocator@E@std@@@2@X@json_abi_v3_11_2@nlohmann@@@std@@PEAX@std@@_N$0A@@?$pair@PEAU?$_Tree_node@U?$pair@$$CBV?$basic_string@DU?$char_traits@D@std@@V?$allocator@D@2@@std@@V?$basic_json@Vmap@std@@Vvector@2@V?$basic_string@DU?$char_traits@D@std@@V?$allocator@D@2@@2@_N_J_KNVallocator@2@Uadl_serializer@json_abi_v3_11_2@nlohmann@@V?$vector@EV?$allocator@E@std@@@2@X@json_abi_v3_11_2@nlohmann@@@std@@PEAX@std@@_N@std@@QEAA@AEAPEAU?$_Tree_node@U?$pair@$$CBV?$basic_string@DU?$char_traits@D@std@@V?$allocator@D@2@@std@@V?$basic_json@Vmap@std@@Vvector@2@V?$basic_string@DU?$char_traits@D@std@@V?$allocator@D@2@@2@_N_J_KNVallocator@2@Uadl_serializer@json_abi_v3_11_2@nlohmann@@V?$vector@EV?$allocator@E@std@@@2@X@json_abi_v3_11_2@nlohmann@@@std@@PEAX@1@$$QEA_N@Z 000000014003bb40 f i main.obj
 0001:0003ab90       ??$?0AEAPEAV_Facet_base@std@@@?$_Compressed_pair@U?$default_delete@V_Facet_base@std@@@std@@PEAV_Facet_base@2@$00@std@@QEAA@U_Zero_then_variadic_args_t@1@AEAPEAV_Facet_base@1@@Z 000000014003bb90 f i main.obj
 0001:0003abc0       ??$?0AEAV?$allocator@D@std@@$$V@?$_Compressed_pair@V?$allocator@D@std@@V?$_String_val@U?$_Simple_types@D@std@@@2@$00@std@@QEAA@U_One_then_variadic_args_t@1@AEAV?$allocator@D@1@@Z 000000014003bbc0 f i main.obj
 0001:0003ac00       ??$?0AEAV?$basic_string@DU?$char_traits@D@std@@V?$allocator@D@2@@std@@V01@$0A@@?$basic_json@Vmap@std@@Vvector@2@V?$basic_string@DU?$char_traits@D@std@@V?$allocator@D@2@@2@_N_J_KNVallocator@2@Uadl_serializer@json_abi_v3_11_2@nlohmann@@V?$vector@EV?$allocator@E@std@@@2@X@json_abi_v3_11_2@nlohmann@@QEAA@AEAV?$basic_string@DU?$char_traits@D@std@@V?$allocator@D@2@@std@@@Z 000000014003bc00 f i main.obj
 0001:0003ac80       ??$?0AEAY0N@$$CBDAEAV?$shared_ptr@VTexture2D@@@std@@$0A@@?$pair@PEBDV?$shared_ptr@VTexture2D@@@std@@@std@@QEAA@AEAY0N@$$CBDAEAV?$shared_ptr@VTexture2D@@@1@@Z 000000014003bc80 f i main.obj
 0001:0003ace0       ??$?0AEA_J_J$0A@@?$basic_json@Vmap@std@@Vvector@2@V?$basic_string@DU?$char_traits@D@std@@V?$allocator@D@2@@2@_N_J_KNVallocator@2@Uadl_serializer@json_abi_v3_11_2@nlohmann@@V?$vector@EV?$allocator@E@std@@@2@X@json_abi_v3_11_2@nlohmann@@QEAA@AEA_J@Z 000000014003bce0 f i main.obj
 0001:0003ad40       ?data@?$basic_string@DU?$char_traits@D@std@@V?$allocator@D@2@@std@@QEBAPEBDXZ 000000014003bd40 f i main.obj
 0001:0003ad60       ??$?0AEA_K_K$0A@@?$basic_json@Vmap@std@@Vvector@2@V?$basic_string@DU?$char_traits@D@std@@V?$allocator@D@2@@2@_N_J_KNVallocator@2@Uadl_serializer@json_abi_v3_11_2@nlohmann@@V?$vector@EV?$allocator@E@std@@@2@X@json_abi_v3_11_2@nlohmann@@QEAA@AEA_K@Z 000000014003bd60 f i main.obj
 0001:0003adc0       ?data@?$basic_string@_WU?$char_traits@_W@std@@V?$allocator@_W@2@@std@@QEAAPEA_WXZ 000000014003bdc0 f i main.obj
 0001:0003ade0       ??$?0AEA_N_N$0A@@?$basic_json@Vmap@std@@Vvector@2@V?$basic_string@DU?$char_traits@D@std@@V?$allocator@D@2@@2@_N_J_KNVallocator@2@Uadl_serializer@json_abi_v3_11_2@nlohmann@@V?$vector@EV?$allocator@E@std@@@2@X@json_abi_v3_11_2@nlohmann@@QEAA@AEA_N@Z 000000014003bde0 f i main.obj
 0001:0003ae40       ?what@filesystem_error@filesystem@std@@UEBAPEBDXZ 000000014003be40 f i main.obj
 0001:0003ae60       ??$?0AEBQEAU?$_Tree_node@U?$pair@$$CBV?$basic_string@DU?$char_traits@D@std@@V?$allocator@D@2@@std@@PEAUmat4@@@std@@PEAX@std@@_N$0A@@?$pair@PEAU?$_Tree_node@U?$pair@$$CBV?$basic_string@DU?$char_traits@D@std@@V?$allocator@D@2@@std@@PEAUmat4@@@std@@PEAX@std@@_N@std@@QEAA@AEBQEAU?$_Tree_node@U?$pair@$$CBV?$basic_string@DU?$char_traits@D@std@@V?$allocator@D@2@@std@@PEAUmat4@@@std@@PEAX@1@$$QEA_N@Z 000000014003be60 f i main.obj
 0001:0003aeb0       ??$?0AEBQEAU?$_Tree_node@U?$pair@$$CBV?$basic_string@DU?$char_traits@D@std@@V?$allocator@D@2@@std@@V?$basic_json@Vmap@std@@Vvector@2@V?$basic_string@DU?$char_traits@D@std@@V?$allocator@D@2@@2@_N_J_KNVallocator@2@Uadl_serializer@json_abi_v3_11_2@nlohmann@@V?$vector@EV?$allocator@E@std@@@2@X@json_abi_v3_11_2@nlohmann@@@std@@PEAX@std@@_N$0A@@?$pair@PEAU?$_Tree_node@U?$pair@$$CBV?$basic_string@DU?$char_traits@D@std@@V?$allocator@D@2@@std@@V?$basic_json@Vmap@std@@Vvector@2@V?$basic_string@DU?$char_traits@D@std@@V?$allocator@D@2@@2@_N_J_KNVallocator@2@Uadl_serializer@json_abi_v3_11_2@nlohmann@@V?$vector@EV?$allocator@E@std@@@2@X@json_abi_v3_11_2@nlohmann@@@std@@PEAX@std@@_N@std@@QEAA@AEBQEAU?$_Tree_node@U?$pair@$$CBV?$basic_string@DU?$char_traits@D@std@@V?$allocator@D@2@@std@@V?$basic_json@Vmap@std@@Vvector@2@V?$basic_string@DU?$char_traits@D@std@@V?$allocator@D@2@@2@_N_J_KNVallocator@2@Uadl_serializer@json_abi_v3_11_2@nlohmann@@V?$vector@EV?$allocator@E@std@@@2@X@json_abi_v3_11_2@nlohmann@@@std@@PEAX@1@$$QEA_N@Z 000000014003beb0 f i main.obj
 0001:0003af00       ??$?0AEBQEAU?$_Tree_node@U?$pair@$$CBV?$basic_string@DU?$char_traits@D@std@@V?$allocator@D@2@@std@@V?$weak_ptr@VImage@@@2@@std@@PEAX@std@@_N$0A@@?$pair@PEAU?$_Tree_node@U?$pair@$$CBV?$basic_string@DU?$char_traits@D@std@@V?$allocator@D@2@@std@@V?$weak_ptr@VImage@@@2@@std@@PEAX@std@@_N@std@@QEAA@AEBQEAU?$_Tree_node@U?$pair@$$CBV?$basic_string@DU?$char_traits@D@std@@V?$allocator@D@2@@std@@V?$weak_ptr@VImage@@@2@@std@@PEAX@1@$$QEA_N@Z 000000014003bf00 f i main.obj
 0001:0003af50       ??$?0AEBQEAU?$_Tree_node@U?$pair@$$CBV?$basic_string@DU?$char_traits@D@std@@V?$allocator@D@2@@std@@V?$weak_ptr@VScenes@@@2@@std@@PEAX@std@@_N$0A@@?$pair@PEAU?$_Tree_node@U?$pair@$$CBV?$basic_string@DU?$char_traits@D@std@@V?$allocator@D@2@@std@@V?$weak_ptr@VScenes@@@2@@std@@PEAX@std@@_N@std@@QEAA@AEBQEAU?$_Tree_node@U?$pair@$$CBV?$basic_string@DU?$char_traits@D@std@@V?$allocator@D@2@@std@@V?$weak_ptr@VScenes@@@2@@std@@PEAX@1@$$QEA_N@Z 000000014003bf50 f i main.obj
 0001:0003afa0       ??$?0AEBQEAU?$_Tree_node@U?$pair@$$CBV?$basic_string@DU?$char_traits@D@std@@V?$allocator@D@2@@std@@V?$weak_ptr@VShader@@@2@@std@@PEAX@std@@_N$0A@@?$pair@PEAU?$_Tree_node@U?$pair@$$CBV?$basic_string@DU?$char_traits@D@std@@V?$allocator@D@2@@std@@V?$weak_ptr@VShader@@@2@@std@@PEAX@std@@_N@std@@QEAA@AEBQEAU?$_Tree_node@U?$pair@$$CBV?$basic_string@DU?$char_traits@D@std@@V?$allocator@D@2@@std@@V?$weak_ptr@VShader@@@2@@std@@PEAX@1@$$QEA_N@Z 000000014003bfa0 f i main.obj
 0001:0003aff0       ??$?0AEBQEAU?$_Tree_node@U?$pair@$$CBV?$basic_string@DU?$char_traits@D@std@@V?$allocator@D@2@@std@@V?$weak_ptr@VTexture2D@@@2@@std@@PEAX@std@@_N$0A@@?$pair@PEAU?$_Tree_node@U?$pair@$$CBV?$basic_string@DU?$char_traits@D@std@@V?$allocator@D@2@@std@@V?$weak_ptr@VTexture2D@@@2@@std@@PEAX@std@@_N@std@@QEAA@AEBQEAU?$_Tree_node@U?$pair@$$CBV?$basic_string@DU?$char_traits@D@std@@V?$allocator@D@2@@std@@V?$weak_ptr@VTexture2D@@@2@@std@@PEAX@1@$$QEA_N@Z 000000014003bff0 f i main.obj
 0001:0003b040       ??$?0AEBU?$less@V?$basic_string@DU?$char_traits@D@std@@V?$allocator@D@2@@std@@@std@@U_Zero_then_variadic_args_t@1@@?$_Compressed_pair@U?$less@V?$basic_string@DU?$char_traits@D@std@@V?$allocator@D@2@@std@@@std@@V?$_Compressed_pair@V?$allocator@U?$_Tree_node@U?$pair@$$CBV?$basic_string@DU?$char_traits@D@std@@V?$allocator@D@2@@std@@PEAUmat4@@@std@@PEAX@std@@@std@@V?$_Tree_val@U?$_Tree_simple_types@U?$pair@$$CBV?$basic_string@DU?$char_traits@D@std@@V?$allocator@D@2@@std@@PEAUmat4@@@std@@@std@@@2@$00@2@$00@std@@QEAA@U_One_then_variadic_args_t@1@AEBU?$less@V?$basic_string@DU?$char_traits@D@std@@V?$allocator@D@2@@std@@@1@$$QEAU_Zero_then_variadic_args_t@1@@Z 000000014003c040 f i main.obj
 0001:0003b090       ??$?0AEBU?$less@V?$basic_string@DU?$char_traits@D@std@@V?$allocator@D@2@@std@@@std@@U_Zero_then_variadic_args_t@1@@?$_Compressed_pair@U?$less@V?$basic_string@DU?$char_traits@D@std@@V?$allocator@D@2@@std@@@std@@V?$_Compressed_pair@V?$allocator@U?$_Tree_node@U?$pair@$$CBV?$basic_string@DU?$char_traits@D@std@@V?$allocator@D@2@@std@@V?$weak_ptr@VImage@@@2@@std@@PEAX@std@@@std@@V?$_Tree_val@U?$_Tree_simple_types@U?$pair@$$CBV?$basic_string@DU?$char_traits@D@std@@V?$allocator@D@2@@std@@V?$weak_ptr@VImage@@@2@@std@@@std@@@2@$00@2@$00@std@@QEAA@U_One_then_variadic_args_t@1@AEBU?$less@V?$basic_string@DU?$char_traits@D@std@@V?$allocator@D@2@@std@@@1@$$QEAU_Zero_then_variadic_args_t@1@@Z 000000014003c090 f i main.obj
 0001:0003b0e0       ??$?0AEBU?$less@V?$basic_string@DU?$char_traits@D@std@@V?$allocator@D@2@@std@@@std@@U_Zero_then_variadic_args_t@1@@?$_Compressed_pair@U?$less@V?$basic_string@DU?$char_traits@D@std@@V?$allocator@D@2@@std@@@std@@V?$_Compressed_pair@V?$allocator@U?$_Tree_node@U?$pair@$$CBV?$basic_string@DU?$char_traits@D@std@@V?$allocator@D@2@@std@@V?$weak_ptr@VScenes@@@2@@std@@PEAX@std@@@std@@V?$_Tree_val@U?$_Tree_simple_types@U?$pair@$$CBV?$basic_string@DU?$char_traits@D@std@@V?$allocator@D@2@@std@@V?$weak_ptr@VScenes@@@2@@std@@@std@@@2@$00@2@$00@std@@QEAA@U_One_then_variadic_args_t@1@AEBU?$less@V?$basic_string@DU?$char_traits@D@std@@V?$allocator@D@2@@std@@@1@$$QEAU_Zero_then_variadic_args_t@1@@Z 000000014003c0e0 f i main.obj
 0001:0003b130       ??$?0AEBU?$less@V?$basic_string@DU?$char_traits@D@std@@V?$allocator@D@2@@std@@@std@@U_Zero_then_variadic_args_t@1@@?$_Compressed_pair@U?$less@V?$basic_string@DU?$char_traits@D@std@@V?$allocator@D@2@@std@@@std@@V?$_Compressed_pair@V?$allocator@U?$_Tree_node@U?$pair@$$CBV?$basic_string@DU?$char_traits@D@std@@V?$allocator@D@2@@std@@V?$weak_ptr@VShader@@@2@@std@@PEAX@std@@@std@@V?$_Tree_val@U?$_Tree_simple_types@U?$pair@$$CBV?$basic_string@DU?$char_traits@D@std@@V?$allocator@D@2@@std@@V?$weak_ptr@VShader@@@2@@std@@@std@@@2@$00@2@$00@std@@QEAA@U_One_then_variadic_args_t@1@AEBU?$less@V?$basic_string@DU?$char_traits@D@std@@V?$allocator@D@2@@std@@@1@$$QEAU_Zero_then_variadic_args_t@1@@Z 000000014003c130 f i main.obj
 0001:0003b180       ??$?0AEBU?$less@V?$basic_string@DU?$char_traits@D@std@@V?$allocator@D@2@@std@@@std@@U_Zero_then_variadic_args_t@1@@?$_Compressed_pair@U?$less@V?$basic_string@DU?$char_traits@D@std@@V?$allocator@D@2@@std@@@std@@V?$_Compressed_pair@V?$allocator@U?$_Tree_node@U?$pair@$$CBV?$basic_string@DU?$char_traits@D@std@@V?$allocator@D@2@@std@@V?$weak_ptr@VTexture2D@@@2@@std@@PEAX@std@@@std@@V?$_Tree_val@U?$_Tree_simple_types@U?$pair@$$CBV?$basic_string@DU?$char_traits@D@std@@V?$allocator@D@2@@std@@V?$weak_ptr@VTexture2D@@@2@@std@@@std@@@2@$00@2@$00@std@@QEAA@U_One_then_variadic_args_t@1@AEBU?$less@V?$basic_string@DU?$char_traits@D@std@@V?$allocator@D@2@@std@@@1@$$QEAU_Zero_then_variadic_args_t@1@@Z 000000014003c180 f i main.obj
 0001:0003b1d0       ??$?0AEBU?$less@X@std@@U_Zero_then_variadic_args_t@1@@?$_Compressed_pair@U?$less@X@std@@V?$_Compressed_pair@V?$allocator@U?$_Tree_node@U?$pair@$$CBV?$basic_string@DU?$char_traits@D@std@@V?$allocator@D@2@@std@@V?$basic_json@Vmap@std@@Vvector@2@V?$basic_string@DU?$char_traits@D@std@@V?$allocator@D@2@@2@_N_J_KNVallocator@2@Uadl_serializer@json_abi_v3_11_2@nlohmann@@V?$vector@EV?$allocator@E@std@@@2@X@json_abi_v3_11_2@nlohmann@@@std@@PEAX@std@@@std@@V?$_Tree_val@U?$_Tree_simple_types@U?$pair@$$CBV?$basic_string@DU?$char_traits@D@std@@V?$allocator@D@2@@std@@V?$basic_json@Vmap@std@@Vvector@2@V?$basic_string@DU?$char_traits@D@std@@V?$allocator@D@2@@2@_N_J_KNVallocator@2@Uadl_serializer@json_abi_v3_11_2@nlohmann@@V?$vector@EV?$allocator@E@std@@@2@X@json_abi_v3_11_2@nlohmann@@@std@@@std@@@2@$00@2@$00@std@@QEAA@U_One_then_variadic_args_t@1@AEBU?$less@X@1@$$QEAU_Zero_then_variadic_args_t@1@@Z 000000014003c1d0 f i main.obj
 0001:0003b220       ??$?0AEBUpiecewise_construct_t@std@@V?$tuple@$$QEAV?$basic_string@DU?$char_traits@D@std@@V?$allocator@D@2@@std@@@1@V?$tuple@$$V@1@@?$_Tree_temp_node@V?$allocator@U?$_Tree_node@U?$pair@$$CBV?$basic_string@DU?$char_traits@D@std@@V?$allocator@D@2@@std@@PEAUmat4@@@std@@PEAX@std@@@std@@@std@@QEAA@AEAV?$allocator@U?$_Tree_node@U?$pair@$$CBV?$basic_string@DU?$char_traits@D@std@@V?$allocator@D@2@@std@@PEAUmat4@@@std@@PEAX@std@@@1@PEAU?$_Tree_node@U?$pair@$$CBV?$basic_string@DU?$char_traits@D@std@@V?$allocator@D@2@@std@@PEAUmat4@@@std@@PEAX@1@AEBUpiecewise_construct_t@1@$$QEAV?$tuple@$$QEAV?$basic_string@DU?$char_traits@D@std@@V?$allocator@D@2@@std@@@1@$$QEAV?$tuple@$$V@1@@Z 000000014003c220 f i main.obj
 0001:0003b300       ?_Decref@?$_Ptr_base@VAnimation@@@std@@IEAAXXZ 000000014003c300 f i main.obj
 0001:0003b340       ??$?0AEBUpiecewise_construct_t@std@@V?$tuple@AEBV?$basic_string@DU?$char_traits@D@std@@V?$allocator@D@2@@std@@@1@V?$tuple@$$V@1@@?$_Tree_temp_node@V?$allocator@U?$_Tree_node@U?$pair@$$CBV?$basic_string@DU?$char_traits@D@std@@V?$allocator@D@2@@std@@V?$basic_json@Vmap@std@@Vvector@2@V?$basic_string@DU?$char_traits@D@std@@V?$allocator@D@2@@2@_N_J_KNVallocator@2@Uadl_serializer@json_abi_v3_11_2@nlohmann@@V?$vector@EV?$allocator@E@std@@@2@X@json_abi_v3_11_2@nlohmann@@@std@@PEAX@std@@@std@@@std@@QEAA@AEAV?$allocator@U?$_Tree_node@U?$pair@$$CBV?$basic_string@DU?$char_traits@D@std@@V?$allocator@D@2@@std@@V?$basic_json@Vmap@std@@Vvector@2@V?$basic_string@DU?$char_traits@D@std@@V?$allocator@D@2@@2@_N_J_KNVallocator@2@Uadl_serializer@json_abi_v3_11_2@nlohmann@@V?$vector@EV?$allocator@E@std@@@2@X@json_abi_v3_11_2@nlohmann@@@std@@PEAX@std@@@1@PEAU?$_Tree_node@U?$pair@$$CBV?$basic_string@DU?$char_traits@D@std@@V?$allocator@D@2@@std@@V?$basic_json@Vmap@std@@Vvector@2@V?$basic_string@DU?$char_traits@D@std@@V?$allocator@D@2@@2@_N_J_KNVallocator@2@Uadl_serializer@json_abi_v3_11_2@nlohmann@@V?$vector@EV?$allocator@E@std@@@2@X@json_abi_v3_11_2@nlohmann@@@std@@PEAX@1@AEBUpiecewise_construct_t@1@$$QEAV?$tuple@AEBV?$basic_string@DU?$char_traits@D@std@@V?$allocator@D@2@@std@@@1@$$QEAV?$tuple@$$V@1@@Z 000000014003c340 f i main.obj
 0001:0003b420       ?_Empty@?$_Func_class@_NHW4parse_event_t@detail@json_abi_v3_11_2@nlohmann@@AEAV?$basic_json@Vmap@std@@Vvector@2@V?$basic_string@DU?$char_traits@D@std@@V?$allocator@D@2@@2@_N_J_KNVallocator@2@Uadl_serializer@json_abi_v3_11_2@nlohmann@@V?$vector@EV?$allocator@E@std@@@2@X@34@@std@@IEBA_NXZ 000000014003c420 f i main.obj
 0001:0003b460       ??$?0AEBUpiecewise_construct_t@std@@V?$tuple@AEBV?$basic_string@DU?$char_traits@D@std@@V?$allocator@D@2@@std@@@1@V?$tuple@$$V@1@@?$_Tree_temp_node@V?$allocator@U?$_Tree_node@U?$pair@$$CBV?$basic_string@DU?$char_traits@D@std@@V?$allocator@D@2@@std@@V?$weak_ptr@VImage@@@2@@std@@PEAX@std@@@std@@@std@@QEAA@AEAV?$allocator@U?$_Tree_node@U?$pair@$$CBV?$basic_string@DU?$char_traits@D@std@@V?$allocator@D@2@@std@@V?$weak_ptr@VImage@@@2@@std@@PEAX@std@@@1@PEAU?$_Tree_node@U?$pair@$$CBV?$basic_string@DU?$char_traits@D@std@@V?$allocator@D@2@@std@@V?$weak_ptr@VImage@@@2@@std@@PEAX@1@AEBUpiecewise_construct_t@1@$$QEAV?$tuple@AEBV?$basic_string@DU?$char_traits@D@std@@V?$allocator@D@2@@std@@@1@$$QEAV?$tuple@$$V@1@@Z 000000014003c460 f i main.obj
 0001:0003b540       ?_Incref@?$_Ptr_base@VAnimation@@@std@@IEBAXXZ 000000014003c540 f i main.obj
 0001:0003b580       ??$?0AEBUpiecewise_construct_t@std@@V?$tuple@AEBV?$basic_string@DU?$char_traits@D@std@@V?$allocator@D@2@@std@@@1@V?$tuple@$$V@1@@?$_Tree_temp_node@V?$allocator@U?$_Tree_node@U?$pair@$$CBV?$basic_string@DU?$char_traits@D@std@@V?$allocator@D@2@@std@@V?$weak_ptr@VScenes@@@2@@std@@PEAX@std@@@std@@@std@@QEAA@AEAV?$allocator@U?$_Tree_node@U?$pair@$$CBV?$basic_string@DU?$char_traits@D@std@@V?$allocator@D@2@@std@@V?$weak_ptr@VScenes@@@2@@std@@PEAX@std@@@1@PEAU?$_Tree_node@U?$pair@$$CBV?$basic_string@DU?$char_traits@D@std@@V?$allocator@D@2@@std@@V?$weak_ptr@VScenes@@@2@@std@@PEAX@1@AEBUpiecewise_construct_t@1@$$QEAV?$tuple@AEBV?$basic_string@DU?$char_traits@D@std@@V?$allocator@D@2@@std@@@1@$$QEAV?$tuple@$$V@1@@Z 000000014003c580 f i main.obj
 0001:0003b660       ?_Incref@?$_Ptr_base@VImage@@@std@@IEBAXXZ 000000014003c660 f i main.obj
 0001:0003b6a0       ??$?0AEBUpiecewise_construct_t@std@@V?$tuple@AEBV?$basic_string@DU?$char_traits@D@std@@V?$allocator@D@2@@std@@@1@V?$tuple@$$V@1@@?$_Tree_temp_node@V?$allocator@U?$_Tree_node@U?$pair@$$CBV?$basic_string@DU?$char_traits@D@std@@V?$allocator@D@2@@std@@V?$weak_ptr@VShader@@@2@@std@@PEAX@std@@@std@@@std@@QEAA@AEAV?$allocator@U?$_Tree_node@U?$pair@$$CBV?$basic_string@DU?$char_traits@D@std@@V?$allocator@D@2@@std@@V?$weak_ptr@VShader@@@2@@std@@PEAX@std@@@1@PEAU?$_Tree_node@U?$pair@$$CBV?$basic_string@DU?$char_traits@D@std@@V?$allocator@D@2@@std@@V?$weak_ptr@VShader@@@2@@std@@PEAX@1@AEBUpiecewise_construct_t@1@$$QEAV?$tuple@AEBV?$basic_string@DU?$char_traits@D@std@@V?$allocator@D@2@@std@@@1@$$QEAV?$tuple@$$V@1@@Z 000000014003c6a0 f i main.obj
 0001:0003b780       ?_Release@?$_Alloc_construct_ptr@V?$allocator@U?$_Tree_node@U?$pair@$$CBV?$basic_string@DU?$char_traits@D@std@@V?$allocator@D@2@@std@@PEAUmat4@@@std@@PEAX@std@@@std@@@std@@QEAAPEAU?$_Tree_node@U?$pair@$$CBV?$basic_string@DU?$char_traits@D@std@@V?$allocator@D@2@@std@@PEAUmat4@@@std@@PEAX@2@XZ 000000014003c780 f i main.obj
 0001:0003b7c0       ??$?0AEBUpiecewise_construct_t@std@@V?$tuple@AEBV?$basic_string@DU?$char_traits@D@std@@V?$allocator@D@2@@std@@@1@V?$tuple@$$V@1@@?$_Tree_temp_node@V?$allocator@U?$_Tree_node@U?$pair@$$CBV?$basic_string@DU?$char_traits@D@std@@V?$allocator@D@2@@std@@V?$weak_ptr@VTexture2D@@@2@@std@@PEAX@std@@@std@@@std@@QEAA@AEAV?$allocator@U?$_Tree_node@U?$pair@$$CBV?$basic_string@DU?$char_traits@D@std@@V?$allocator@D@2@@std@@V?$weak_ptr@VTexture2D@@@2@@std@@PEAX@std@@@1@PEAU?$_Tree_node@U?$pair@$$CBV?$basic_string@DU?$char_traits@D@std@@V?$allocator@D@2@@std@@V?$weak_ptr@VTexture2D@@@2@@std@@PEAX@1@AEBUpiecewise_construct_t@1@$$QEAV?$tuple@AEBV?$basic_string@DU?$char_traits@D@std@@V?$allocator@D@2@@std@@@1@$$QEAV?$tuple@$$V@1@@Z 000000014003c7c0 f i main.obj
 0001:0003b8a0       ?_Swap@?$_Ptr_base@VAnimation@@@std@@IEAAXAEAV12@@Z 000000014003c8a0 f i main.obj
 0001:0003b8e0       ??$?0AEBV<lambda_1>@?1???$create@V?$basic_string@DU?$char_traits@D@std@@V?$allocator@D@2@@std@@AEAY00$$CBD@?$basic_json@Vmap@std@@Vvector@2@V?$basic_string@DU?$char_traits@D@std@@V?$allocator@D@2@@2@_N_J_KNVallocator@2@Uadl_serializer@json_abi_v3_11_2@nlohmann@@V?$vector@EV?$allocator@E@std@@@2@X@json_abi_v3_11_2@nlohmann@@CAPEAV?$basic_string@DU?$char_traits@D@std@@V?$allocator@D@2@@std@@AEAY00$$CBD@Z@AEAPEAV45@@?$_Compressed_pair@V<lambda_1>@?1???$create@V?$basic_string@DU?$char_traits@D@std@@V?$allocator@D@2@@std@@AEAY00$$CBD@?$basic_json@Vmap@std@@Vvector@2@V?$basic_string@DU?$char_traits@D@std@@V?$allocator@D@2@@2@_N_J_KNVallocator@2@Uadl_serializer@json_abi_v3_11_2@nlohmann@@V?$vector@EV?$allocator@E@std@@@2@X@json_abi_v3_11_2@nlohmann@@CAPEAV?$basic_string@DU?$char_traits@D@std@@V?$allocator@D@2@@std@@AEAY00$$CBD@Z@PEAV56@$0A@@std@@QEAA@U_One_then_variadic_args_t@1@AEBV<lambda_1>@?1???$create@V?$basic_string@DU?$char_traits@D@std@@V?$allocator@D@2@@std@@AEAY00$$CBD@?$basic_json@Vmap@std@@Vvector@2@V?$basic_string@DU?$char_traits@D@std@@V?$allocator@D@2@@2@_N_J_KNVallocator@2@Uadl_serializer@json_abi_v3_11_2@nlohmann@@V?$vector@EV?$allocator@E@std@@@2@X@json_abi_v3_11_2@nlohmann@@CAPEAV?$basic_string@DU?$char_traits@D@std@@V?$allocator@D@2@@1@AEAY00$$CBD@Z@AEAPEAV71@@Z 000000014003c8e0 f i main.obj
 0001:0003b930       ??$?0AEBV<lambda_1>@?1???$create@V?$basic_string@DU?$char_traits@D@std@@V?$allocator@D@2@@std@@AEBV12@@?$basic_json@Vmap@std@@Vvector@2@V?$basic_string@DU?$char_traits@D@std@@V?$allocator@D@2@@2@_N_J_KNVallocator@2@Uadl_serializer@json_abi_v3_11_2@nlohmann@@V?$vector@EV?$allocator@E@std@@@2@X@json_abi_v3_11_2@nlohmann@@CAPEAV?$basic_string@DU?$char_traits@D@std@@V?$allocator@D@2@@std@@AEBV45@@Z@AEAPEAV45@@?$_Compressed_pair@V<lambda_1>@?1???$create@V?$basic_string@DU?$char_traits@D@std@@V?$allocator@D@2@@std@@AEBV12@@?$basic_json@Vmap@std@@Vvector@2@V?$basic_string@DU?$char_traits@D@std@@V?$allocator@D@2@@2@_N_J_KNVallocator@2@Uadl_serializer@json_abi_v3_11_2@nlohmann@@V?$vector@EV?$allocator@E@std@@@2@X@json_abi_v3_11_2@nlohmann@@CAPEAV?$basic_string@DU?$char_traits@D@std@@V?$allocator@D@2@@std@@AEBV56@@Z@PEAV56@$0A@@std@@QEAA@U_One_then_variadic_args_t@1@AEBV<lambda_1>@?1???$create@V?$basic_string@DU?$char_traits@D@std@@V?$allocator@D@2@@std@@AEBV12@@?$basic_json@Vmap@std@@Vvector@2@V?$basic_string@DU?$char_traits@D@std@@V?$allocator@D@2@@2@_N_J_KNVallocator@2@Uadl_serializer@json_abi_v3_11_2@nlohmann@@V?$vector@EV?$allocator@E@std@@@2@X@json_abi_v3_11_2@nlohmann@@CAPEAV?$basic_string@DU?$char_traits@D@std@@V?$allocator@D@2@@1@AEBV71@@Z@AEAPEAV71@@Z 000000014003c930 f i main.obj
 0001:0003b980       ??$?0AEBV<lambda_1>@?1???$create@V?$byte_container_with_subtype@V?$vector@EV?$allocator@E@std@@@std@@@json_abi_v3_11_2@nlohmann@@$$V@?$basic_json@Vmap@std@@Vvector@2@V?$basic_string@DU?$char_traits@D@std@@V?$allocator@D@2@@2@_N_J_KNVallocator@2@Uadl_serializer@json_abi_v3_11_2@nlohmann@@V?$vector@EV?$allocator@E@std@@@2@X@json_abi_v3_11_2@nlohmann@@CAPEAV?$byte_container_with_subtype@V?$vector@EV?$allocator@E@std@@@std@@@23@XZ@AEAPEAV423@@?$_Compressed_pair@V<lambda_1>@?1???$create@V?$byte_container_with_subtype@V?$vector@EV?$allocator@E@std@@@std@@@json_abi_v3_11_2@nlohmann@@$$V@?$basic_json@Vmap@std@@Vvector@2@V?$basic_string@DU?$char_traits@D@std@@V?$allocator@D@2@@2@_N_J_KNVallocator@2@Uadl_serializer@json_abi_v3_11_2@nlohmann@@V?$vector@EV?$allocator@E@std@@@2@X@json_abi_v3_11_2@nlohmann@@CAPEAV?$byte_container_with_subtype@V?$vector@EV?$allocator@E@std@@@std@@@34@XZ@PEAV534@$0A@@std@@QEAA@U_One_then_variadic_args_t@1@AEBV<lambda_1>@?1???$create@V?$byte_container_with_subtype@V?$vector@EV?$allocator@E@std@@@std@@@json_abi_v3_11_2@nlohmann@@$$V@?$basic_json@Vmap@std@@Vvector@2@V?$basic_string@DU?$char_traits@D@std@@V?$allocator@D@2@@2@_N_J_KNVallocator@2@Uadl_serializer@json_abi_v3_11_2@nlohmann@@V?$vector@EV?$allocator@E@std@@@2@X@json_abi_v3_11_2@nlohmann@@CAPEAV?$byte_container_with_subtype@V?$vector@EV?$allocator@E@std@@@std@@@56@XZ@AEAPEAV756@@Z 000000014003c980 f i main.obj
 0001:0003b9d0       ??$?0AEBV<lambda_1>@?1???$create@V?$byte_container_with_subtype@V?$vector@EV?$allocator@E@std@@@std@@@json_abi_v3_11_2@nlohmann@@AEBV123@@?$basic_json@Vmap@std@@Vvector@2@V?$basic_string@DU?$char_traits@D@std@@V?$allocator@D@2@@2@_N_J_KNVallocator@2@Uadl_serializer@json_abi_v3_11_2@nlohmann@@V?$vector@EV?$allocator@E@std@@@2@X@json_abi_v3_11_2@nlohmann@@CAPEAV?$byte_container_with_subtype@V?$vector@EV?$allocator@E@std@@@std@@@23@AEBV423@@Z@AEAPEAV423@@?$_Compressed_pair@V<lambda_1>@?1???$create@V?$byte_container_with_subtype@V?$vector@EV?$allocator@E@std@@@std@@@json_abi_v3_11_2@nlohmann@@AEBV123@@?$basic_json@Vmap@std@@Vvector@2@V?$basic_string@DU?$char_traits@D@std@@V?$allocator@D@2@@2@_N_J_KNVallocator@2@Uadl_serializer@json_abi_v3_11_2@nlohmann@@V?$vector@EV?$allocator@E@std@@@2@X@json_abi_v3_11_2@nlohmann@@CAPEAV?$byte_container_with_subtype@V?$vector@EV?$allocator@E@std@@@std@@@34@AEBV534@@Z@PEAV534@$0A@@std@@QEAA@U_One_then_variadic_args_t@1@AEBV<lambda_1>@?1???$create@V?$byte_container_with_subtype@V?$vector@EV?$allocator@E@std@@@std@@@json_abi_v3_11_2@nlohmann@@AEBV123@@?$basic_json@Vmap@std@@Vvector@2@V?$basic_string@DU?$char_traits@D@std@@V?$allocator@D@2@@2@_N_J_KNVallocator@2@Uadl_serializer@json_abi_v3_11_2@nlohmann@@V?$vector@EV?$allocator@E@std@@@2@X@json_abi_v3_11_2@nlohmann@@CAPEAV?$byte_container_with_subtype@V?$vector@EV?$allocator@E@std@@@std@@@56@AEBV756@@Z@AEAPEAV756@@Z 000000014003c9d0 f i main.obj
 0001:0003ba20       ??$?0AEBV<lambda_1>@?1???$create@V?$vector@V?$basic_json@Vmap@std@@Vvector@2@V?$basic_string@DU?$char_traits@D@std@@V?$allocator@D@2@@2@_N_J_KNVallocator@2@Uadl_serializer@json_abi_v3_11_2@nlohmann@@V?$vector@EV?$allocator@E@std@@@2@X@json_abi_v3_11_2@nlohmann@@V?$allocator@V?$basic_json@Vmap@std@@Vvector@2@V?$basic_string@DU?$char_traits@D@std@@V?$allocator@D@2@@2@_N_J_KNVallocator@2@Uadl_serializer@json_abi_v3_11_2@nlohmann@@V?$vector@EV?$allocator@E@std@@@2@X@json_abi_v3_11_2@nlohmann@@@std@@@std@@$$V@?$basic_json@Vmap@std@@Vvector@2@V?$basic_string@DU?$char_traits@D@std@@V?$allocator@D@2@@2@_N_J_KNVallocator@2@Uadl_serializer@json_abi_v3_11_2@nlohmann@@V?$vector@EV?$allocator@E@std@@@2@X@json_abi_v3_11_2@nlohmann@@CAPEAV?$vector@V?$basic_json@Vmap@std@@Vvector@2@V?$basic_string@DU?$char_traits@D@std@@V?$allocator@D@2@@2@_N_J_KNVallocator@2@Uadl_serializer@json_abi_v3_11_2@nlohmann@@V?$vector@EV?$allocator@E@std@@@2@X@json_abi_v3_11_2@nlohmann@@V?$allocator@V?$basic_json@Vmap@std@@Vvector@2@V?$basic_string@DU?$char_traits@D@std@@V?$allocator@D@2@@2@_N_J_KNVallocator@2@Uadl_serializer@json_abi_v3_11_2@nlohmann@@V?$vector@EV?$allocator@E@std@@@2@X@json_abi_v3_11_2@nlohmann@@@std@@@std@@XZ@AEAPEAV45@@?$_Compressed_pair@V<lambda_1>@?1???$create@V?$vector@V?$basic_json@Vmap@std@@Vvector@2@V?$basic_string@DU?$char_traits@D@std@@V?$allocator@D@2@@2@_N_J_KNVallocator@2@Uadl_serializer@json_abi_v3_11_2@nlohmann@@V?$vector@EV?$allocator@E@std@@@2@X@json_abi_v3_11_2@nlohmann@@V?$allocator@V?$basic_json@Vmap@std@@Vvector@2@V?$basic_string@DU?$char_traits@D@std@@V?$allocator@D@2@@2@_N_J_KNVallocator@2@Uadl_serializer@json_abi_v3_11_2@nlohmann@@V?$vector@EV?$allocator@E@std@@@2@X@json_abi_v3_11_2@nlohmann@@@std@@@std@@$$V@?$basic_json@Vmap@std@@Vvector@2@V?$basic_string@DU?$char_traits@D@std@@V?$allocator@D@2@@2@_N_J_KNVallocator@2@Uadl_serializer@json_abi_v3_11_2@nlohmann@@V?$vector@EV?$allocator@E@std@@@2@X@json_abi_v3_11_2@nlohmann@@CAPEAV?$vector@V?$basic_json@Vmap@std@@Vvector@2@V?$basic_string@DU?$char_traits@D@std@@V?$allocator@D@2@@2@_N_J_KNVallocator@2@Uadl_serializer@json_abi_v3_11_2@nlohmann@@V?$vector@EV?$allocator@E@std@@@2@X@json_abi_v3_11_2@nlohmann@@V?$allocator@V?$basic_json@Vmap@std@@Vvector@2@V?$basic_string@DU?$char_traits@D@std@@V?$allocator@D@2@@2@_N_J_KNVallocator@2@Uadl_serializer@json_abi_v3_11_2@nlohmann@@V?$vector@EV?$allocator@E@std@@@2@X@json_abi_v3_11_2@nlohmann@@@std@@@std@@XZ@PEAV56@$0A@@std@@QEAA@U_One_then_variadic_args_t@1@AEBV<lambda_1>@?1???$create@V?$vector@V?$basic_json@Vmap@std@@Vvector@2@V?$basic_string@DU?$char_traits@D@std@@V?$allocator@D@2@@2@_N_J_KNVallocator@2@Uadl_serializer@json_abi_v3_11_2@nlohmann@@V?$vector@EV?$allocator@E@std@@@2@X@json_abi_v3_11_2@nlohmann@@V?$allocator@V?$basic_json@Vmap@std@@Vvector@2@V?$basic_string@DU?$char_traits@D@std@@V?$allocator@D@2@@2@_N_J_KNVallocator@2@Uadl_serializer@json_abi_v3_11_2@nlohmann@@V?$vector@EV?$allocator@E@std@@@2@X@json_abi_v3_11_2@nlohmann@@@std@@@std@@$$V@?$basic_json@Vmap@std@@Vvector@2@V?$basic_string@DU?$char_traits@D@std@@V?$allocator@D@2@@2@_N_J_KNVallocator@2@Uadl_serializer@json_abi_v3_11_2@nlohmann@@V?$vector@EV?$allocator@E@std@@@2@X@json_abi_v3_11_2@nlohmann@@CAPEAV?$vector@V?$basic_json@Vmap@std@@Vvector@2@V?$basic_string@DU?$char_traits@D@std@@V?$allocator@D@2@@2@_N_J_KNVallocator@2@Uadl_serializer@json_abi_v3_11_2@nlohmann@@V?$vector@EV?$allocator@E@std@@@2@X@json_abi_v3_11_2@nlohmann@@V?$allocator@V?$basic_json@Vmap@std@@Vvector@2@V?$basic_string@DU?$char_traits@D@std@@V?$allocator@D@2@@2@_N_J_KNVallocator@2@Uadl_serializer@json_abi_v3_11_2@nlohmann@@V?$vector@EV?$allocator@E@std@@@2@X@json_abi_v3_11_2@nlohmann@@@std@@@1@XZ@AEAPEAV71@@Z 000000014003ca20 f i main.obj
 0001:0003ba70       ??$?0AEBV<lambda_1>@?1???$create@V?$vector@V?$basic_json@Vmap@std@@Vvector@2@V?$basic_string@DU?$char_traits@D@std@@V?$allocator@D@2@@2@_N_J_KNVallocator@2@Uadl_serializer@json_abi_v3_11_2@nlohmann@@V?$vector@EV?$allocator@E@std@@@2@X@json_abi_v3_11_2@nlohmann@@V?$allocator@V?$basic_json@Vmap@std@@Vvector@2@V?$basic_string@DU?$char_traits@D@std@@V?$allocator@D@2@@2@_N_J_KNVallocator@2@Uadl_serializer@json_abi_v3_11_2@nlohmann@@V?$vector@EV?$allocator@E@std@@@2@X@json_abi_v3_11_2@nlohmann@@@std@@@std@@AEBV12@@?$basic_json@Vmap@std@@Vvector@2@V?$basic_string@DU?$char_traits@D@std@@V?$allocator@D@2@@2@_N_J_KNVallocator@2@Uadl_serializer@json_abi_v3_11_2@nlohmann@@V?$vector@EV?$allocator@E@std@@@2@X@json_abi_v3_11_2@nlohmann@@CAPEAV?$vector@V?$basic_json@Vmap@std@@Vvector@2@V?$basic_string@DU?$char_traits@D@std@@V?$allocator@D@2@@2@_N_J_KNVallocator@2@Uadl_serializer@json_abi_v3_11_2@nlohmann@@V?$vector@EV?$allocator@E@std@@@2@X@json_abi_v3_11_2@nlohmann@@V?$allocator@V?$basic_json@Vmap@std@@Vvector@2@V?$basic_string@DU?$char_traits@D@std@@V?$allocator@D@2@@2@_N_J_KNVallocator@2@Uadl_serializer@json_abi_v3_11_2@nlohmann@@V?$vector@EV?$allocator@E@std@@@2@X@json_abi_v3_11_2@nlohmann@@@std@@@std@@AEBV45@@Z@AEAPEAV45@@?$_Compressed_pair@V<lambda_1>@?1???$create@V?$vector@V?$basic_json@Vmap@std@@Vvector@2@V?$basic_string@DU?$char_traits@D@std@@V?$allocator@D@2@@2@_N_J_KNVallocator@2@Uadl_serializer@json_abi_v3_11_2@nlohmann@@V?$vector@EV?$allocator@E@std@@@2@X@json_abi_v3_11_2@nlohmann@@V?$allocator@V?$basic_json@Vmap@std@@Vvector@2@V?$basic_string@DU?$char_traits@D@std@@V?$allocator@D@2@@2@_N_J_KNVallocator@2@Uadl_serializer@json_abi_v3_11_2@nlohmann@@V?$vector@EV?$allocator@E@std@@@2@X@json_abi_v3_11_2@nlohmann@@@std@@@std@@AEBV12@@?$basic_json@Vmap@std@@Vvector@2@V?$basic_string@DU?$char_traits@D@std@@V?$allocator@D@2@@2@_N_J_KNVallocator@2@Uadl_serializer@json_abi_v3_11_2@nlohmann@@V?$vector@EV?$allocator@E@std@@@2@X@json_abi_v3_11_2@nlohmann@@CAPEAV?$vector@V?$basic_json@Vmap@std@@Vvector@2@V?$basic_string@DU?$char_traits@D@std@@V?$allocator@D@2@@2@_N_J_KNVallocator@2@Uadl_serializer@json_abi_v3_11_2@nlohmann@@V?$vector@EV?$allocator@E@std@@@2@X@json_abi_v3_11_2@nlohmann@@V?$allocator@V?$basic_json@Vmap@std@@Vvector@2@V?$basic_string@DU?$char_traits@D@std@@V?$allocator@D@2@@2@_N_J_KNVallocator@2@Uadl_serializer@json_abi_v3_11_2@nlohmann@@V?$vector@EV?$allocator@E@std@@@2@X@json_abi_v3_11_2@nlohmann@@@std@@@std@@AEBV56@@Z@PEAV56@$0A@@std@@QEAA@U_One_then_variadic_args_t@1@AEBV<lambda_1>@?1???$create@V?$vector@V?$basic_json@Vmap@std@@Vvector@2@V?$basic_string@DU?$char_traits@D@std@@V?$allocator@D@2@@2@_N_J_KNVallocator@2@Uadl_serializer@json_abi_v3_11_2@nlohmann@@V?$vector@EV?$allocator@E@std@@@2@X@json_abi_v3_11_2@nlohmann@@V?$allocator@V?$basic_json@Vmap@std@@Vvector@2@V?$basic_string@DU?$char_traits@D@std@@V?$allocator@D@2@@2@_N_J_KNVallocator@2@Uadl_serializer@json_abi_v3_11_2@nlohmann@@V?$vector@EV?$allocator@E@std@@@2@X@json_abi_v3_11_2@nlohmann@@@std@@@std@@AEBV12@@?$basic_json@Vmap@std@@Vvector@2@V?$basic_string@DU?$char_traits@D@std@@V?$allocator@D@2@@2@_N_J_KNVallocator@2@Uadl_serializer@json_abi_v3_11_2@nlohmann@@V?$vector@EV?$allocator@E@std@@@2@X@json_abi_v3_11_2@nlohmann@@CAPEAV?$vector@V?$basic_json@Vmap@std@@Vvector@2@V?$basic_string@DU?$char_traits@D@std@@V?$allocator@D@2@@2@_N_J_KNVallocator@2@Uadl_serializer@json_abi_v3_11_2@nlohmann@@V?$vector@EV?$allocator@E@std@@@2@X@json_abi_v3_11_2@nlohmann@@V?$allocator@V?$basic_json@Vmap@std@@Vvector@2@V?$basic_string@DU?$char_traits@D@std@@V?$allocator@D@2@@2@_N_J_KNVallocator@2@Uadl_serializer@json_abi_v3_11_2@nlohmann@@V?$vector@EV?$allocator@E@std@@@2@X@json_abi_v3_11_2@nlohmann@@@std@@@1@AEBV71@@Z@AEAPEAV71@@Z 000000014003ca70 f i main.obj
 0001:0003bac0       ??$?0AEBV?$allocator@D@std@@$$V@?$_Compressed_pair@V?$allocator@D@std@@V?$_String_val@U?$_Simple_types@D@std@@@2@$00@std@@QEAA@U_One_then_variadic_args_t@1@AEBV?$allocator@D@1@@Z 000000014003cac0 f i main.obj
 0001:0003bb00       ??$?0AEBV?$allocator@I@std@@$$V@?$_Compressed_pair@V?$allocator@I@std@@V?$_Vector_val@U?$_Simple_types@I@std@@@2@$00@std@@QEAA@U_One_then_variadic_args_t@1@AEBV?$allocator@I@1@@Z 000000014003cb00 f i main.obj
 0001:0003bb40       ??$?0AEBV?$basic_string@DU?$char_traits@D@std@@V?$allocator@D@2@@std@@$$Z$$V@?$pair@$$CBV?$basic_string@DU?$char_traits@D@std@@V?$allocator@D@2@@std@@V?$basic_json@Vmap@std@@Vvector@2@V?$basic_string@DU?$char_traits@D@std@@V?$allocator@D@2@@2@_N_J_KNVallocator@2@Uadl_serializer@json_abi_v3_11_2@nlohmann@@V?$vector@EV?$allocator@E@std@@@2@X@json_abi_v3_11_2@nlohmann@@@std@@QEAA@Upiecewise_construct_t@1@V?$tuple@AEBV?$basic_string@DU?$char_traits@D@std@@V?$allocator@D@2@@std@@@1@V?$tuple@$$V@1@@Z 000000014003cb40 f i main.obj
 0001:0003bbd0       ??$?0AEBV?$basic_string@DU?$char_traits@D@std@@V?$allocator@D@2@@std@@$$Z$$V@?$pair@$$CBV?$basic_string@DU?$char_traits@D@std@@V?$allocator@D@2@@std@@V?$weak_ptr@VImage@@@2@@std@@QEAA@Upiecewise_construct_t@1@V?$tuple@AEBV?$basic_string@DU?$char_traits@D@std@@V?$allocator@D@2@@std@@@1@V?$tuple@$$V@1@@Z 000000014003cbd0 f i main.obj
 0001:0003bc60       ??$?0AEBV?$basic_string@DU?$char_traits@D@std@@V?$allocator@D@2@@std@@$$Z$$V@?$pair@$$CBV?$basic_string@DU?$char_traits@D@std@@V?$allocator@D@2@@std@@V?$weak_ptr@VScenes@@@2@@std@@QEAA@Upiecewise_construct_t@1@V?$tuple@AEBV?$basic_string@DU?$char_traits@D@std@@V?$allocator@D@2@@std@@@1@V?$tuple@$$V@1@@Z 000000014003cc60 f i main.obj
 0001:0003bcf0       ??$?0AEBV?$basic_string@DU?$char_traits@D@std@@V?$allocator@D@2@@std@@$$Z$$V@?$pair@$$CBV?$basic_string@DU?$char_traits@D@std@@V?$allocator@D@2@@std@@V?$weak_ptr@VShader@@@2@@std@@QEAA@Upiecewise_construct_t@1@V?$tuple@AEBV?$basic_string@DU?$char_traits@D@std@@V?$allocator@D@2@@std@@@1@V?$tuple@$$V@1@@Z 000000014003ccf0 f i main.obj
 0001:0003bd80       ??$?0AEBV?$basic_string@DU?$char_traits@D@std@@V?$allocator@D@2@@std@@$$Z$$V@?$pair@$$CBV?$basic_string@DU?$char_traits@D@std@@V?$allocator@D@2@@std@@V?$weak_ptr@VTexture2D@@@2@@std@@QEAA@Upiecewise_construct_t@1@V?$tuple@AEBV?$basic_string@DU?$char_traits@D@std@@V?$allocator@D@2@@std@@@1@V?$tuple@$$V@1@@Z 000000014003cd80 f i main.obj
 0001:0003be10       ??$?0AEBV?$basic_string@DU?$char_traits@D@std@@V?$allocator@D@2@@std@@$0A@@?$tuple@AEBV?$basic_string@DU?$char_traits@D@std@@V?$allocator@D@2@@std@@@std@@QEAA@AEBV?$basic_string@DU?$char_traits@D@std@@V?$allocator@D@2@@1@@Z 000000014003ce10 f i main.obj
 0001:0003be50       ??$?0AEBV?$basic_string@DU?$char_traits@D@std@@V?$allocator@D@2@@std@@@?$_Tuple_val@AEBV?$basic_string@DU?$char_traits@D@std@@V?$allocator@D@2@@std@@@std@@QEAA@AEBV?$basic_string@DU?$char_traits@D@std@@V?$allocator@D@2@@1@@Z 000000014003ce50 f i main.obj
 0001:0003be80       ??$?0AEBV?$basic_string@DU?$char_traits@D@std@@V?$allocator@D@2@@std@@AEAV?$basic_json@Vmap@std@@Vvector@2@V?$basic_string@DU?$char_traits@D@std@@V?$allocator@D@2@@2@_N_J_KNVallocator@2@Uadl_serializer@json_abi_v3_11_2@nlohmann@@V?$vector@EV?$allocator@E@std@@@2@X@json_abi_v3_11_2@nlohmann@@$0A@@?$pair@V?$basic_string@DU?$char_traits@D@std@@V?$allocator@D@2@@std@@V?$basic_json@Vmap@std@@Vvector@2@V?$basic_string@DU?$char_traits@D@std@@V?$allocator@D@2@@2@_N_J_KNVallocator@2@Uadl_serializer@json_abi_v3_11_2@nlohmann@@V?$vector@EV?$allocator@E@std@@@2@X@json_abi_v3_11_2@nlohmann@@@std@@QEAA@AEBV?$basic_string@DU?$char_traits@D@std@@V?$allocator@D@2@@1@AEAV?$basic_json@Vmap@std@@Vvector@2@V?$basic_string@DU?$char_traits@D@std@@V?$allocator@D@2@@2@_N_J_KNVallocator@2@Uadl_serializer@json_abi_v3_11_2@nlohmann@@V?$vector@EV?$allocator@E@std@@@2@X@json_abi_v3_11_2@nlohmann@@@Z 000000014003ce80 f i main.obj
 0001:0003bef0       ??$?0PEAD$0A@@?$basic_string@DU?$char_traits@D@std@@V?$allocator@D@2@@std@@QEAA@PEAD0AEBV?$allocator@D@1@@Z 000000014003cef0 f i main.obj
 0001:0003bfc0       ?_Throw_bad_array_new_length@std@@YAXXZ 000000014003cfc0 f i main.obj
 0001:0003bff0       ??$?0PEAU?$_Tree_node@U?$pair@$$CBV?$basic_string@DU?$char_traits@D@std@@V?$allocator@D@2@@std@@PEAUmat4@@@std@@PEAX@std@@_N$0A@@?$pair@PEAU?$_Tree_node@U?$pair@$$CBV?$basic_string@DU?$char_traits@D@std@@V?$allocator@D@2@@std@@PEAUmat4@@@std@@PEAX@std@@_N@std@@QEAA@$$QEAPEAU?$_Tree_node@U?$pair@$$CBV?$basic_string@DU?$char_traits@D@std@@V?$allocator@D@2@@std@@PEAUmat4@@@std@@PEAX@1@$$QEA_N@Z 000000014003cff0 f i main.obj
 0001:0003c040       ??$?0PEAU?$_Tree_node@U?$pair@$$CBV?$basic_string@DU?$char_traits@D@std@@V?$allocator@D@2@@std@@V?$basic_json@Vmap@std@@Vvector@2@V?$basic_string@DU?$char_traits@D@std@@V?$allocator@D@2@@2@_N_J_KNVallocator@2@Uadl_serializer@json_abi_v3_11_2@nlohmann@@V?$vector@EV?$allocator@E@std@@@2@X@json_abi_v3_11_2@nlohmann@@@std@@PEAX@std@@_N$0A@@?$pair@PEAU?$_Tree_node@U?$pair@$$CBV?$basic_string@DU?$char_traits@D@std@@V?$allocator@D@2@@std@@V?$basic_json@Vmap@std@@Vvector@2@V?$basic_string@DU?$char_traits@D@std@@V?$allocator@D@2@@2@_N_J_KNVallocator@2@Uadl_serializer@json_abi_v3_11_2@nlohmann@@V?$vector@EV?$allocator@E@std@@@2@X@json_abi_v3_11_2@nlohmann@@@std@@PEAX@std@@_N@std@@QEAA@$$QEAPEAU?$_Tree_node@U?$pair@$$CBV?$basic_string@DU?$char_traits@D@std@@V?$allocator@D@2@@std@@V?$basic_json@Vmap@std@@Vvector@2@V?$basic_string@DU?$char_traits@D@std@@V?$allocator@D@2@@2@_N_J_KNVallocator@2@Uadl_serializer@json_abi_v3_11_2@nlohmann@@V?$vector@EV?$allocator@E@std@@@2@X@json_abi_v3_11_2@nlohmann@@@std@@PEAX@1@$$QEA_N@Z 000000014003d040 f i main.obj
 0001:0003c090       ??$?0PEAU?$_Tree_node@U?$pair@$$CBV?$basic_string@DU?$char_traits@D@std@@V?$allocator@D@2@@std@@V?$weak_ptr@VImage@@@2@@std@@PEAX@std@@_N$0A@@?$pair@PEAU?$_Tree_node@U?$pair@$$CBV?$basic_string@DU?$char_traits@D@std@@V?$allocator@D@2@@std@@V?$weak_ptr@VImage@@@2@@std@@PEAX@std@@_N@std@@QEAA@$$QEAPEAU?$_Tree_node@U?$pair@$$CBV?$basic_string@DU?$char_traits@D@std@@V?$allocator@D@2@@std@@V?$weak_ptr@VImage@@@2@@std@@PEAX@1@$$QEA_N@Z 000000014003d090 f i main.obj
 0001:0003c0e0       ??$?0PEAU?$_Tree_node@U?$pair@$$CBV?$basic_string@DU?$char_traits@D@std@@V?$allocator@D@2@@std@@V?$weak_ptr@VScenes@@@2@@std@@PEAX@std@@_N$0A@@?$pair@PEAU?$_Tree_node@U?$pair@$$CBV?$basic_string@DU?$char_traits@D@std@@V?$allocator@D@2@@std@@V?$weak_ptr@VScenes@@@2@@std@@PEAX@std@@_N@std@@QEAA@$$QEAPEAU?$_Tree_node@U?$pair@$$CBV?$basic_string@DU?$char_traits@D@std@@V?$allocator@D@2@@std@@V?$weak_ptr@VScenes@@@2@@std@@PEAX@1@$$QEA_N@Z 000000014003d0e0 f i main.obj
 0001:0003c130       ??$?0PEAU?$_Tree_node@U?$pair@$$CBV?$basic_string@DU?$char_traits@D@std@@V?$allocator@D@2@@std@@V?$weak_ptr@VShader@@@2@@std@@PEAX@std@@_N$0A@@?$pair@PEAU?$_Tree_node@U?$pair@$$CBV?$basic_string@DU?$char_traits@D@std@@V?$allocator@D@2@@std@@V?$weak_ptr@VShader@@@2@@std@@PEAX@std@@_N@std@@QEAA@$$QEAPEAU?$_Tree_node@U?$pair@$$CBV?$basic_string@DU?$char_traits@D@std@@V?$allocator@D@2@@std@@V?$weak_ptr@VShader@@@2@@std@@PEAX@1@$$QEA_N@Z 000000014003d130 f i main.obj
 0001:0003c180       ??$?0PEAU?$_Tree_node@U?$pair@$$CBV?$basic_string@DU?$char_traits@D@std@@V?$allocator@D@2@@std@@V?$weak_ptr@VTexture2D@@@2@@std@@PEAX@std@@_N$0A@@?$pair@PEAU?$_Tree_node@U?$pair@$$CBV?$basic_string@DU?$char_traits@D@std@@V?$allocator@D@2@@std@@V?$weak_ptr@VTexture2D@@@2@@std@@PEAX@std@@_N@std@@QEAA@$$QEAPEAU?$_Tree_node@U?$pair@$$CBV?$basic_string@DU?$char_traits@D@std@@V?$allocator@D@2@@std@@V?$weak_ptr@VTexture2D@@@2@@std@@PEAX@1@$$QEA_N@Z 000000014003d180 f i main.obj
 0001:0003c1d0       ??$?0PEBDV?$shared_ptr@VTexture2D@@@std@@$0A@@?$pair@V?$basic_string@DU?$char_traits@D@std@@V?$allocator@D@2@@std@@V?$shared_ptr@VTexture2D@@@2@@std@@QEAA@$$QEAU?$pair@PEBDV?$shared_ptr@VTexture2D@@@std@@@1@@Z 000000014003d1d0 f i main.obj
 0001:0003c240       ??$?0U?$default_delete@V_Facet_base@std@@@std@@$0A@@?$unique_ptr@V_Facet_base@std@@U?$default_delete@V_Facet_base@std@@@2@@std@@QEAA@PEAV_Facet_base@1@@Z 000000014003d240 f i main.obj
 0001:0003c290       ??$?0U?$less@X@std@@U_One_then_variadic_args_t@1@V?$allocator@U?$_Tree_node@U?$pair@$$CBV?$basic_string@DU?$char_traits@D@std@@V?$allocator@D@2@@std@@V?$basic_json@Vmap@std@@Vvector@2@V?$basic_string@DU?$char_traits@D@std@@V?$allocator@D@2@@2@_N_J_KNVallocator@2@Uadl_serializer@json_abi_v3_11_2@nlohmann@@V?$vector@EV?$allocator@E@std@@@2@X@json_abi_v3_11_2@nlohmann@@@std@@PEAX@std@@@1@@?$_Compressed_pair@U?$less@X@std@@V?$_Compressed_pair@V?$allocator@U?$_Tree_node@U?$pair@$$CBV?$basic_string@DU?$char_traits@D@std@@V?$allocator@D@2@@std@@V?$basic_json@Vmap@std@@Vvector@2@V?$basic_string@DU?$char_traits@D@std@@V?$allocator@D@2@@2@_N_J_KNVallocator@2@Uadl_serializer@json_abi_v3_11_2@nlohmann@@V?$vector@EV?$allocator@E@std@@@2@X@json_abi_v3_11_2@nlohmann@@@std@@PEAX@std@@@std@@V?$_Tree_val@U?$_Tree_simple_types@U?$pair@$$CBV?$basic_string@DU?$char_traits@D@std@@V?$allocator@D@2@@std@@V?$basic_json@Vmap@std@@Vvector@2@V?$basic_string@DU?$char_traits@D@std@@V?$allocator@D@2@@2@_N_J_KNVallocator@2@Uadl_serializer@json_abi_v3_11_2@nlohmann@@V?$vector@EV?$allocator@E@std@@@2@X@json_abi_v3_11_2@nlohmann@@@std@@@std@@@2@$00@2@$00@std@@QEAA@U_One_then_variadic_args_t@1@$$QEAU?$less@X@1@$$QEAU21@$$QEAV?$allocator@U?$_Tree_node@U?$pair@$$CBV?$basic_string@DU?$char_traits@D@std@@V?$allocator@D@2@@std@@V?$basic_json@Vmap@std@@Vvector@2@V?$basic_string@DU?$char_traits@D@std@@V?$allocator@D@2@@2@_N_J_KNVallocator@2@Uadl_serializer@json_abi_v3_11_2@nlohmann@@V?$vector@EV?$allocator@E@std@@@2@X@json_abi_v3_11_2@nlohmann@@@std@@PEAX@std@@@1@@Z 000000014003d290 f i main.obj
 0001:0003c2f0       ??$?0U_Exact_args_t@std@@$0A@@?$tuple@$$V@std@@QEAA@U_Exact_args_t@1@@Z 000000014003d2f0 f i main.obj
 0001:0003c310       ??$?0U_Exact_args_t@std@@AEBV?$basic_string@DU?$char_traits@D@std@@V?$allocator@D@2@@1@$$V$0A@@?$tuple@AEBV?$basic_string@DU?$char_traits@D@std@@V?$allocator@D@2@@std@@@std@@QEAA@U_Exact_args_t@1@AEBV?$basic_string@DU?$char_traits@D@std@@V?$allocator@D@2@@1@@Z 000000014003d310 f i main.obj
 0001:0003c370       ??$?0U_Exact_args_t@std@@V?$basic_string@DU?$char_traits@D@std@@V?$allocator@D@2@@1@$$V$0A@@?$tuple@$$QEAV?$basic_string@DU?$char_traits@D@std@@V?$allocator@D@2@@std@@@std@@QEAA@U_Exact_args_t@1@$$QEAV?$basic_string@DU?$char_traits@D@std@@V?$allocator@D@2@@1@@Z 000000014003d370 f i main.obj
 0001:0003c3d0       ??$?0V<lambda_1>@?1???$create@V?$basic_string@DU?$char_traits@D@std@@V?$allocator@D@2@@std@@AEAY00$$CBD@?$basic_json@Vmap@std@@Vvector@2@V?$basic_string@DU?$char_traits@D@std@@V?$allocator@D@2@@2@_N_J_KNVallocator@2@Uadl_serializer@json_abi_v3_11_2@nlohmann@@V?$vector@EV?$allocator@E@std@@@2@X@json_abi_v3_11_2@nlohmann@@CAPEAV?$basic_string@DU?$char_traits@D@std@@V?$allocator@D@2@@std@@AEAY00$$CBD@Z@$0A@@?$unique_ptr@V?$basic_string@DU?$char_traits@D@std@@V?$allocator@D@2@@std@@V<lambda_1>@?1???$create@V?$basic_string@DU?$char_traits@D@std@@V?$allocator@D@2@@std@@AEAY00$$CBD@?$basic_json@Vmap@std@@Vvector@2@V?$basic_string@DU?$char_traits@D@std@@V?$allocator@D@2@@2@_N_J_KNVallocator@2@Uadl_serializer@json_abi_v3_11_2@nlohmann@@V?$vector@EV?$allocator@E@std@@@2@X@json_abi_v3_11_2@nlohmann@@CAPEAV12@AEAY00$$CBD@Z@@std@@QEAA@PEAV?$basic_string@DU?$char_traits@D@std@@V?$allocator@D@2@@1@AEBV<lambda_1>@?1???$create@V?$basic_string@DU?$char_traits@D@std@@V?$allocator@D@2@@std@@AEAY00$$CBD@?$basic_json@Vmap@std@@Vvector@2@V?$basic_string@DU?$char_traits@D@std@@V?$allocator@D@2@@2@_N_J_KNVallocator@2@Uadl_serializer@json_abi_v3_11_2@nlohmann@@V?$vector@EV?$allocator@E@std@@@2@X@json_abi_v3_11_2@nlohmann@@CAPEAV21@AEAY00$$CBD@Z@@Z 000000014003d3d0 f i main.obj
 0001:0003c420       ??$?0V<lambda_1>@?1???$create@V?$basic_string@DU?$char_traits@D@std@@V?$allocator@D@2@@std@@AEBV12@@?$basic_json@Vmap@std@@Vvector@2@V?$basic_string@DU?$char_traits@D@std@@V?$allocator@D@2@@2@_N_J_KNVallocator@2@Uadl_serializer@json_abi_v3_11_2@nlohmann@@V?$vector@EV?$allocator@E@std@@@2@X@json_abi_v3_11_2@nlohmann@@CAPEAV?$basic_string@DU?$char_traits@D@std@@V?$allocator@D@2@@std@@AEBV45@@Z@$0A@@?$unique_ptr@V?$basic_string@DU?$char_traits@D@std@@V?$allocator@D@2@@std@@V<lambda_1>@?1???$create@V?$basic_string@DU?$char_traits@D@std@@V?$allocator@D@2@@std@@AEBV12@@?$basic_json@Vmap@std@@Vvector@2@V?$basic_string@DU?$char_traits@D@std@@V?$allocator@D@2@@2@_N_J_KNVallocator@2@Uadl_serializer@json_abi_v3_11_2@nlohmann@@V?$vector@EV?$allocator@E@std@@@2@X@json_abi_v3_11_2@nlohmann@@CAPEAV12@AEBV12@@Z@@std@@QEAA@PEAV?$basic_string@DU?$char_traits@D@std@@V?$allocator@D@2@@1@AEBV<lambda_1>@?1???$create@V?$basic_string@DU?$char_traits@D@std@@V?$allocator@D@2@@std@@AEBV12@@?$basic_json@Vmap@std@@Vvector@2@V?$basic_string@DU?$char_traits@D@std@@V?$allocator@D@2@@2@_N_J_KNVallocator@2@Uadl_serializer@json_abi_v3_11_2@nlohmann@@V?$vector@EV?$allocator@E@std@@@2@X@json_abi_v3_11_2@nlohmann@@CAPEAV21@AEBV21@@Z@@Z 000000014003d420 f i main.obj
 0001:0003c470       ??$?0V<lambda_1>@?1???$create@V?$byte_container_with_subtype@V?$vector@EV?$allocator@E@std@@@std@@@json_abi_v3_11_2@nlohmann@@$$V@?$basic_json@Vmap@std@@Vvector@2@V?$basic_string@DU?$char_traits@D@std@@V?$allocator@D@2@@2@_N_J_KNVallocator@2@Uadl_serializer@json_abi_v3_11_2@nlohmann@@V?$vector@EV?$allocator@E@std@@@2@X@json_abi_v3_11_2@nlohmann@@CAPEAV?$byte_container_with_subtype@V?$vector@EV?$allocator@E@std@@@std@@@23@XZ@$0A@@?$unique_ptr@V?$byte_container_with_subtype@V?$vector@EV?$allocator@E@std@@@std@@@json_abi_v3_11_2@nlohmann@@V<lambda_1>@?1???$create@V?$byte_container_with_subtype@V?$vector@EV?$allocator@E@std@@@std@@@json_abi_v3_11_2@nlohmann@@$$V@?$basic_json@Vmap@std@@Vvector@2@V?$basic_string@DU?$char_traits@D@std@@V?$allocator@D@2@@2@_N_J_KNVallocator@2@Uadl_serializer@json_abi_v3_11_2@nlohmann@@V?$vector@EV?$allocator@E@std@@@2@X@23@CAPEAV123@XZ@@std@@QEAA@PEAV?$byte_container_with_subtype@V?$vector@EV?$allocator@E@std@@@std@@@json_abi_v3_11_2@nlohmann@@AEBV<lambda_1>@?1???$create@V?$byte_container_with_subtype@V?$vector@EV?$allocator@E@std@@@std@@@json_abi_v3_11_2@nlohmann@@$$V@?$basic_json@Vmap@std@@Vvector@2@V?$basic_string@DU?$char_traits@D@std@@V?$allocator@D@2@@2@_N_J_KNVallocator@2@Uadl_serializer@json_abi_v3_11_2@nlohmann@@V?$vector@EV?$allocator@E@std@@@2@X@34@CAPEAV234@XZ@@Z 000000014003d470 f i main.obj
 0001:0003c4c0       ??$?0V<lambda_1>@?1???$create@V?$byte_container_with_subtype@V?$vector@EV?$allocator@E@std@@@std@@@json_abi_v3_11_2@nlohmann@@AEBV123@@?$basic_json@Vmap@std@@Vvector@2@V?$basic_string@DU?$char_traits@D@std@@V?$allocator@D@2@@2@_N_J_KNVallocator@2@Uadl_serializer@json_abi_v3_11_2@nlohmann@@V?$vector@EV?$allocator@E@std@@@2@X@json_abi_v3_11_2@nlohmann@@CAPEAV?$byte_container_with_subtype@V?$vector@EV?$allocator@E@std@@@std@@@23@AEBV423@@Z@$0A@@?$unique_ptr@V?$byte_container_with_subtype@V?$vector@EV?$allocator@E@std@@@std@@@json_abi_v3_11_2@nlohmann@@V<lambda_1>@?1???$create@V?$byte_container_with_subtype@V?$vector@EV?$allocator@E@std@@@std@@@json_abi_v3_11_2@nlohmann@@AEBV123@@?$basic_json@Vmap@std@@Vvector@2@V?$basic_string@DU?$char_traits@D@std@@V?$allocator@D@2@@2@_N_J_KNVallocator@2@Uadl_serializer@json_abi_v3_11_2@nlohmann@@V?$vector@EV?$allocator@E@std@@@2@X@23@CAPEAV123@AEBV123@@Z@@std@@QEAA@PEAV?$byte_container_with_subtype@V?$vector@EV?$allocator@E@std@@@std@@@json_abi_v3_11_2@nlohmann@@AEBV<lambda_1>@?1???$create@V?$byte_container_with_subtype@V?$vector@EV?$allocator@E@std@@@std@@@json_abi_v3_11_2@nlohmann@@AEBV123@@?$basic_json@Vmap@std@@Vvector@2@V?$basic_string@DU?$char_traits@D@std@@V?$allocator@D@2@@2@_N_J_KNVallocator@2@Uadl_serializer@json_abi_v3_11_2@nlohmann@@V?$vector@EV?$allocator@E@std@@@2@X@34@CAPEAV234@AEBV234@@Z@@Z 000000014003d4c0 f i main.obj
 0001:0003c510       ??$?0V<lambda_1>@?1???$create@V?$vector@V?$basic_json@Vmap@std@@Vvector@2@V?$basic_string@DU?$char_traits@D@std@@V?$allocator@D@2@@2@_N_J_KNVallocator@2@Uadl_serializer@json_abi_v3_11_2@nlohmann@@V?$vector@EV?$allocator@E@std@@@2@X@json_abi_v3_11_2@nlohmann@@V?$allocator@V?$basic_json@Vmap@std@@Vvector@2@V?$basic_string@DU?$char_traits@D@std@@V?$allocator@D@2@@2@_N_J_KNVallocator@2@Uadl_serializer@json_abi_v3_11_2@nlohmann@@V?$vector@EV?$allocator@E@std@@@2@X@json_abi_v3_11_2@nlohmann@@@std@@@std@@$$V@?$basic_json@Vmap@std@@Vvector@2@V?$basic_string@DU?$char_traits@D@std@@V?$allocator@D@2@@2@_N_J_KNVallocator@2@Uadl_serializer@json_abi_v3_11_2@nlohmann@@V?$vector@EV?$allocator@E@std@@@2@X@json_abi_v3_11_2@nlohmann@@CAPEAV?$vector@V?$basic_json@Vmap@std@@Vvector@2@V?$basic_string@DU?$char_traits@D@std@@V?$allocator@D@2@@2@_N_J_KNVallocator@2@Uadl_serializer@json_abi_v3_11_2@nlohmann@@V?$vector@EV?$allocator@E@std@@@2@X@json_abi_v3_11_2@nlohmann@@V?$allocator@V?$basic_json@Vmap@std@@Vvector@2@V?$basic_string@DU?$char_traits@D@std@@V?$allocator@D@2@@2@_N_J_KNVallocator@2@Uadl_serializer@json_abi_v3_11_2@nlohmann@@V?$vector@EV?$allocator@E@std@@@2@X@json_abi_v3_11_2@nlohmann@@@std@@@std@@XZ@$0A@@?$unique_ptr@V?$vector@V?$basic_json@Vmap@std@@Vvector@2@V?$basic_string@DU?$char_traits@D@std@@V?$allocator@D@2@@2@_N_J_KNVallocator@2@Uadl_serializer@json_abi_v3_11_2@nlohmann@@V?$vector@EV?$allocator@E@std@@@2@X@json_abi_v3_11_2@nlohmann@@V?$allocator@V?$basic_json@Vmap@std@@Vvector@2@V?$basic_string@DU?$char_traits@D@std@@V?$allocator@D@2@@2@_N_J_KNVallocator@2@Uadl_serializer@json_abi_v3_11_2@nlohmann@@V?$vector@EV?$allocator@E@std@@@2@X@json_abi_v3_11_2@nlohmann@@@std@@@std@@V<lambda_1>@?1???$create@V?$vector@V?$basic_json@Vmap@std@@Vvector@2@V?$basic_string@DU?$char_traits@D@std@@V?$allocator@D@2@@2@_N_J_KNVallocator@2@Uadl_serializer@json_abi_v3_11_2@nlohmann@@V?$vector@EV?$allocator@E@std@@@2@X@json_abi_v3_11_2@nlohmann@@V?$allocator@V?$basic_json@Vmap@std@@Vvector@2@V?$basic_string@DU?$char_traits@D@std@@V?$allocator@D@2@@2@_N_J_KNVallocator@2@Uadl_serializer@json_abi_v3_11_2@nlohmann@@V?$vector@EV?$allocator@E@std@@@2@X@json_abi_v3_11_2@nlohmann@@@std@@@std@@$$V@?$basic_json@Vmap@std@@Vvector@2@V?$basic_string@DU?$char_traits@D@std@@V?$allocator@D@2@@2@_N_J_KNVallocator@2@Uadl_serializer@json_abi_v3_11_2@nlohmann@@V?$vector@EV?$allocator@E@std@@@2@X@json_abi_v3_11_2@nlohmann@@CAPEAV12@XZ@@std@@QEAA@PEAV?$vector@V?$basic_json@Vmap@std@@Vvector@2@V?$basic_string@DU?$char_traits@D@std@@V?$allocator@D@2@@2@_N_J_KNVallocator@2@Uadl_serializer@json_abi_v3_11_2@nlohmann@@V?$vector@EV?$allocator@E@std@@@2@X@json_abi_v3_11_2@nlohmann@@V?$allocator@V?$basic_json@Vmap@std@@Vvector@2@V?$basic_string@DU?$char_traits@D@std@@V?$allocator@D@2@@2@_N_J_KNVallocator@2@Uadl_serializer@json_abi_v3_11_2@nlohmann@@V?$vector@EV?$allocator@E@std@@@2@X@json_abi_v3_11_2@nlohmann@@@std@@@1@AEBV<lambda_1>@?1???$create@V?$vector@V?$basic_json@Vmap@std@@Vvector@2@V?$basic_string@DU?$char_traits@D@std@@V?$allocator@D@2@@2@_N_J_KNVallocator@2@Uadl_serializer@json_abi_v3_11_2@nlohmann@@V?$vector@EV?$allocator@E@std@@@2@X@json_abi_v3_11_2@nlohmann@@V?$allocator@V?$basic_json@Vmap@std@@Vvector@2@V?$basic_string@DU?$char_traits@D@std@@V?$allocator@D@2@@2@_N_J_KNVallocator@2@Uadl_serializer@json_abi_v3_11_2@nlohmann@@V?$vector@EV?$allocator@E@std@@@2@X@json_abi_v3_11_2@nlohmann@@@std@@@std@@$$V@?$basic_json@Vmap@std@@Vvector@2@V?$basic_string@DU?$char_traits@D@std@@V?$allocator@D@2@@2@_N_J_KNVallocator@2@Uadl_serializer@json_abi_v3_11_2@nlohmann@@V?$vector@EV?$allocator@E@std@@@2@X@json_abi_v3_11_2@nlohmann@@CAPEAV21@XZ@@Z 000000014003d510 f i main.obj
 0001:0003c560       ??$?0V<lambda_1>@?1???$create@V?$vector@V?$basic_json@Vmap@std@@Vvector@2@V?$basic_string@DU?$char_traits@D@std@@V?$allocator@D@2@@2@_N_J_KNVallocator@2@Uadl_serializer@json_abi_v3_11_2@nlohmann@@V?$vector@EV?$allocator@E@std@@@2@X@json_abi_v3_11_2@nlohmann@@V?$allocator@V?$basic_json@Vmap@std@@Vvector@2@V?$basic_string@DU?$char_traits@D@std@@V?$allocator@D@2@@2@_N_J_KNVallocator@2@Uadl_serializer@json_abi_v3_11_2@nlohmann@@V?$vector@EV?$allocator@E@std@@@2@X@json_abi_v3_11_2@nlohmann@@@std@@@std@@AEBV12@@?$basic_json@Vmap@std@@Vvector@2@V?$basic_string@DU?$char_traits@D@std@@V?$allocator@D@2@@2@_N_J_KNVallocator@2@Uadl_serializer@json_abi_v3_11_2@nlohmann@@V?$vector@EV?$allocator@E@std@@@2@X@json_abi_v3_11_2@nlohmann@@CAPEAV?$vector@V?$basic_json@Vmap@std@@Vvector@2@V?$basic_string@DU?$char_traits@D@std@@V?$allocator@D@2@@2@_N_J_KNVallocator@2@Uadl_serializer@json_abi_v3_11_2@nlohmann@@V?$vector@EV?$allocator@E@std@@@2@X@json_abi_v3_11_2@nlohmann@@V?$allocator@V?$basic_json@Vmap@std@@Vvector@2@V?$basic_string@DU?$char_traits@D@std@@V?$allocator@D@2@@2@_N_J_KNVallocator@2@Uadl_serializer@json_abi_v3_11_2@nlohmann@@V?$vector@EV?$allocator@E@std@@@2@X@json_abi_v3_11_2@nlohmann@@@std@@@std@@AEBV45@@Z@$0A@@?$unique_ptr@V?$vector@V?$basic_json@Vmap@std@@Vvector@2@V?$basic_string@DU?$char_traits@D@std@@V?$allocator@D@2@@2@_N_J_KNVallocator@2@Uadl_serializer@json_abi_v3_11_2@nlohmann@@V?$vector@EV?$allocator@E@std@@@2@X@json_abi_v3_11_2@nlohmann@@V?$allocator@V?$basic_json@Vmap@std@@Vvector@2@V?$basic_string@DU?$char_traits@D@std@@V?$allocator@D@2@@2@_N_J_KNVallocator@2@Uadl_serializer@json_abi_v3_11_2@nlohmann@@V?$vector@EV?$allocator@E@std@@@2@X@json_abi_v3_11_2@nlohmann@@@std@@@std@@V<lambda_1>@?1???$create@V?$vector@V?$basic_json@Vmap@std@@Vvector@2@V?$basic_string@DU?$char_traits@D@std@@V?$allocator@D@2@@2@_N_J_KNVallocator@2@Uadl_serializer@json_abi_v3_11_2@nlohmann@@V?$vector@EV?$allocator@E@std@@@2@X@json_abi_v3_11_2@nlohmann@@V?$allocator@V?$basic_json@Vmap@std@@Vvector@2@V?$basic_string@DU?$char_traits@D@std@@V?$allocator@D@2@@2@_N_J_KNVallocator@2@Uadl_serializer@json_abi_v3_11_2@nlohmann@@V?$vector@EV?$allocator@E@std@@@2@X@json_abi_v3_11_2@nlohmann@@@std@@@std@@AEBV12@@?$basic_json@Vmap@std@@Vvector@2@V?$basic_string@DU?$char_traits@D@std@@V?$allocator@D@2@@2@_N_J_KNVallocator@2@Uadl_serializer@json_abi_v3_11_2@nlohmann@@V?$vector@EV?$allocator@E@std@@@2@X@json_abi_v3_11_2@nlohmann@@CAPEAV12@AEBV12@@Z@@std@@QEAA@PEAV?$vector@V?$basic_json@Vmap@std@@Vvector@2@V?$basic_string@DU?$char_traits@D@std@@V?$allocator@D@2@@2@_N_J_KNVallocator@2@Uadl_serializer@json_abi_v3_11_2@nlohmann@@V?$vector@EV?$allocator@E@std@@@2@X@json_abi_v3_11_2@nlohmann@@V?$allocator@V?$basic_json@Vmap@std@@Vvector@2@V?$basic_string@DU?$char_traits@D@std@@V?$allocator@D@2@@2@_N_J_KNVallocator@2@Uadl_serializer@json_abi_v3_11_2@nlohmann@@V?$vector@EV?$allocator@E@std@@@2@X@json_abi_v3_11_2@nlohmann@@@std@@@1@AEBV<lambda_1>@?1???$create@V?$vector@V?$basic_json@Vmap@std@@Vvector@2@V?$basic_string@DU?$char_traits@D@std@@V?$allocator@D@2@@2@_N_J_KNVallocator@2@Uadl_serializer@json_abi_v3_11_2@nlohmann@@V?$vector@EV?$allocator@E@std@@@2@X@json_abi_v3_11_2@nlohmann@@V?$allocator@V?$basic_json@Vmap@std@@Vvector@2@V?$basic_string@DU?$char_traits@D@std@@V?$allocator@D@2@@2@_N_J_KNVallocator@2@Uadl_serializer@json_abi_v3_11_2@nlohmann@@V?$vector@EV?$allocator@E@std@@@2@X@json_abi_v3_11_2@nlohmann@@@std@@@std@@AEBV12@@?$basic_json@Vmap@std@@Vvector@2@V?$basic_string@DU?$char_traits@D@std@@V?$allocator@D@2@@2@_N_J_KNVallocator@2@Uadl_serializer@json_abi_v3_11_2@nlohmann@@V?$vector@EV?$allocator@E@std@@@2@X@json_abi_v3_11_2@nlohmann@@CAPEAV21@AEBV21@@Z@@Z 000000014003d560 f i main.obj
 0001:0003c5b0       ??$?0V?$_Tree_iterator@V?$_Tree_val@U?$_Tree_simple_types@U?$pair@$$CBV?$basic_string@DU?$char_traits@D@std@@V?$allocator@D@2@@std@@V?$basic_json@Vmap@std@@Vvector@2@V?$basic_string@DU?$char_traits@D@std@@V?$allocator@D@2@@2@_N_J_KNVallocator@2@Uadl_serializer@json_abi_v3_11_2@nlohmann@@V?$vector@EV?$allocator@E@std@@@2@X@json_abi_v3_11_2@nlohmann@@@std@@@std@@@std@@@std@@AEB_N$0A@@?$pair@V?$_Tree_iterator@V?$_Tree_val@U?$_Tree_simple_types@U?$pair@$$CBV?$basic_string@DU?$char_traits@D@std@@V?$allocator@D@2@@std@@V?$basic_json@Vmap@std@@Vvector@2@V?$basic_string@DU?$char_traits@D@std@@V?$allocator@D@2@@2@_N_J_KNVallocator@2@Uadl_serializer@json_abi_v3_11_2@nlohmann@@V?$vector@EV?$allocator@E@std@@@2@X@json_abi_v3_11_2@nlohmann@@@std@@@std@@@std@@@std@@_N@std@@QEAA@$$QEAV?$_Tree_iterator@V?$_Tree_val@U?$_Tree_simple_types@U?$pair@$$CBV?$basic_string@DU?$char_traits@D@std@@V?$allocator@D@2@@std@@V?$basic_json@Vmap@std@@Vvector@2@V?$basic_string@DU?$char_traits@D@std@@V?$allocator@D@2@@2@_N_J_KNVallocator@2@Uadl_serializer@json_abi_v3_11_2@nlohmann@@V?$vector@EV?$allocator@E@std@@@2@X@json_abi_v3_11_2@nlohmann@@@std@@@std@@@std@@@1@AEB_N@Z 000000014003d5b0 f i main.obj
 0001:0003c600       ??$?0V?$_Vector_iterator@V?$_Vector_val@U?$_Simple_types@G@std@@@std@@@std@@$0A@@?$vector@IV?$allocator@I@std@@@std@@QEAA@V?$_Vector_iterator@V?$_Vector_val@U?$_Simple_types@G@std@@@std@@@1@0AEBV?$allocator@I@1@@Z 000000014003d600 f i main.obj
 0001:0003c6b0       ?_Unlock@?$basic_filebuf@DU?$char_traits@D@std@@@std@@UEAAXXZ 000000014003d6b0 f i main.obj
 0001:0003c6e0       ??$?0V?$allocator@D@std@@$$V@?$_Compressed_pair@V?$allocator@D@std@@V?$_String_val@U?$_Simple_types@D@std@@@2@$00@std@@QEAA@U_One_then_variadic_args_t@1@$$QEAV?$allocator@D@1@@Z 000000014003d6e0 f i main.obj
 0001:0003c720       ??$?0V?$allocator@E@std@@$$V@?$_Compressed_pair@V?$allocator@E@std@@V?$_Vector_val@U?$_Simple_types@E@std@@@2@$00@std@@QEAA@U_One_then_variadic_args_t@1@$$QEAV?$allocator@E@1@@Z 000000014003d720 f i main.obj
 0001:0003c760       ??$?0V?$allocator@H@std@@$$V@?$_Compressed_pair@V?$allocator@H@std@@V?$_Vector_val@U?$_Simple_types@H@std@@@2@$00@std@@QEAA@U_One_then_variadic_args_t@1@$$QEAV?$allocator@H@1@@Z 000000014003d760 f i main.obj
 0001:0003c7a0       ??$?0V?$allocator@H@std@@PEAHPEAHPEAH@?$_Compressed_pair@V?$allocator@H@std@@V?$_Vector_val@U?$_Simple_types@H@std@@@2@$00@std@@QEAA@U_One_then_variadic_args_t@1@$$QEAV?$allocator@H@1@$$QEAPEAH22@Z 000000014003d7a0 f i main.obj
 0001:0003c800       ??$?0V?$allocator@I@std@@$$V@?$_Compressed_pair@V?$allocator@I@std@@V?$_Vector_val@U?$_Simple_types@I@std@@@2@$00@std@@QEAA@U_One_then_variadic_args_t@1@$$QEAV?$allocator@I@1@@Z 000000014003d800 f i main.obj
 0001:0003c840       ??$?0V?$allocator@M@std@@$$V@?$_Compressed_pair@V?$allocator@M@std@@V?$_Vector_val@U?$_Simple_types@M@std@@@2@$00@std@@QEAA@U_One_then_variadic_args_t@1@$$QEAV?$allocator@M@1@@Z 000000014003d840 f i main.obj
 0001:0003c880       ??$?0V?$allocator@M@std@@PEAMPEAMPEAM@?$_Compressed_pair@V?$allocator@M@std@@V?$_Vector_val@U?$_Simple_types@M@std@@@2@$00@std@@QEAA@U_One_then_variadic_args_t@1@$$QEAV?$allocator@M@1@$$QEAPEAM22@Z 000000014003d880 f i main.obj
 0001:0003c8e0       ??$?0V?$allocator@PEAVAnimationChannel@@@std@@PEAPEAVAnimationChannel@@PEAPEAV2@PEAPEAV2@@?$_Compressed_pair@V?$allocator@PEAVAnimationChannel@@@std@@V?$_Vector_val@U?$_Simple_types@PEAVAnimationChannel@@@std@@@2@$00@std@@QEAA@U_One_then_variadic_args_t@1@$$QEAV?$allocator@PEAVAnimationChannel@@@1@$$QEAPEAPEAVAnimationChannel@@22@Z 000000014003d8e0 f i main.obj
 0001:0003c940       ??$?0V?$allocator@U?$_Tree_node@U?$pair@$$CBV?$basic_string@DU?$char_traits@D@std@@V?$allocator@D@2@@std@@V?$basic_json@Vmap@std@@Vvector@2@V?$basic_string@DU?$char_traits@D@std@@V?$allocator@D@2@@2@_N_J_KNVallocator@2@Uadl_serializer@json_abi_v3_11_2@nlohmann@@V?$vector@EV?$allocator@E@std@@@2@X@json_abi_v3_11_2@nlohmann@@@std@@PEAX@std@@@std@@$$V@?$_Compressed_pair@V?$allocator@U?$_Tree_node@U?$pair@$$CBV?$basic_string@DU?$char_traits@D@std@@V?$allocator@D@2@@std@@V?$basic_json@Vmap@std@@Vvector@2@V?$basic_string@DU?$char_traits@D@std@@V?$allocator@D@2@@2@_N_J_KNVallocator@2@Uadl_serializer@json_abi_v3_11_2@nlohmann@@V?$vector@EV?$allocator@E@std@@@2@X@json_abi_v3_11_2@nlohmann@@@std@@PEAX@std@@@std@@V?$_Tree_val@U?$_Tree_simple_types@U?$pair@$$CBV?$basic_string@DU?$char_traits@D@std@@V?$allocator@D@2@@std@@V?$basic_json@Vmap@std@@Vvector@2@V?$basic_string@DU?$char_traits@D@std@@V?$allocator@D@2@@2@_N_J_KNVallocator@2@Uadl_serializer@json_abi_v3_11_2@nlohmann@@V?$vector@EV?$allocator@E@std@@@2@X@json_abi_v3_11_2@nlohmann@@@std@@@std@@@2@$00@std@@QEAA@U_One_then_variadic_args_t@1@$$QEAV?$allocator@U?$_Tree_node@U?$pair@$$CBV?$basic_string@DU?$char_traits@D@std@@V?$allocator@D@2@@std@@V?$basic_json@Vmap@std@@Vvector@2@V?$basic_string@DU?$char_traits@D@std@@V?$allocator@D@2@@2@_N_J_KNVallocator@2@Uadl_serializer@json_abi_v3_11_2@nlohmann@@V?$vector@EV?$allocator@E@std@@@2@X@json_abi_v3_11_2@nlohmann@@@std@@PEAX@std@@@1@@Z 000000014003d940 f i main.obj
 0001:0003c980       ??$?0V?$allocator@U?$_Tree_node@U?$pair@$$CBV?$basic_string@DU?$char_traits@D@std@@V?$allocator@D@2@@std@@V?$basic_json@Vmap@std@@Vvector@2@V?$basic_string@DU?$char_traits@D@std@@V?$allocator@D@2@@2@_N_J_KNVallocator@2@Uadl_serializer@json_abi_v3_11_2@nlohmann@@V?$vector@EV?$allocator@E@std@@@2@X@json_abi_v3_11_2@nlohmann@@@std@@PEAX@std@@@std@@@?$_Tree@V?$_Tmap_traits@V?$basic_string@DU?$char_traits@D@std@@V?$allocator@D@2@@std@@V?$basic_json@Vmap@std@@Vvector@2@V?$basic_string@DU?$char_traits@D@std@@V?$allocator@D@2@@2@_N_J_KNVallocator@2@Uadl_serializer@json_abi_v3_11_2@nlohmann@@V?$vector@EV?$allocator@E@std@@@2@X@json_abi_v3_11_2@nlohmann@@U?$less@X@2@V?$allocator@U?$pair@$$CBV?$basic_string@DU?$char_traits@D@std@@V?$allocator@D@2@@std@@V?$basic_json@Vmap@std@@Vvector@2@V?$basic_string@DU?$char_traits@D@std@@V?$allocator@D@2@@2@_N_J_KNVallocator@2@Uadl_serializer@json_abi_v3_11_2@nlohmann@@V?$vector@EV?$allocator@E@std@@@2@X@json_abi_v3_11_2@nlohmann@@@std@@@2@$0A@@std@@@std@@QEAA@AEBV01@$$QEAV?$allocator@U?$_Tree_node@U?$pair@$$CBV?$basic_string@DU?$char_traits@D@std@@V?$allocator@D@2@@std@@V?$basic_json@Vmap@std@@Vvector@2@V?$basic_string@DU?$char_traits@D@std@@V?$allocator@D@2@@2@_N_J_KNVallocator@2@Uadl_serializer@json_abi_v3_11_2@nlohmann@@V?$vector@EV?$allocator@E@std@@@2@X@json_abi_v3_11_2@nlohmann@@@std@@PEAX@std@@@1@@Z 000000014003d980 f i main.obj
 0001:0003ca80       ?_Swap@?$_Ptr_base@VImage@@@std@@IEAAXAEAV12@@Z 000000014003da80 f i main.obj
 0001:0003cac0       ??$?0V?$allocator@U?$pair@V?$basic_string@DU?$char_traits@D@std@@V?$allocator@D@2@@std@@H@std@@@std@@$$V@?$_Compressed_pair@V?$allocator@U?$pair@V?$basic_string@DU?$char_traits@D@std@@V?$allocator@D@2@@std@@H@std@@@std@@V?$_Vector_val@U?$_Simple_types@U?$pair@V?$basic_string@DU?$char_traits@D@std@@V?$allocator@D@2@@std@@H@std@@@std@@@2@$00@std@@QEAA@U_One_then_variadic_args_t@1@$$QEAV?$allocator@U?$pair@V?$basic_string@DU?$char_traits@D@std@@V?$allocator@D@2@@std@@H@std@@@1@@Z 000000014003dac0 f i main.obj
 0001:0003cb00       ??$?0V?$allocator@U?$pair@V?$basic_string@DU?$char_traits@D@std@@V?$allocator@D@2@@std@@H@std@@@std@@PEAU?$pair@V?$basic_string@DU?$char_traits@D@std@@V?$allocator@D@2@@std@@H@1@PEAU21@PEAU21@@?$_Compressed_pair@V?$allocator@U?$pair@V?$basic_string@DU?$char_traits@D@std@@V?$allocator@D@2@@std@@H@std@@@std@@V?$_Vector_val@U?$_Simple_types@U?$pair@V?$basic_string@DU?$char_traits@D@std@@V?$allocator@D@2@@std@@H@std@@@std@@@2@$00@std@@QEAA@U_One_then_variadic_args_t@1@$$QEAV?$allocator@U?$pair@V?$basic_string@DU?$char_traits@D@std@@V?$allocator@D@2@@std@@H@std@@@1@$$QEAPEAU?$pair@V?$basic_string@DU?$char_traits@D@std@@V?$allocator@D@2@@std@@H@1@22@Z 000000014003db00 f i main.obj
 0001:0003cb60       ??$?0V?$allocator@U?$quatt@M@@@std@@PEAU?$quatt@M@@PEAU2@PEAU2@@?$_Compressed_pair@V?$allocator@U?$quatt@M@@@std@@V?$_Vector_val@U?$_Simple_types@U?$quatt@M@@@std@@@2@$00@std@@QEAA@U_One_then_variadic_args_t@1@$$QEAV?$allocator@U?$quatt@M@@@1@$$QEAPEAU?$quatt@M@@22@Z 000000014003db60 f i main.obj
 0001:0003cbc0       ??$?0V?$allocator@U?$vec2t@M@@@std@@$$V@?$_Compressed_pair@V?$allocator@U?$vec2t@M@@@std@@V?$_Vector_val@U?$_Simple_types@U?$vec2t@M@@@std@@@2@$00@std@@QEAA@U_One_then_variadic_args_t@1@$$QEAV?$allocator@U?$vec2t@M@@@1@@Z 000000014003dbc0 f i main.obj
 0001:0003cc00       ??$?0V?$allocator@U?$vec3t@M@@@std@@$$V@?$_Compressed_pair@V?$allocator@U?$vec3t@M@@@std@@V?$_Vector_val@U?$_Simple_types@U?$vec3t@M@@@std@@@2@$00@std@@QEAA@U_One_then_variadic_args_t@1@$$QEAV?$allocator@U?$vec3t@M@@@1@@Z 000000014003dc00 f i main.obj
 0001:0003cc40       ??$?0V?$allocator@U?$vec3t@M@@@std@@PEAU?$vec3t@M@@PEAU2@PEAU2@@?$_Compressed_pair@V?$allocator@U?$vec3t@M@@@std@@V?$_Vector_val@U?$_Simple_types@U?$vec3t@M@@@std@@@2@$00@std@@QEAA@U_One_then_variadic_args_t@1@$$QEAV?$allocator@U?$vec3t@M@@@1@$$QEAPEAU?$vec3t@M@@22@Z 000000014003dc40 f i main.obj
 0001:0003cca0       ??$?0V?$allocator@U?$vec4t@H@@@std@@$$V@?$_Compressed_pair@V?$allocator@U?$vec4t@H@@@std@@V?$_Vector_val@U?$_Simple_types@U?$vec4t@H@@@std@@@2@$00@std@@QEAA@U_One_then_variadic_args_t@1@$$QEAV?$allocator@U?$vec4t@H@@@1@@Z 000000014003dca0 f i main.obj
 0001:0003cce0       ??$?0V?$allocator@U?$vec4t@M@@@std@@$$V@?$_Compressed_pair@V?$allocator@U?$vec4t@M@@@std@@V?$_Vector_val@U?$_Simple_types@U?$vec4t@M@@@std@@@2@$00@std@@QEAA@U_One_then_variadic_args_t@1@$$QEAV?$allocator@U?$vec4t@M@@@1@@Z 000000014003dce0 f i main.obj
 0001:0003cd20       ??$?0V?$allocator@UAnimationChannel@gltf@@@std@@$$V@?$_Compressed_pair@V?$allocator@UAnimationChannel@gltf@@@std@@V?$_Vector_val@U?$_Simple_types@UAnimationChannel@gltf@@@std@@@2@$00@std@@QEAA@U_One_then_variadic_args_t@1@$$QEAV?$allocator@UAnimationChannel@gltf@@@1@@Z 000000014003dd20 f i main.obj
 0001:0003cd60       ??$?0V?$allocator@UAnimationChannel@gltf@@@std@@PEAUAnimationChannel@gltf@@PEAU23@PEAU23@@?$_Compressed_pair@V?$allocator@UAnimationChannel@gltf@@@std@@V?$_Vector_val@U?$_Simple_types@UAnimationChannel@gltf@@@std@@@2@$00@std@@QEAA@U_One_then_variadic_args_t@1@$$QEAV?$allocator@UAnimationChannel@gltf@@@1@$$QEAPEAUAnimationChannel@gltf@@22@Z 000000014003dd60 f i main.obj
 0001:0003cdc0       ??$?0V?$allocator@UAnimationSampler@gltf@@@std@@$$V@?$_Compressed_pair@V?$allocator@UAnimationSampler@gltf@@@std@@V?$_Vector_val@U?$_Simple_types@UAnimationSampler@gltf@@@std@@@2@$00@std@@QEAA@U_One_then_variadic_args_t@1@$$QEAV?$allocator@UAnimationSampler@gltf@@@1@@Z 000000014003ddc0 f i main.obj
 0001:0003ce00       ??$?0V?$allocator@UAnimationSampler@gltf@@@std@@PEAUAnimationSampler@gltf@@PEAU23@PEAU23@@?$_Compressed_pair@V?$allocator@UAnimationSampler@gltf@@@std@@V?$_Vector_val@U?$_Simple_types@UAnimationSampler@gltf@@@std@@@2@$00@std@@QEAA@U_One_then_variadic_args_t@1@$$QEAV?$allocator@UAnimationSampler@gltf@@@1@$$QEAPEAUAnimationSampler@gltf@@22@Z 000000014003de00 f i main.obj
 0001:0003ce60       ??$?0V?$allocator@UMeshPrimitive@gltf@@@std@@$$V@?$_Compressed_pair@V?$allocator@UMeshPrimitive@gltf@@@std@@V?$_Vector_val@U?$_Simple_types@UMeshPrimitive@gltf@@@std@@@2@$00@std@@QEAA@U_One_then_variadic_args_t@1@$$QEAV?$allocator@UMeshPrimitive@gltf@@@1@@Z 000000014003de60 f i main.obj
 0001:0003cea0       ??$?0V?$allocator@UMeshPrimitive@gltf@@@std@@PEAUMeshPrimitive@gltf@@PEAU23@PEAU23@@?$_Compressed_pair@V?$allocator@UMeshPrimitive@gltf@@@std@@V?$_Vector_val@U?$_Simple_types@UMeshPrimitive@gltf@@@std@@@2@$00@std@@QEAA@U_One_then_variadic_args_t@1@$$QEAV?$allocator@UMeshPrimitive@gltf@@@1@$$QEAPEAUMeshPrimitive@gltf@@22@Z 000000014003dea0 f i main.obj
 0001:0003cf00       ??$?0V?$allocator@V?$basic_json@Vmap@std@@Vvector@2@V?$basic_string@DU?$char_traits@D@std@@V?$allocator@D@2@@2@_N_J_KNVallocator@2@Uadl_serializer@json_abi_v3_11_2@nlohmann@@V?$vector@EV?$allocator@E@std@@@2@X@json_abi_v3_11_2@nlohmann@@@std@@$$V@?$_Compressed_pair@V?$allocator@V?$basic_json@Vmap@std@@Vvector@2@V?$basic_string@DU?$char_traits@D@std@@V?$allocator@D@2@@2@_N_J_KNVallocator@2@Uadl_serializer@json_abi_v3_11_2@nlohmann@@V?$vector@EV?$allocator@E@std@@@2@X@json_abi_v3_11_2@nlohmann@@@std@@V?$_Vector_val@U?$_Simple_types@V?$basic_json@Vmap@std@@Vvector@2@V?$basic_string@DU?$char_traits@D@std@@V?$allocator@D@2@@2@_N_J_KNVallocator@2@Uadl_serializer@json_abi_v3_11_2@nlohmann@@V?$vector@EV?$allocator@E@std@@@2@X@json_abi_v3_11_2@nlohmann@@@std@@@2@$00@std@@QEAA@U_One_then_variadic_args_t@1@$$QEAV?$allocator@V?$basic_json@Vmap@std@@Vvector@2@V?$basic_string@DU?$char_traits@D@std@@V?$allocator@D@2@@2@_N_J_KNVallocator@2@Uadl_serializer@json_abi_v3_11_2@nlohmann@@V?$vector@EV?$allocator@E@std@@@2@X@json_abi_v3_11_2@nlohmann@@@1@@Z 000000014003df00 f i main.obj
 0001:0003cf40       ??$?0V?$allocator@_W@std@@$$V@?$_Compressed_pair@V?$allocator@_W@std@@V?$_String_val@U?$_Simple_types@_W@std@@@2@$00@std@@QEAA@U_One_then_variadic_args_t@1@$$QEAV?$allocator@_W@1@@Z 000000014003df40 f i main.obj
 0001:0003cf80       ??$?0V?$basic_string@DU?$char_traits@D@std@@V?$allocator@D@2@@std@@$$T$0A@@?$pair@$$CBV?$basic_string@DU?$char_traits@D@std@@V?$allocator@D@2@@std@@V?$basic_json@Vmap@std@@Vvector@2@V?$basic_string@DU?$char_traits@D@std@@V?$allocator@D@2@@2@_N_J_KNVallocator@2@Uadl_serializer@json_abi_v3_11_2@nlohmann@@V?$vector@EV?$allocator@E@std@@@2@X@json_abi_v3_11_2@nlohmann@@@std@@QEAA@$$QEAV?$basic_string@DU?$char_traits@D@std@@V?$allocator@D@2@@1@$$QEA$$T@Z 000000014003df80 f i main.obj
 0001:0003cff0       ??$?0V?$basic_string@DU?$char_traits@D@std@@V?$allocator@D@2@@std@@$$T@?$_Tree_temp_node@V?$allocator@U?$_Tree_node@U?$pair@$$CBV?$basic_string@DU?$char_traits@D@std@@V?$allocator@D@2@@std@@V?$basic_json@Vmap@std@@Vvector@2@V?$basic_string@DU?$char_traits@D@std@@V?$allocator@D@2@@2@_N_J_KNVallocator@2@Uadl_serializer@json_abi_v3_11_2@nlohmann@@V?$vector@EV?$allocator@E@std@@@2@X@json_abi_v3_11_2@nlohmann@@@std@@PEAX@std@@@std@@@std@@QEAA@AEAV?$allocator@U?$_Tree_node@U?$pair@$$CBV?$basic_string@DU?$char_traits@D@std@@V?$allocator@D@2@@std@@V?$basic_json@Vmap@std@@Vvector@2@V?$basic_string@DU?$char_traits@D@std@@V?$allocator@D@2@@2@_N_J_KNVallocator@2@Uadl_serializer@json_abi_v3_11_2@nlohmann@@V?$vector@EV?$allocator@E@std@@@2@X@json_abi_v3_11_2@nlohmann@@@std@@PEAX@std@@@1@PEAU?$_Tree_node@U?$pair@$$CBV?$basic_string@DU?$char_traits@D@std@@V?$allocator@D@2@@std@@V?$basic_json@Vmap@std@@Vvector@2@V?$basic_string@DU?$char_traits@D@std@@V?$allocator@D@2@@2@_N_J_KNVallocator@2@Uadl_serializer@json_abi_v3_11_2@nlohmann@@V?$vector@EV?$allocator@E@std@@@2@X@json_abi_v3_11_2@nlohmann@@@std@@PEAX@1@$$QEAV?$basic_string@DU?$char_traits@D@std@@V?$allocator@D@2@@1@$$QEA$$T@Z 000000014003dff0 f i main.obj
 0001:0003d0d0       ?add@?$lexer@V?$basic_json@Vmap@std@@Vvector@2@V?$basic_string@DU?$char_traits@D@std@@V?$allocator@D@2@@2@_N_J_KNVallocator@2@Uadl_serializer@json_abi_v3_11_2@nlohmann@@V?$vector@EV?$allocator@E@std@@@2@X@json_abi_v3_11_2@nlohmann@@Vinput_stream_adapter@detail@23@@detail@json_abi_v3_11_2@nlohmann@@AEAAXH@Z 000000014003e0d0 f i main.obj
 0001:0003d100       ??$?0V?$basic_string@DU?$char_traits@D@std@@V?$allocator@D@2@@std@@$$V$0A@@?$tuple@$$QEAV?$basic_string@DU?$char_traits@D@std@@V?$allocator@D@2@@std@@@std@@QEAA@$$QEAV?$basic_string@DU?$char_traits@D@std@@V?$allocator@D@2@@1@@Z 000000014003e100 f i main.obj
 0001:0003d140       ??$?0V?$basic_string@DU?$char_traits@D@std@@V?$allocator@D@2@@std@@@?$_Tuple_val@$$QEAV?$basic_string@DU?$char_traits@D@std@@V?$allocator@D@2@@std@@@std@@QEAA@$$QEAV?$basic_string@DU?$char_traits@D@std@@V?$allocator@D@2@@1@@Z 000000014003e140 f i main.obj
 0001:0003d170       ??$?0V?$basic_string@DU?$char_traits@D@std@@V?$allocator@D@2@@std@@V?$basic_json@Vmap@std@@Vvector@2@V?$basic_string@DU?$char_traits@D@std@@V?$allocator@D@2@@2@_N_J_KNVallocator@2@Uadl_serializer@json_abi_v3_11_2@nlohmann@@V?$vector@EV?$allocator@E@std@@@2@X@json_abi_v3_11_2@nlohmann@@$0A@@?$pair@V?$basic_string@DU?$char_traits@D@std@@V?$allocator@D@2@@std@@H@std@@QEAA@$$QEAU?$pair@V?$basic_string@DU?$char_traits@D@std@@V?$allocator@D@2@@std@@V?$basic_json@Vmap@std@@Vvector@2@V?$basic_string@DU?$char_traits@D@std@@V?$allocator@D@2@@2@_N_J_KNVallocator@2@Uadl_serializer@json_abi_v3_11_2@nlohmann@@V?$vector@EV?$allocator@E@std@@@2@X@json_abi_v3_11_2@nlohmann@@@1@@Z 000000014003e170 f i main.obj
 0001:0003d1e0       ??$?0V?$tuple@$$QEAV?$basic_string@DU?$char_traits@D@std@@V?$allocator@D@2@@std@@@std@@V?$tuple@$$V@1@$0A@$$Z$S@?$pair@$$CBV?$basic_string@DU?$char_traits@D@std@@V?$allocator@D@2@@std@@PEAUmat4@@@std@@QEAA@AEAV?$tuple@$$QEAV?$basic_string@DU?$char_traits@D@std@@V?$allocator@D@2@@std@@@1@AEAV?$tuple@$$V@1@U?$integer_sequence@_K$0A@@1@U?$integer_sequence@_K$S@1@@Z 000000014003e1e0 f i main.obj
 0001:0003d250       ??$?0V?$tuple@AEBV?$basic_string@DU?$char_traits@D@std@@V?$allocator@D@2@@std@@@std@@V?$tuple@$$V@1@$0A@$$Z$S@?$pair@$$CBV?$basic_string@DU?$char_traits@D@std@@V?$allocator@D@2@@std@@V?$basic_json@Vmap@std@@Vvector@2@V?$basic_string@DU?$char_traits@D@std@@V?$allocator@D@2@@2@_N_J_KNVallocator@2@Uadl_serializer@json_abi_v3_11_2@nlohmann@@V?$vector@EV?$allocator@E@std@@@2@X@json_abi_v3_11_2@nlohmann@@@std@@QEAA@AEAV?$tuple@AEBV?$basic_string@DU?$char_traits@D@std@@V?$allocator@D@2@@std@@@1@AEAV?$tuple@$$V@1@U?$integer_sequence@_K$0A@@1@U?$integer_sequence@_K$S@1@@Z 000000014003e250 f i main.obj
 0001:0003d2d0       ??$?0V?$tuple@AEBV?$basic_string@DU?$char_traits@D@std@@V?$allocator@D@2@@std@@@std@@V?$tuple@$$V@1@$0A@$$Z$S@?$pair@$$CBV?$basic_string@DU?$char_traits@D@std@@V?$allocator@D@2@@std@@V?$weak_ptr@VImage@@@2@@std@@QEAA@AEAV?$tuple@AEBV?$basic_string@DU?$char_traits@D@std@@V?$allocator@D@2@@std@@@1@AEAV?$tuple@$$V@1@U?$integer_sequence@_K$0A@@1@U?$integer_sequence@_K$S@1@@Z 000000014003e2d0 f i main.obj
 0001:0003d340       ??$?0V?$tuple@AEBV?$basic_string@DU?$char_traits@D@std@@V?$allocator@D@2@@std@@@std@@V?$tuple@$$V@1@$0A@$$Z$S@?$pair@$$CBV?$basic_string@DU?$char_traits@D@std@@V?$allocator@D@2@@std@@V?$weak_ptr@VScenes@@@2@@std@@QEAA@AEAV?$tuple@AEBV?$basic_string@DU?$char_traits@D@std@@V?$allocator@D@2@@std@@@1@AEAV?$tuple@$$V@1@U?$integer_sequence@_K$0A@@1@U?$integer_sequence@_K$S@1@@Z 000000014003e340 f i main.obj
 0001:0003d3b0       ??$?0V?$tuple@AEBV?$basic_string@DU?$char_traits@D@std@@V?$allocator@D@2@@std@@@std@@V?$tuple@$$V@1@$0A@$$Z$S@?$pair@$$CBV?$basic_string@DU?$char_traits@D@std@@V?$allocator@D@2@@std@@V?$weak_ptr@VShader@@@2@@std@@QEAA@AEAV?$tuple@AEBV?$basic_string@DU?$char_traits@D@std@@V?$allocator@D@2@@std@@@1@AEAV?$tuple@$$V@1@U?$integer_sequence@_K$0A@@1@U?$integer_sequence@_K$S@1@@Z 000000014003e3b0 f i main.obj
 0001:0003d420       ??$?0V?$tuple@AEBV?$basic_string@DU?$char_traits@D@std@@V?$allocator@D@2@@std@@@std@@V?$tuple@$$V@1@$0A@$$Z$S@?$pair@$$CBV?$basic_string@DU?$char_traits@D@std@@V?$allocator@D@2@@std@@V?$weak_ptr@VTexture2D@@@2@@std@@QEAA@AEAV?$tuple@AEBV?$basic_string@DU?$char_traits@D@std@@V?$allocator@D@2@@std@@@1@AEAV?$tuple@$$V@1@U?$integer_sequence@_K$0A@@1@U?$integer_sequence@_K$S@1@@Z 000000014003e420 f i main.obj
 0001:0003d490       ??$?0VImage@@$0A@@?$weak_ptr@VImage@@@std@@QEAA@AEBV?$shared_ptr@VImage@@@1@@Z 000000014003e490 f i main.obj
 0001:0003d4d0       ??$?0VScenes@@$0A@@?$weak_ptr@VScenes@@@std@@QEAA@AEBV?$shared_ptr@VScenes@@@1@@Z 000000014003e4d0 f i main.obj
 0001:0003d510       ??$?0VShader@@$0A@@?$weak_ptr@VShader@@@std@@QEAA@AEBV?$shared_ptr@VShader@@@1@@Z 000000014003e510 f i main.obj
 0001:0003d550       ??$?0VTexture2D@@$0A@@?$weak_ptr@VTexture2D@@@std@@QEAA@AEBV?$shared_ptr@VTexture2D@@@1@@Z 000000014003e550 f i main.obj
 0001:0003d590       ??$?0_N$$T$0A@@?$pair@_NPEAV?$basic_json@Vmap@std@@Vvector@2@V?$basic_string@DU?$char_traits@D@std@@V?$allocator@D@2@@2@_N_J_KNVallocator@2@Uadl_serializer@json_abi_v3_11_2@nlohmann@@V?$vector@EV?$allocator@E@std@@@2@X@json_abi_v3_11_2@nlohmann@@@std@@QEAA@$$QEA_N$$QEA$$T@Z 000000014003e590 f i main.obj
 0001:0003d5e0       ??$?0_NAEAPEAV?$basic_json@Vmap@std@@Vvector@2@V?$basic_string@DU?$char_traits@D@std@@V?$allocator@D@2@@2@_N_J_KNVallocator@2@Uadl_serializer@json_abi_v3_11_2@nlohmann@@V?$vector@EV?$allocator@E@std@@@2@X@json_abi_v3_11_2@nlohmann@@$0A@@?$pair@_NPEAV?$basic_json@Vmap@std@@Vvector@2@V?$basic_string@DU?$char_traits@D@std@@V?$allocator@D@2@@2@_N_J_KNVallocator@2@Uadl_serializer@json_abi_v3_11_2@nlohmann@@V?$vector@EV?$allocator@E@std@@@2@X@json_abi_v3_11_2@nlohmann@@@std@@QEAA@$$QEA_NAEAPEAV?$basic_json@Vmap@std@@Vvector@2@V?$basic_string@DU?$char_traits@D@std@@V?$allocator@D@2@@2@_N_J_KNVallocator@2@Uadl_serializer@json_abi_v3_11_2@nlohmann@@V?$vector@EV?$allocator@E@std@@@2@X@json_abi_v3_11_2@nlohmann@@@Z 000000014003e5e0 f i main.obj
 0001:0003d630       ??$?0_NPEAV?$basic_json@Vmap@std@@Vvector@2@V?$basic_string@DU?$char_traits@D@std@@V?$allocator@D@2@@2@_N_J_KNVallocator@2@Uadl_serializer@json_abi_v3_11_2@nlohmann@@V?$vector@EV?$allocator@E@std@@@2@X@json_abi_v3_11_2@nlohmann@@$0A@@?$pair@_NPEAV?$basic_json@Vmap@std@@Vvector@2@V?$basic_string@DU?$char_traits@D@std@@V?$allocator@D@2@@2@_N_J_KNVallocator@2@Uadl_serializer@json_abi_v3_11_2@nlohmann@@V?$vector@EV?$allocator@E@std@@@2@X@json_abi_v3_11_2@nlohmann@@@std@@QEAA@$$QEA_N$$QEAPEAV?$basic_json@Vmap@std@@Vvector@2@V?$basic_string@DU?$char_traits@D@std@@V?$allocator@D@2@@2@_N_J_KNVallocator@2@Uadl_serializer@json_abi_v3_11_2@nlohmann@@V?$vector@EV?$allocator@E@std@@@2@X@json_abi_v3_11_2@nlohmann@@@Z 000000014003e630 f i main.obj
 0001:0003d680       ??$?4V?$basic_json@Vmap@std@@Vvector@2@V?$basic_string@DU?$char_traits@D@std@@V?$allocator@D@2@@2@_N_J_KNVallocator@2@Uadl_serializer@json_abi_v3_11_2@nlohmann@@V?$vector@EV?$allocator@E@std@@@2@X@json_abi_v3_11_2@nlohmann@@$0A@@?$basic_string@DU?$char_traits@D@std@@V?$allocator@D@2@@std@@QEAAAEAV01@AEBV?$basic_json@Vmap@std@@Vvector@2@V?$basic_string@DU?$char_traits@D@std@@V?$allocator@D@2@@2@_N_J_KNVallocator@2@Uadl_serializer@json_abi_v3_11_2@nlohmann@@V?$vector@EV?$allocator@E@std@@@2@X@json_abi_v3_11_2@nlohmann@@@Z 000000014003e680 f i main.obj
 0001:0003d6b0       ??$?4VImage@@$0A@@?$weak_ptr@VImage@@@std@@QEAAAEAV01@AEBV?$shared_ptr@VImage@@@1@@Z 000000014003e6b0 f i main.obj
 0001:0003d710       ??$?4VScenes@@$0A@@?$weak_ptr@VScenes@@@std@@QEAAAEAV01@AEBV?$shared_ptr@VScenes@@@1@@Z 000000014003e710 f i main.obj
 0001:0003d770       ??$?4VShader@@$0A@@?$weak_ptr@VShader@@@std@@QEAAAEAV01@AEBV?$shared_ptr@VShader@@@1@@Z 000000014003e770 f i main.obj
 0001:0003d7d0       ??$?4VTexture2D@@$0A@@?$weak_ptr@VTexture2D@@@std@@QEAAAEAV01@AEBV?$shared_ptr@VTexture2D@@@1@@Z 000000014003e7d0 f i main.obj
 0001:0003d830       ??$?6DU?$char_traits@D@std@@V?$allocator@D@1@@std@@YAAEAV?$basic_ostream@DU?$char_traits@D@std@@@0@AEAV10@AEBV?$basic_string@DU?$char_traits@D@std@@V?$allocator@D@2@@0@@Z 000000014003e830 f i main.obj
 0001:0003d890       ??$?6M@@YAAEAV?$basic_ostream@DU?$char_traits@D@std@@@std@@AEAV01@AEBU?$vec3t@M@@@Z 000000014003e890 f i main.obj
 0001:0003d940       ?get_position@?$lexer@V?$basic_json@Vmap@std@@Vvector@2@V?$basic_string@DU?$char_traits@D@std@@V?$allocator@D@2@@2@_N_J_KNVallocator@2@Uadl_serializer@json_abi_v3_11_2@nlohmann@@V?$vector@EV?$allocator@E@std@@@2@X@json_abi_v3_11_2@nlohmann@@Vinput_stream_adapter@detail@23@@detail@json_abi_v3_11_2@nlohmann@@QEBA?AUposition_t@234@XZ 000000014003e940 f i main.obj
 0001:0003d970       ??$?6U?$char_traits@D@std@@@std@@YAAEAV?$basic_ostream@DU?$char_traits@D@std@@@0@AEAV10@PEBD@Z 000000014003e970 f i main.obj
 0001:0003dd80       ?_Clear_and_reserve_geometric@?$vector@U?$vec2t@M@@V?$allocator@U?$vec2t@M@@@std@@@std@@AEAAX_K@Z 000000014003ed80 f i main.obj
 0001:0003de80       ??$?8DU?$char_traits@D@std@@V?$allocator@D@1@@std@@YA_NAEBV?$basic_string@DU?$char_traits@D@std@@V?$allocator@D@2@@0@0@Z 000000014003ee80 f i main.obj
 0001:0003deb0       ??$?8DU?$char_traits@D@std@@V?$allocator@D@1@@std@@YA_NAEBV?$basic_string@DU?$char_traits@D@std@@V?$allocator@D@2@@0@QEBD@Z 000000014003eeb0 f i main.obj
 0001:0003dee0       ??$?8V?$basic_string@DU?$char_traits@D@std@@V?$allocator@D@2@@std@@V<lambda_1>@?1???$create@V?$basic_string@DU?$char_traits@D@std@@V?$allocator@D@2@@std@@AEAY00$$CBD@?$basic_json@Vmap@std@@Vvector@2@V?$basic_string@DU?$char_traits@D@std@@V?$allocator@D@2@@2@_N_J_KNVallocator@2@Uadl_serializer@json_abi_v3_11_2@nlohmann@@V?$vector@EV?$allocator@E@std@@@2@X@json_abi_v3_11_2@nlohmann@@CAPEAV01@AEAY00$$CBD@Z@@std@@YA_NAEBV?$unique_ptr@V?$basic_string@DU?$char_traits@D@std@@V?$allocator@D@2@@std@@V<lambda_1>@?1???$create@V?$basic_string@DU?$char_traits@D@std@@V?$allocator@D@2@@std@@AEAY00$$CBD@?$basic_json@Vmap@std@@Vvector@2@V?$basic_string@DU?$char_traits@D@std@@V?$allocator@D@2@@2@_N_J_KNVallocator@2@Uadl_serializer@json_abi_v3_11_2@nlohmann@@V?$vector@EV?$allocator@E@std@@@2@X@json_abi_v3_11_2@nlohmann@@CAPEAV12@AEAY00$$CBD@Z@@0@$$T@Z 000000014003eee0 f i main.obj
 0001:0003df30       ??$?8V?$basic_string@DU?$char_traits@D@std@@V?$allocator@D@2@@std@@V<lambda_1>@?1???$create@V?$basic_string@DU?$char_traits@D@std@@V?$allocator@D@2@@std@@AEBV12@@?$basic_json@Vmap@std@@Vvector@2@V?$basic_string@DU?$char_traits@D@std@@V?$allocator@D@2@@2@_N_J_KNVallocator@2@Uadl_serializer@json_abi_v3_11_2@nlohmann@@V?$vector@EV?$allocator@E@std@@@2@X@json_abi_v3_11_2@nlohmann@@CAPEAV01@AEBV01@@Z@@std@@YA_NAEBV?$unique_ptr@V?$basic_string@DU?$char_traits@D@std@@V?$allocator@D@2@@std@@V<lambda_1>@?1???$create@V?$basic_string@DU?$char_traits@D@std@@V?$allocator@D@2@@std@@AEBV12@@?$basic_json@Vmap@std@@Vvector@2@V?$basic_string@DU?$char_traits@D@std@@V?$allocator@D@2@@2@_N_J_KNVallocator@2@Uadl_serializer@json_abi_v3_11_2@nlohmann@@V?$vector@EV?$allocator@E@std@@@2@X@json_abi_v3_11_2@nlohmann@@CAPEAV12@AEBV12@@Z@@0@$$T@Z 000000014003ef30 f i main.obj
 0001:0003df80       ??$?8V?$byte_container_with_subtype@V?$vector@EV?$allocator@E@std@@@std@@@json_abi_v3_11_2@nlohmann@@V<lambda_1>@?1???$create@V?$byte_container_with_subtype@V?$vector@EV?$allocator@E@std@@@std@@@json_abi_v3_11_2@nlohmann@@$$V@?$basic_json@Vmap@std@@Vvector@2@V?$basic_string@DU?$char_traits@D@std@@V?$allocator@D@2@@2@_N_J_KNVallocator@2@Uadl_serializer@json_abi_v3_11_2@nlohmann@@V?$vector@EV?$allocator@E@std@@@2@X@12@CAPEAV012@XZ@@std@@YA_NAEBV?$unique_ptr@V?$byte_container_with_subtype@V?$vector@EV?$allocator@E@std@@@std@@@json_abi_v3_11_2@nlohmann@@V<lambda_1>@?1???$create@V?$byte_container_with_subtype@V?$vector@EV?$allocator@E@std@@@std@@@json_abi_v3_11_2@nlohmann@@$$V@?$basic_json@Vmap@std@@Vvector@2@V?$basic_string@DU?$char_traits@D@std@@V?$allocator@D@2@@2@_N_J_KNVallocator@2@Uadl_serializer@json_abi_v3_11_2@nlohmann@@V?$vector@EV?$allocator@E@std@@@2@X@23@CAPEAV123@XZ@@0@$$T@Z 000000014003ef80 f i main.obj
 0001:0003dfd0       ??$?8V?$byte_container_with_subtype@V?$vector@EV?$allocator@E@std@@@std@@@json_abi_v3_11_2@nlohmann@@V<lambda_1>@?1???$create@V?$byte_container_with_subtype@V?$vector@EV?$allocator@E@std@@@std@@@json_abi_v3_11_2@nlohmann@@AEBV123@@?$basic_json@Vmap@std@@Vvector@2@V?$basic_string@DU?$char_traits@D@std@@V?$allocator@D@2@@2@_N_J_KNVallocator@2@Uadl_serializer@json_abi_v3_11_2@nlohmann@@V?$vector@EV?$allocator@E@std@@@2@X@12@CAPEAV012@AEBV012@@Z@@std@@YA_NAEBV?$unique_ptr@V?$byte_container_with_subtype@V?$vector@EV?$allocator@E@std@@@std@@@json_abi_v3_11_2@nlohmann@@V<lambda_1>@?1???$create@V?$byte_container_with_subtype@V?$vector@EV?$allocator@E@std@@@std@@@json_abi_v3_11_2@nlohmann@@AEBV123@@?$basic_json@Vmap@std@@Vvector@2@V?$basic_string@DU?$char_traits@D@std@@V?$allocator@D@2@@2@_N_J_KNVallocator@2@Uadl_serializer@json_abi_v3_11_2@nlohmann@@V?$vector@EV?$allocator@E@std@@@2@X@23@CAPEAV123@AEBV123@@Z@@0@$$T@Z 000000014003efd0 f i main.obj
 0001:0003e020       ??$?8V?$iter_impl@$$CBV?$basic_json@Vmap@std@@Vvector@2@V?$basic_string@DU?$char_traits@D@std@@V?$allocator@D@2@@2@_N_J_KNVallocator@2@Uadl_serializer@json_abi_v3_11_2@nlohmann@@V?$vector@EV?$allocator@E@std@@@2@X@json_abi_v3_11_2@nlohmann@@@detail@json_abi_v3_11_2@nlohmann@@$0A@@?$iter_impl@$$CBV?$basic_json@Vmap@std@@Vvector@2@V?$basic_string@DU?$char_traits@D@std@@V?$allocator@D@2@@2@_N_J_KNVallocator@2@Uadl_serializer@json_abi_v3_11_2@nlohmann@@V?$vector@EV?$allocator@E@std@@@2@X@json_abi_v3_11_2@nlohmann@@@detail@json_abi_v3_11_2@nlohmann@@QEBA_NAEBV0123@@Z 000000014003f020 f i main.obj
 0001:0003e1d0       ?_Dec@?$_Vb_const_iterator@U?$_Wrap_alloc@V?$allocator@I@std@@@std@@@std@@QEAAXXZ 000000014003f1d0 f i main.obj
 0001:0003e230       ??$?8V?$iter_impl@V?$basic_json@Vmap@std@@Vvector@2@V?$basic_string@DU?$char_traits@D@std@@V?$allocator@D@2@@2@_N_J_KNVallocator@2@Uadl_serializer@json_abi_v3_11_2@nlohmann@@V?$vector@EV?$allocator@E@std@@@2@X@json_abi_v3_11_2@nlohmann@@@detail@json_abi_v3_11_2@nlohmann@@$0A@@?$iter_impl@V?$basic_json@Vmap@std@@Vvector@2@V?$basic_string@DU?$char_traits@D@std@@V?$allocator@D@2@@2@_N_J_KNVallocator@2@Uadl_serializer@json_abi_v3_11_2@nlohmann@@V?$vector@EV?$allocator@E@std@@@2@X@json_abi_v3_11_2@nlohmann@@@detail@json_abi_v3_11_2@nlohmann@@QEBA_NAEBV0123@@Z 000000014003f230 f i main.obj
 0001:0003e3e0       ?_Decref@_Ref_count_base@std@@QEAAXXZ 000000014003f3e0 f i main.obj
 0001:0003e440       ??$?8V?$map@V?$basic_string@DU?$char_traits@D@std@@V?$allocator@D@2@@std@@V?$basic_json@Vmap@std@@Vvector@2@V?$basic_string@DU?$char_traits@D@std@@V?$allocator@D@2@@2@_N_J_KNVallocator@2@Uadl_serializer@json_abi_v3_11_2@nlohmann@@V?$vector@EV?$allocator@E@std@@@2@X@json_abi_v3_11_2@nlohmann@@U?$less@X@2@V?$allocator@U?$pair@$$CBV?$basic_string@DU?$char_traits@D@std@@V?$allocator@D@2@@std@@V?$basic_json@Vmap@std@@Vvector@2@V?$basic_string@DU?$char_traits@D@std@@V?$allocator@D@2@@2@_N_J_KNVallocator@2@Uadl_serializer@json_abi_v3_11_2@nlohmann@@V?$vector@EV?$allocator@E@std@@@2@X@json_abi_v3_11_2@nlohmann@@@std@@@2@@std@@V<lambda_1>@?1???$create@V?$map@V?$basic_string@DU?$char_traits@D@std@@V?$allocator@D@2@@std@@V?$basic_json@Vmap@std@@Vvector@2@V?$basic_string@DU?$char_traits@D@std@@V?$allocator@D@2@@2@_N_J_KNVallocator@2@Uadl_serializer@json_abi_v3_11_2@nlohmann@@V?$vector@EV?$allocator@E@std@@@2@X@json_abi_v3_11_2@nlohmann@@U?$less@X@2@V?$allocator@U?$pair@$$CBV?$basic_string@DU?$char_traits@D@std@@V?$allocator@D@2@@std@@V?$basic_json@Vmap@std@@Vvector@2@V?$basic_string@DU?$char_traits@D@std@@V?$allocator@D@2@@2@_N_J_KNVallocator@2@Uadl_serializer@json_abi_v3_11_2@nlohmann@@V?$vector@EV?$allocator@E@std@@@2@X@json_abi_v3_11_2@nlohmann@@@std@@@2@@std@@$$V@?$basic_json@Vmap@std@@Vvector@2@V?$basic_string@DU?$char_traits@D@std@@V?$allocator@D@2@@2@_N_J_KNVallocator@2@Uadl_serializer@json_abi_v3_11_2@nlohmann@@V?$vector@EV?$allocator@E@std@@@2@X@json_abi_v3_11_2@nlohmann@@CAPEAV01@XZ@@std@@YA_NAEBV?$unique_ptr@V?$map@V?$basic_string@DU?$char_traits@D@std@@V?$allocator@D@2@@std@@V?$basic_json@Vmap@std@@Vvector@2@V?$basic_string@DU?$char_traits@D@std@@V?$allocator@D@2@@2@_N_J_KNVallocator@2@Uadl_serializer@json_abi_v3_11_2@nlohmann@@V?$vector@EV?$allocator@E@std@@@2@X@json_abi_v3_11_2@nlohmann@@U?$less@X@2@V?$allocator@U?$pair@$$CBV?$basic_string@DU?$char_traits@D@std@@V?$allocator@D@2@@std@@V?$basic_json@Vmap@std@@Vvector@2@V?$basic_string@DU?$char_traits@D@std@@V?$allocator@D@2@@2@_N_J_KNVallocator@2@Uadl_serializer@json_abi_v3_11_2@nlohmann@@V?$vector@EV?$allocator@E@std@@@2@X@json_abi_v3_11_2@nlohmann@@@std@@@2@@std@@V<lambda_1>@?1???$create@V?$map@V?$basic_string@DU?$char_traits@D@std@@V?$allocator@D@2@@std@@V?$basic_json@Vmap@std@@Vvector@2@V?$basic_string@DU?$char_traits@D@std@@V?$allocator@D@2@@2@_N_J_KNVallocator@2@Uadl_serializer@json_abi_v3_11_2@nlohmann@@V?$vector@EV?$allocator@E@std@@@2@X@json_abi_v3_11_2@nlohmann@@U?$less@X@2@V?$allocator@U?$pair@$$CBV?$basic_string@DU?$char_traits@D@std@@V?$allocator@D@2@@std@@V?$basic_json@Vmap@std@@Vvector@2@V?$basic_string@DU?$char_traits@D@std@@V?$allocator@D@2@@2@_N_J_KNVallocator@2@Uadl_serializer@json_abi_v3_11_2@nlohmann@@V?$vector@EV?$allocator@E@std@@@2@X@json_abi_v3_11_2@nlohmann@@@std@@@2@@std@@$$V@?$basic_json@Vmap@std@@Vvector@2@V?$basic_string@DU?$char_traits@D@std@@V?$allocator@D@2@@2@_N_J_KNVallocator@2@Uadl_serializer@json_abi_v3_11_2@nlohmann@@V?$vector@EV?$allocator@E@std@@@2@X@json_abi_v3_11_2@nlohmann@@CAPEAV12@XZ@@0@$$T@Z 000000014003f440 f i main.obj
 0001:0003e490       ??$?8V?$map@V?$basic_string@DU?$char_traits@D@std@@V?$allocator@D@2@@std@@V?$basic_json@Vmap@std@@Vvector@2@V?$basic_string@DU?$char_traits@D@std@@V?$allocator@D@2@@2@_N_J_KNVallocator@2@Uadl_serializer@json_abi_v3_11_2@nlohmann@@V?$vector@EV?$allocator@E@std@@@2@X@json_abi_v3_11_2@nlohmann@@U?$less@X@2@V?$allocator@U?$pair@$$CBV?$basic_string@DU?$char_traits@D@std@@V?$allocator@D@2@@std@@V?$basic_json@Vmap@std@@Vvector@2@V?$basic_string@DU?$char_traits@D@std@@V?$allocator@D@2@@2@_N_J_KNVallocator@2@Uadl_serializer@json_abi_v3_11_2@nlohmann@@V?$vector@EV?$allocator@E@std@@@2@X@json_abi_v3_11_2@nlohmann@@@std@@@2@@std@@V<lambda_1>@?1???$create@V?$map@V?$basic_string@DU?$char_traits@D@std@@V?$allocator@D@2@@std@@V?$basic_json@Vmap@std@@Vvector@2@V?$basic_string@DU?$char_traits@D@std@@V?$allocator@D@2@@2@_N_J_KNVallocator@2@Uadl_serializer@json_abi_v3_11_2@nlohmann@@V?$vector@EV?$allocator@E@std@@@2@X@json_abi_v3_11_2@nlohmann@@U?$less@X@2@V?$allocator@U?$pair@$$CBV?$basic_string@DU?$char_traits@D@std@@V?$allocator@D@2@@std@@V?$basic_json@Vmap@std@@Vvector@2@V?$basic_string@DU?$char_traits@D@std@@V?$allocator@D@2@@2@_N_J_KNVallocator@2@Uadl_serializer@json_abi_v3_11_2@nlohmann@@V?$vector@EV?$allocator@E@std@@@2@X@json_abi_v3_11_2@nlohmann@@@std@@@2@@std@@AEBV12@@?$basic_json@Vmap@std@@Vvector@2@V?$basic_string@DU?$char_traits@D@std@@V?$allocator@D@2@@2@_N_J_KNVallocator@2@Uadl_serializer@json_abi_v3_11_2@nlohmann@@V?$vector@EV?$allocator@E@std@@@2@X@json_abi_v3_11_2@nlohmann@@CAPEAV01@AEBV01@@Z@@std@@YA_NAEBV?$unique_ptr@V?$map@V?$basic_string@DU?$char_traits@D@std@@V?$allocator@D@2@@std@@V?$basic_json@Vmap@std@@Vvector@2@V?$basic_string@DU?$char_traits@D@std@@V?$allocator@D@2@@2@_N_J_KNVallocator@2@Uadl_serializer@json_abi_v3_11_2@nlohmann@@V?$vector@EV?$allocator@E@std@@@2@X@json_abi_v3_11_2@nlohmann@@U?$less@X@2@V?$allocator@U?$pair@$$CBV?$basic_string@DU?$char_traits@D@std@@V?$allocator@D@2@@std@@V?$basic_json@Vmap@std@@Vvector@2@V?$basic_string@DU?$char_traits@D@std@@V?$allocator@D@2@@2@_N_J_KNVallocator@2@Uadl_serializer@json_abi_v3_11_2@nlohmann@@V?$vector@EV?$allocator@E@std@@@2@X@json_abi_v3_11_2@nlohmann@@@std@@@2@@std@@V<lambda_1>@?1???$create@V?$map@V?$basic_string@DU?$char_traits@D@std@@V?$allocator@D@2@@std@@V?$basic_json@Vmap@std@@Vvector@2@V?$basic_string@DU?$char_traits@D@std@@V?$allocator@D@2@@2@_N_J_KNVallocator@2@Uadl_serializer@json_abi_v3_11_2@nlohmann@@V?$vector@EV?$allocator@E@std@@@2@X@json_abi_v3_11_2@nlohmann@@U?$less@X@2@V?$allocator@U?$pair@$$CBV?$basic_string@DU?$char_traits@D@std@@V?$allocator@D@2@@std@@V?$basic_json@Vmap@std@@Vvector@2@V?$basic_string@DU?$char_traits@D@std@@V?$allocator@D@2@@2@_N_J_KNVallocator@2@Uadl_serializer@json_abi_v3_11_2@nlohmann@@V?$vector@EV?$allocator@E@std@@@2@X@json_abi_v3_11_2@nlohmann@@@std@@@2@@std@@AEBV12@@?$basic_json@Vmap@std@@Vvector@2@V?$basic_string@DU?$char_traits@D@std@@V?$allocator@D@2@@2@_N_J_KNVallocator@2@Uadl_serializer@json_abi_v3_11_2@nlohmann@@V?$vector@EV?$allocator@E@std@@@2@X@json_abi_v3_11_2@nlohmann@@CAPEAV12@AEBV12@@Z@@0@$$T@Z 000000014003f490 f i main.obj
 0001:0003e4e0       ??$?8V?$vector@V?$basic_json@Vmap@std@@Vvector@2@V?$basic_string@DU?$char_traits@D@std@@V?$allocator@D@2@@2@_N_J_KNVallocator@2@Uadl_serializer@json_abi_v3_11_2@nlohmann@@V?$vector@EV?$allocator@E@std@@@2@X@json_abi_v3_11_2@nlohmann@@V?$allocator@V?$basic_json@Vmap@std@@Vvector@2@V?$basic_string@DU?$char_traits@D@std@@V?$allocator@D@2@@2@_N_J_KNVallocator@2@Uadl_serializer@json_abi_v3_11_2@nlohmann@@V?$vector@EV?$allocator@E@std@@@2@X@json_abi_v3_11_2@nlohmann@@@std@@@std@@V<lambda_1>@?1???$create@V?$vector@V?$basic_json@Vmap@std@@Vvector@2@V?$basic_string@DU?$char_traits@D@std@@V?$allocator@D@2@@2@_N_J_KNVallocator@2@Uadl_serializer@json_abi_v3_11_2@nlohmann@@V?$vector@EV?$allocator@E@std@@@2@X@json_abi_v3_11_2@nlohmann@@V?$allocator@V?$basic_json@Vmap@std@@Vvector@2@V?$basic_string@DU?$char_traits@D@std@@V?$allocator@D@2@@2@_N_J_KNVallocator@2@Uadl_serializer@json_abi_v3_11_2@nlohmann@@V?$vector@EV?$allocator@E@std@@@2@X@json_abi_v3_11_2@nlohmann@@@std@@@std@@$$V@?$basic_json@Vmap@std@@Vvector@2@V?$basic_string@DU?$char_traits@D@std@@V?$allocator@D@2@@2@_N_J_KNVallocator@2@Uadl_serializer@json_abi_v3_11_2@nlohmann@@V?$vector@EV?$allocator@E@std@@@2@X@json_abi_v3_11_2@nlohmann@@CAPEAV01@XZ@@std@@YA_NAEBV?$unique_ptr@V?$vector@V?$basic_json@Vmap@std@@Vvector@2@V?$basic_string@DU?$char_traits@D@std@@V?$allocator@D@2@@2@_N_J_KNVallocator@2@Uadl_serializer@json_abi_v3_11_2@nlohmann@@V?$vector@EV?$allocator@E@std@@@2@X@json_abi_v3_11_2@nlohmann@@V?$allocator@V?$basic_json@Vmap@std@@Vvector@2@V?$basic_string@DU?$char_traits@D@std@@V?$allocator@D@2@@2@_N_J_KNVallocator@2@Uadl_serializer@json_abi_v3_11_2@nlohmann@@V?$vector@EV?$allocator@E@std@@@2@X@json_abi_v3_11_2@nlohmann@@@std@@@std@@V<lambda_1>@?1???$create@V?$vector@V?$basic_json@Vmap@std@@Vvector@2@V?$basic_string@DU?$char_traits@D@std@@V?$allocator@D@2@@2@_N_J_KNVallocator@2@Uadl_serializer@json_abi_v3_11_2@nlohmann@@V?$vector@EV?$allocator@E@std@@@2@X@json_abi_v3_11_2@nlohmann@@V?$allocator@V?$basic_json@Vmap@std@@Vvector@2@V?$basic_string@DU?$char_traits@D@std@@V?$allocator@D@2@@2@_N_J_KNVallocator@2@Uadl_serializer@json_abi_v3_11_2@nlohmann@@V?$vector@EV?$allocator@E@std@@@2@X@json_abi_v3_11_2@nlohmann@@@std@@@std@@$$V@?$basic_json@Vmap@std@@Vvector@2@V?$basic_string@DU?$char_traits@D@std@@V?$allocator@D@2@@2@_N_J_KNVallocator@2@Uadl_serializer@json_abi_v3_11_2@nlohmann@@V?$vector@EV?$allocator@E@std@@@2@X@json_abi_v3_11_2@nlohmann@@CAPEAV12@XZ@@0@$$T@Z 000000014003f4e0 f i main.obj
 0001:0003e530       ??$?8V?$vector@V?$basic_json@Vmap@std@@Vvector@2@V?$basic_string@DU?$char_traits@D@std@@V?$allocator@D@2@@2@_N_J_KNVallocator@2@Uadl_serializer@json_abi_v3_11_2@nlohmann@@V?$vector@EV?$allocator@E@std@@@2@X@json_abi_v3_11_2@nlohmann@@V?$allocator@V?$basic_json@Vmap@std@@Vvector@2@V?$basic_string@DU?$char_traits@D@std@@V?$allocator@D@2@@2@_N_J_KNVallocator@2@Uadl_serializer@json_abi_v3_11_2@nlohmann@@V?$vector@EV?$allocator@E@std@@@2@X@json_abi_v3_11_2@nlohmann@@@std@@@std@@V<lambda_1>@?1???$create@V?$vector@V?$basic_json@Vmap@std@@Vvector@2@V?$basic_string@DU?$char_traits@D@std@@V?$allocator@D@2@@2@_N_J_KNVallocator@2@Uadl_serializer@json_abi_v3_11_2@nlohmann@@V?$vector@EV?$allocator@E@std@@@2@X@json_abi_v3_11_2@nlohmann@@V?$allocator@V?$basic_json@Vmap@std@@Vvector@2@V?$basic_string@DU?$char_traits@D@std@@V?$allocator@D@2@@2@_N_J_KNVallocator@2@Uadl_serializer@json_abi_v3_11_2@nlohmann@@V?$vector@EV?$allocator@E@std@@@2@X@json_abi_v3_11_2@nlohmann@@@std@@@std@@AEBV12@@?$basic_json@Vmap@std@@Vvector@2@V?$basic_string@DU?$char_traits@D@std@@V?$allocator@D@2@@2@_N_J_KNVallocator@2@Uadl_serializer@json_abi_v3_11_2@nlohmann@@V?$vector@EV?$allocator@E@std@@@2@X@json_abi_v3_11_2@nlohmann@@CAPEAV01@AEBV01@@Z@@std@@YA_NAEBV?$unique_ptr@V?$vector@V?$basic_json@Vmap@std@@Vvector@2@V?$basic_string@DU?$char_traits@D@std@@V?$allocator@D@2@@2@_N_J_KNVallocator@2@Uadl_serializer@json_abi_v3_11_2@nlohmann@@V?$vector@EV?$allocator@E@std@@@2@X@json_abi_v3_11_2@nlohmann@@V?$allocator@V?$basic_json@Vmap@std@@Vvector@2@V?$basic_string@DU?$char_traits@D@std@@V?$allocator@D@2@@2@_N_J_KNVallocator@2@Uadl_serializer@json_abi_v3_11_2@nlohmann@@V?$vector@EV?$allocator@E@std@@@2@X@json_abi_v3_11_2@nlohmann@@@std@@@std@@V<lambda_1>@?1???$create@V?$vector@V?$basic_json@Vmap@std@@Vvector@2@V?$basic_string@DU?$char_traits@D@std@@V?$allocator@D@2@@2@_N_J_KNVallocator@2@Uadl_serializer@json_abi_v3_11_2@nlohmann@@V?$vector@EV?$allocator@E@std@@@2@X@json_abi_v3_11_2@nlohmann@@V?$allocator@V?$basic_json@Vmap@std@@Vvector@2@V?$basic_string@DU?$char_traits@D@std@@V?$allocator@D@2@@2@_N_J_KNVallocator@2@Uadl_serializer@json_abi_v3_11_2@nlohmann@@V?$vector@EV?$allocator@E@std@@@2@X@json_abi_v3_11_2@nlohmann@@@std@@@std@@AEBV12@@?$basic_json@Vmap@std@@Vvector@2@V?$basic_string@DU?$char_traits@D@std@@V?$allocator@D@2@@2@_N_J_KNVallocator@2@Uadl_serializer@json_abi_v3_11_2@nlohmann@@V?$vector@EV?$allocator@E@std@@@2@X@json_abi_v3_11_2@nlohmann@@CAPEAV12@AEBV12@@Z@@0@$$T@Z 000000014003f530 f i main.obj
 0001:0003e580       ??$?9V?$iter_impl@$$CBV?$basic_json@Vmap@std@@Vvector@2@V?$basic_string@DU?$char_traits@D@std@@V?$allocator@D@2@@2@_N_J_KNVallocator@2@Uadl_serializer@json_abi_v3_11_2@nlohmann@@V?$vector@EV?$allocator@E@std@@@2@X@json_abi_v3_11_2@nlohmann@@@detail@json_abi_v3_11_2@nlohmann@@$0A@@?$iter_impl@$$CBV?$basic_json@Vmap@std@@Vvector@2@V?$basic_string@DU?$char_traits@D@std@@V?$allocator@D@2@@2@_N_J_KNVallocator@2@Uadl_serializer@json_abi_v3_11_2@nlohmann@@V?$vector@EV?$allocator@E@std@@@2@X@json_abi_v3_11_2@nlohmann@@@detail@json_abi_v3_11_2@nlohmann@@QEBA_NAEBV0123@@Z 000000014003f580 f i main.obj
 0001:0003e5d0       ??$?9V?$iter_impl@V?$basic_json@Vmap@std@@Vvector@2@V?$basic_string@DU?$char_traits@D@std@@V?$allocator@D@2@@2@_N_J_KNVallocator@2@Uadl_serializer@json_abi_v3_11_2@nlohmann@@V?$vector@EV?$allocator@E@std@@@2@X@json_abi_v3_11_2@nlohmann@@@detail@json_abi_v3_11_2@nlohmann@@$0A@@?$iter_impl@V?$basic_json@Vmap@std@@Vvector@2@V?$basic_string@DU?$char_traits@D@std@@V?$allocator@D@2@@2@_N_J_KNVallocator@2@Uadl_serializer@json_abi_v3_11_2@nlohmann@@V?$vector@EV?$allocator@E@std@@@2@X@json_abi_v3_11_2@nlohmann@@@detail@json_abi_v3_11_2@nlohmann@@QEBA_NAEBV0123@@Z 000000014003f5d0 f i main.obj
 0001:0003e620       ??$?A$$CBD@?$basic_json@Vmap@std@@Vvector@2@V?$basic_string@DU?$char_traits@D@std@@V?$allocator@D@2@@2@_N_J_KNVallocator@2@Uadl_serializer@json_abi_v3_11_2@nlohmann@@V?$vector@EV?$allocator@E@std@@@2@X@json_abi_v3_11_2@nlohmann@@QEAAAEAV012@PEBD@Z 000000014003f620 f i main.obj
 0001:0003e670       ??$?BH$0A@@?$basic_json@Vmap@std@@Vvector@2@V?$basic_string@DU?$char_traits@D@std@@V?$allocator@D@2@@2@_N_J_KNVallocator@2@Uadl_serializer@json_abi_v3_11_2@nlohmann@@V?$vector@EV?$allocator@E@std@@@2@X@json_abi_v3_11_2@nlohmann@@QEBAHXZ 000000014003f670 f i main.obj
 0001:0003e690       ??$?BM$0A@@?$basic_json@Vmap@std@@Vvector@2@V?$basic_string@DU?$char_traits@D@std@@V?$allocator@D@2@@2@_N_J_KNVallocator@2@Uadl_serializer@json_abi_v3_11_2@nlohmann@@V?$vector@EV?$allocator@E@std@@@2@X@json_abi_v3_11_2@nlohmann@@QEBAMXZ 000000014003f690 f i main.obj
 0001:0003e6b0       ??$?BV?$basic_string@DU?$char_traits@D@std@@V?$allocator@D@2@@std@@$0A@@?$basic_json@Vmap@std@@Vvector@2@V?$basic_string@DU?$char_traits@D@std@@V?$allocator@D@2@@2@_N_J_KNVallocator@2@Uadl_serializer@json_abi_v3_11_2@nlohmann@@V?$vector@EV?$allocator@E@std@@@2@X@json_abi_v3_11_2@nlohmann@@QEBA?AV?$basic_string@DU?$char_traits@D@std@@V?$allocator@D@2@@std@@XZ 000000014003f6b0 f i main.obj
 0001:0003e700       ??$?BV?$basic_string_view@DU?$char_traits@D@std@@@std@@$0A@@?$basic_json@Vmap@std@@Vvector@2@V?$basic_string@DU?$char_traits@D@std@@V?$allocator@D@2@@2@_N_J_KNVallocator@2@Uadl_serializer@json_abi_v3_11_2@nlohmann@@V?$vector@EV?$allocator@E@std@@@2@X@json_abi_v3_11_2@nlohmann@@QEBA?AV?$basic_string_view@DU?$char_traits@D@std@@@std@@XZ 000000014003f700 f i main.obj
 0001:0003e730       ??$?B_N$0A@@?$basic_json@Vmap@std@@Vvector@2@V?$basic_string@DU?$char_traits@D@std@@V?$allocator@D@2@@2@_N_J_KNVallocator@2@Uadl_serializer@json_abi_v3_11_2@nlohmann@@V?$vector@EV?$allocator@E@std@@@2@X@json_abi_v3_11_2@nlohmann@@QEBA_NXZ 000000014003f730 f i main.obj
 0001:0003e750       ??$?CVAnimation@@$0A@@?$shared_ptr@VAnimation@@@std@@QEBAPEAVAnimation@@XZ 000000014003f750 f i main.obj
 0001:0003e770       ??$?CVImage@@$0A@@?$shared_ptr@VImage@@@std@@QEBAPEAVImage@@XZ 000000014003f770 f i main.obj
 0001:0003e790       ??$?CVMaterial@@$0A@@?$shared_ptr@VMaterial@@@std@@QEBAPEAVMaterial@@XZ 000000014003f790 f i main.obj
 0001:0003e7b0       ??$?CVMesh@@$0A@@?$shared_ptr@VMesh@@@std@@QEBAPEAVMesh@@XZ 000000014003f7b0 f i main.obj
 0001:0003e7d0       ??$?CVScenes@@$0A@@?$shared_ptr@VScenes@@@std@@QEBAPEAVScenes@@XZ 000000014003f7d0 f i main.obj
 0001:0003e7f0       ??$?CVShader@@$0A@@?$shared_ptr@VShader@@@std@@QEBAPEAVShader@@XZ 000000014003f7f0 f i main.obj
 0001:0003e810       ??$?CVSkin@@$0A@@?$shared_ptr@VSkin@@@std@@QEBAPEAVSkin@@XZ 000000014003f810 f i main.obj
 0001:0003e830       ??$?CVTexture2D@@$0A@@?$shared_ptr@VTexture2D@@@std@@QEBAPEAVTexture2D@@XZ 000000014003f830 f i main.obj
 0001:0003e850       ??$?HDU?$char_traits@D@std@@V?$allocator@D@1@@std@@YA?AV?$basic_string@DU?$char_traits@D@std@@V?$allocator@D@2@@0@$$QEAV10@0@Z 000000014003f850 f i main.obj
 0001:0003e8b0       ??$?HDU?$char_traits@D@std@@V?$allocator@D@1@@std@@YA?AV?$basic_string@DU?$char_traits@D@std@@V?$allocator@D@2@@0@$$QEAV10@AEBV10@@Z 000000014003f8b0 f i main.obj
 0001:0003e910       ??$?HDU?$char_traits@D@std@@V?$allocator@D@1@@std@@YA?AV?$basic_string@DU?$char_traits@D@std@@V?$allocator@D@2@@0@$$QEAV10@QEBD@Z 000000014003f910 f i main.obj
 0001:0003e970       ??$?HDU?$char_traits@D@std@@V?$allocator@D@1@@std@@YA?AV?$basic_string@DU?$char_traits@D@std@@V?$allocator@D@2@@0@AEBV10@0@Z 000000014003f970 f i main.obj
 0001:0003ea60       ?append@?$basic_string@DU?$char_traits@D@std@@V?$allocator@D@2@@std@@QEAAAEAV12@QEBD@Z 000000014003fa60 f i main.obj
 0001:0003eaa0       ??$?HDU?$char_traits@D@std@@V?$allocator@D@1@@std@@YA?AV?$basic_string@DU?$char_traits@D@std@@V?$allocator@D@2@@0@QEBDAEBV10@@Z 000000014003faa0 f i main.obj
 0001:0003eb70       ?is_number_float@?$basic_json@Vmap@std@@Vvector@2@V?$basic_string@DU?$char_traits@D@std@@V?$allocator@D@2@@2@_N_J_KNVallocator@2@Uadl_serializer@json_abi_v3_11_2@nlohmann@@V?$vector@EV?$allocator@E@std@@@2@X@json_abi_v3_11_2@nlohmann@@QEBA_NXZ 000000014003fb70 f i main.obj
 0001:0003eba0       ??$?RAEAY03$$CBDAEBV?$basic_string@DU?$char_traits@D@std@@V?$allocator@D@2@@std@@@?$less@X@std@@QEBA_NAEAY03$$CBDAEBV?$basic_string@DU?$char_traits@D@std@@V?$allocator@D@2@@1@@Z 000000014003fba0 f i main.obj
 0001:0003ebf0       ??$?RAEAY04$$CBDAEBV?$basic_string@DU?$char_traits@D@std@@V?$allocator@D@2@@std@@@?$less@X@std@@QEBA_NAEAY04$$CBDAEBV?$basic_string@DU?$char_traits@D@std@@V?$allocator@D@2@@1@@Z 000000014003fbf0 f i main.obj
 0001:0003ec40       ??$?RAEAY05$$CBDAEBV?$basic_string@DU?$char_traits@D@std@@V?$allocator@D@2@@std@@@?$less@X@std@@QEBA_NAEAY05$$CBDAEBV?$basic_string@DU?$char_traits@D@std@@V?$allocator@D@2@@1@@Z 000000014003fc40 f i main.obj
 0001:0003ec90       ??$?RAEAY06$$CBDAEBV?$basic_string@DU?$char_traits@D@std@@V?$allocator@D@2@@std@@@?$less@X@std@@QEBA_NAEAY06$$CBDAEBV?$basic_string@DU?$char_traits@D@std@@V?$allocator@D@2@@1@@Z 000000014003fc90 f i main.obj
 0001:0003ece0       ??$?RAEAY07$$CBDAEBV?$basic_string@DU?$char_traits@D@std@@V?$allocator@D@2@@std@@@?$less@X@std@@QEBA_NAEAY07$$CBDAEBV?$basic_string@DU?$char_traits@D@std@@V?$allocator@D@2@@1@@Z 000000014003fce0 f i main.obj
 0001:0003ed30       ??$?RAEAY08$$CBDAEBV?$basic_string@DU?$char_traits@D@std@@V?$allocator@D@2@@std@@@?$less@X@std@@QEBA_NAEAY08$$CBDAEBV?$basic_string@DU?$char_traits@D@std@@V?$allocator@D@2@@1@@Z 000000014003fd30 f i main.obj
 0001:0003ed80       ??$?RAEAY09$$CBDAEBV?$basic_string@DU?$char_traits@D@std@@V?$allocator@D@2@@std@@@?$less@X@std@@QEBA_NAEAY09$$CBDAEBV?$basic_string@DU?$char_traits@D@std@@V?$allocator@D@2@@1@@Z 000000014003fd80 f i main.obj
 0001:0003edd0       ??$?RAEAY0BA@$$CBDAEBV?$basic_string@DU?$char_traits@D@std@@V?$allocator@D@2@@std@@@?$less@X@std@@QEBA_NAEAY0BA@$$CBDAEBV?$basic_string@DU?$char_traits@D@std@@V?$allocator@D@2@@1@@Z 000000014003fdd0 f i main.obj
 0001:0003ee20       ??$?RAEAY0BB@$$CBDAEBV?$basic_string@DU?$char_traits@D@std@@V?$allocator@D@2@@std@@@?$less@X@std@@QEBA_NAEAY0BB@$$CBDAEBV?$basic_string@DU?$char_traits@D@std@@V?$allocator@D@2@@1@@Z 000000014003fe20 f i main.obj
 0001:0003ee70       ??$?RAEAY0BE@$$CBDAEBV?$basic_string@DU?$char_traits@D@std@@V?$allocator@D@2@@std@@@?$less@X@std@@QEBA_NAEAY0BE@$$CBDAEBV?$basic_string@DU?$char_traits@D@std@@V?$allocator@D@2@@1@@Z 000000014003fe70 f i main.obj
 0001:0003eec0       ??$?RAEAY0BF@$$CBDAEBV?$basic_string@DU?$char_traits@D@std@@V?$allocator@D@2@@std@@@?$less@X@std@@QEBA_NAEAY0BF@$$CBDAEBV?$basic_string@DU?$char_traits@D@std@@V?$allocator@D@2@@1@@Z 000000014003fec0 f i main.obj
 0001:0003ef10       ??$?RAEAY0BJ@$$CBDAEBV?$basic_string@DU?$char_traits@D@std@@V?$allocator@D@2@@std@@@?$less@X@std@@QEBA_NAEAY0BJ@$$CBDAEBV?$basic_string@DU?$char_traits@D@std@@V?$allocator@D@2@@1@@Z 000000014003ff10 f i main.obj
 0001:0003ef60       ??$?RAEAY0L@$$CBDAEBV?$basic_string@DU?$char_traits@D@std@@V?$allocator@D@2@@std@@@?$less@X@std@@QEBA_NAEAY0L@$$CBDAEBV?$basic_string@DU?$char_traits@D@std@@V?$allocator@D@2@@1@@Z 000000014003ff60 f i main.obj
 0001:0003efb0       ??$?RAEAY0M@$$CBDAEBV?$basic_string@DU?$char_traits@D@std@@V?$allocator@D@2@@std@@@?$less@X@std@@QEBA_NAEAY0M@$$CBDAEBV?$basic_string@DU?$char_traits@D@std@@V?$allocator@D@2@@1@@Z 000000014003ffb0 f i main.obj
 0001:0003f000       ??$?RAEAY0O@$$CBDAEBV?$basic_string@DU?$char_traits@D@std@@V?$allocator@D@2@@std@@@?$less@X@std@@QEBA_NAEAY0O@$$CBDAEBV?$basic_string@DU?$char_traits@D@std@@V?$allocator@D@2@@1@@Z 0000000140040000 f i main.obj
 0001:0003f050       ??$?RAEAY0P@$$CBDAEBV?$basic_string@DU?$char_traits@D@std@@V?$allocator@D@2@@std@@@?$less@X@std@@QEBA_NAEAY0P@$$CBDAEBV?$basic_string@DU?$char_traits@D@std@@V?$allocator@D@2@@1@@Z 0000000140040050 f i main.obj
 0001:0003f0a0       ??$?RAEBV?$basic_string@DU?$char_traits@D@std@@V?$allocator@D@2@@std@@AEAY03$$CBD@?$less@X@std@@QEBA_NAEBV?$basic_string@DU?$char_traits@D@std@@V?$allocator@D@2@@1@AEAY03$$CBD@Z 00000001400400a0 f i main.obj
 0001:0003f0f0       ??$?RAEBV?$basic_string@DU?$char_traits@D@std@@V?$allocator@D@2@@std@@AEAY04$$CBD@?$less@X@std@@QEBA_NAEBV?$basic_string@DU?$char_traits@D@std@@V?$allocator@D@2@@1@AEAY04$$CBD@Z 00000001400400f0 f i main.obj
 0001:0003f140       ??$?RAEBV?$basic_string@DU?$char_traits@D@std@@V?$allocator@D@2@@std@@AEAY05$$CBD@?$less@X@std@@QEBA_NAEBV?$basic_string@DU?$char_traits@D@std@@V?$allocator@D@2@@1@AEAY05$$CBD@Z 0000000140040140 f i main.obj
 0001:0003f190       ??$?RAEBV?$basic_string@DU?$char_traits@D@std@@V?$allocator@D@2@@std@@AEAY06$$CBD@?$less@X@std@@QEBA_NAEBV?$basic_string@DU?$char_traits@D@std@@V?$allocator@D@2@@1@AEAY06$$CBD@Z 0000000140040190 f i main.obj
 0001:0003f1e0       ??$?RAEBV?$basic_string@DU?$char_traits@D@std@@V?$allocator@D@2@@std@@AEAY07$$CBD@?$less@X@std@@QEBA_NAEBV?$basic_string@DU?$char_traits@D@std@@V?$allocator@D@2@@1@AEAY07$$CBD@Z 00000001400401e0 f i main.obj
 0001:0003f230       ??$?RAEBV?$basic_string@DU?$char_traits@D@std@@V?$allocator@D@2@@std@@AEAY08$$CBD@?$less@X@std@@QEBA_NAEBV?$basic_string@DU?$char_traits@D@std@@V?$allocator@D@2@@1@AEAY08$$CBD@Z 0000000140040230 f i main.obj
 0001:0003f280       ??$?RAEBV?$basic_string@DU?$char_traits@D@std@@V?$allocator@D@2@@std@@AEAY09$$CBD@?$less@X@std@@QEBA_NAEBV?$basic_string@DU?$char_traits@D@std@@V?$allocator@D@2@@1@AEAY09$$CBD@Z 0000000140040280 f i main.obj
 0001:0003f2d0       ??$?RAEBV?$basic_string@DU?$char_traits@D@std@@V?$allocator@D@2@@std@@AEAY0BA@$$CBD@?$less@X@std@@QEBA_NAEBV?$basic_string@DU?$char_traits@D@std@@V?$allocator@D@2@@1@AEAY0BA@$$CBD@Z 00000001400402d0 f i main.obj
 0001:0003f320       ??$?RAEBV?$basic_string@DU?$char_traits@D@std@@V?$allocator@D@2@@std@@AEAY0BB@$$CBD@?$less@X@std@@QEBA_NAEBV?$basic_string@DU?$char_traits@D@std@@V?$allocator@D@2@@1@AEAY0BB@$$CBD@Z 0000000140040320 f i main.obj
 0001:0003f370       ??$?RAEBV?$basic_string@DU?$char_traits@D@std@@V?$allocator@D@2@@std@@AEAY0BE@$$CBD@?$less@X@std@@QEBA_NAEBV?$basic_string@DU?$char_traits@D@std@@V?$allocator@D@2@@1@AEAY0BE@$$CBD@Z 0000000140040370 f i main.obj
 0001:0003f3c0       ??$?RAEBV?$basic_string@DU?$char_traits@D@std@@V?$allocator@D@2@@std@@AEAY0BF@$$CBD@?$less@X@std@@QEBA_NAEBV?$basic_string@DU?$char_traits@D@std@@V?$allocator@D@2@@1@AEAY0BF@$$CBD@Z 00000001400403c0 f i main.obj
 0001:0003f410       ??$?RAEBV?$basic_string@DU?$char_traits@D@std@@V?$allocator@D@2@@std@@AEAY0BJ@$$CBD@?$less@X@std@@QEBA_NAEBV?$basic_string@DU?$char_traits@D@std@@V?$allocator@D@2@@1@AEAY0BJ@$$CBD@Z 0000000140040410 f i main.obj
 0001:0003f460       ??$?RAEBV?$basic_string@DU?$char_traits@D@std@@V?$allocator@D@2@@std@@AEAY0L@$$CBD@?$less@X@std@@QEBA_NAEBV?$basic_string@DU?$char_traits@D@std@@V?$allocator@D@2@@1@AEAY0L@$$CBD@Z 0000000140040460 f i main.obj
 0001:0003f4b0       ??$?RAEBV?$basic_string@DU?$char_traits@D@std@@V?$allocator@D@2@@std@@AEAY0M@$$CBD@?$less@X@std@@QEBA_NAEBV?$basic_string@DU?$char_traits@D@std@@V?$allocator@D@2@@1@AEAY0M@$$CBD@Z 00000001400404b0 f i main.obj
 0001:0003f500       ??$?RAEBV?$basic_string@DU?$char_traits@D@std@@V?$allocator@D@2@@std@@AEAY0O@$$CBD@?$less@X@std@@QEBA_NAEBV?$basic_string@DU?$char_traits@D@std@@V?$allocator@D@2@@1@AEAY0O@$$CBD@Z 0000000140040500 f i main.obj
 0001:0003f550       ??$?RAEBV?$basic_string@DU?$char_traits@D@std@@V?$allocator@D@2@@std@@AEAY0P@$$CBD@?$less@X@std@@QEBA_NAEBV?$basic_string@DU?$char_traits@D@std@@V?$allocator@D@2@@1@AEAY0P@$$CBD@Z 0000000140040550 f i main.obj
 0001:0003f5a0       ??$?RAEBV?$basic_string@DU?$char_traits@D@std@@V?$allocator@D@2@@std@@AEBV01@@?$less@X@std@@QEBA_NAEBV?$basic_string@DU?$char_traits@D@std@@V?$allocator@D@2@@1@0@Z 00000001400405a0 f i main.obj
 0001:0003f5f0       ??$?RV?$basic_json@Vmap@std@@Vvector@2@V?$basic_string@DU?$char_traits@D@std@@V?$allocator@D@2@@2@_N_J_KNVallocator@2@Uadl_serializer@json_abi_v3_11_2@nlohmann@@V?$vector@EV?$allocator@E@std@@@2@X@json_abi_v3_11_2@nlohmann@@AEAH@from_json_fn@detail@json_abi_v3_11_2@nlohmann@@QEBAXAEBV?$basic_json@Vmap@std@@Vvector@2@V?$basic_string@DU?$char_traits@D@std@@V?$allocator@D@2@@2@_N_J_KNVallocator@2@Uadl_serializer@json_abi_v3_11_2@nlohmann@@V?$vector@EV?$allocator@E@std@@@2@X@23@AEAH@Z 00000001400405f0 f i main.obj
 0001:0003f620       ??$?RV?$basic_json@Vmap@std@@Vvector@2@V?$basic_string@DU?$char_traits@D@std@@V?$allocator@D@2@@2@_N_J_KNVallocator@2@Uadl_serializer@json_abi_v3_11_2@nlohmann@@V?$vector@EV?$allocator@E@std@@@2@X@json_abi_v3_11_2@nlohmann@@AEAM@from_json_fn@detail@json_abi_v3_11_2@nlohmann@@QEBAXAEBV?$basic_json@Vmap@std@@Vvector@2@V?$basic_string@DU?$char_traits@D@std@@V?$allocator@D@2@@2@_N_J_KNVallocator@2@Uadl_serializer@json_abi_v3_11_2@nlohmann@@V?$vector@EV?$allocator@E@std@@@2@X@23@AEAM@Z 0000000140040620 f i main.obj
 0001:0003f650       ??$?RV?$basic_json@Vmap@std@@Vvector@2@V?$basic_string@DU?$char_traits@D@std@@V?$allocator@D@2@@2@_N_J_KNVallocator@2@Uadl_serializer@json_abi_v3_11_2@nlohmann@@V?$vector@EV?$allocator@E@std@@@2@X@json_abi_v3_11_2@nlohmann@@AEAN@to_json_fn@detail@json_abi_v3_11_2@nlohmann@@QEBAXAEAV?$basic_json@Vmap@std@@Vvector@2@V?$basic_string@DU?$char_traits@D@std@@V?$allocator@D@2@@2@_N_J_KNVallocator@2@Uadl_serializer@json_abi_v3_11_2@nlohmann@@V?$vector@EV?$allocator@E@std@@@2@X@23@AEAN@Z 0000000140040650 f i main.obj
 0001:0003f690       ??$?RV?$basic_json@Vmap@std@@Vvector@2@V?$basic_string@DU?$char_traits@D@std@@V?$allocator@D@2@@2@_N_J_KNVallocator@2@Uadl_serializer@json_abi_v3_11_2@nlohmann@@V?$vector@EV?$allocator@E@std@@@2@X@json_abi_v3_11_2@nlohmann@@AEAV?$basic_string@DU?$char_traits@D@std@@V?$allocator@D@2@@std@@@from_json_fn@detail@json_abi_v3_11_2@nlohmann@@QEBAXAEBV?$basic_json@Vmap@std@@Vvector@2@V?$basic_string@DU?$char_traits@D@std@@V?$allocator@D@2@@2@_N_J_KNVallocator@2@Uadl_serializer@json_abi_v3_11_2@nlohmann@@V?$vector@EV?$allocator@E@std@@@2@X@23@AEAV?$basic_string@DU?$char_traits@D@std@@V?$allocator@D@2@@std@@@Z 0000000140040690 f i main.obj
 0001:0003f6c0       ??$?RV?$basic_json@Vmap@std@@Vvector@2@V?$basic_string@DU?$char_traits@D@std@@V?$allocator@D@2@@2@_N_J_KNVallocator@2@Uadl_serializer@json_abi_v3_11_2@nlohmann@@V?$vector@EV?$allocator@E@std@@@2@X@json_abi_v3_11_2@nlohmann@@AEAV?$basic_string@DU?$char_traits@D@std@@V?$allocator@D@2@@std@@@to_json_fn@detail@json_abi_v3_11_2@nlohmann@@QEBAXAEAV?$basic_json@Vmap@std@@Vvector@2@V?$basic_string@DU?$char_traits@D@std@@V?$allocator@D@2@@2@_N_J_KNVallocator@2@Uadl_serializer@json_abi_v3_11_2@nlohmann@@V?$vector@EV?$allocator@E@std@@@2@X@23@AEAV?$basic_string@DU?$char_traits@D@std@@V?$allocator@D@2@@std@@@Z 00000001400406c0 f i main.obj
 0001:0003f6f0       ??$?RV?$basic_json@Vmap@std@@Vvector@2@V?$basic_string@DU?$char_traits@D@std@@V?$allocator@D@2@@2@_N_J_KNVallocator@2@Uadl_serializer@json_abi_v3_11_2@nlohmann@@V?$vector@EV?$allocator@E@std@@@2@X@json_abi_v3_11_2@nlohmann@@AEAV?$basic_string_view@DU?$char_traits@D@std@@@std@@@from_json_fn@detail@json_abi_v3_11_2@nlohmann@@QEBAXAEBV?$basic_json@Vmap@std@@Vvector@2@V?$basic_string@DU?$char_traits@D@std@@V?$allocator@D@2@@2@_N_J_KNVallocator@2@Uadl_serializer@json_abi_v3_11_2@nlohmann@@V?$vector@EV?$allocator@E@std@@@2@X@23@AEAV?$basic_string_view@DU?$char_traits@D@std@@@std@@@Z 00000001400406f0 f i main.obj
 0001:0003f720       ??$?RV?$basic_json@Vmap@std@@Vvector@2@V?$basic_string@DU?$char_traits@D@std@@V?$allocator@D@2@@2@_N_J_KNVallocator@2@Uadl_serializer@json_abi_v3_11_2@nlohmann@@V?$vector@EV?$allocator@E@std@@@2@X@json_abi_v3_11_2@nlohmann@@AEA_J@to_json_fn@detail@json_abi_v3_11_2@nlohmann@@QEBAXAEAV?$basic_json@Vmap@std@@Vvector@2@V?$basic_string@DU?$char_traits@D@std@@V?$allocator@D@2@@2@_N_J_KNVallocator@2@Uadl_serializer@json_abi_v3_11_2@nlohmann@@V?$vector@EV?$allocator@E@std@@@2@X@23@AEA_J@Z 0000000140040720 f i main.obj
 0001:0003f760       ??$?RV?$basic_json@Vmap@std@@Vvector@2@V?$basic_string@DU?$char_traits@D@std@@V?$allocator@D@2@@2@_N_J_KNVallocator@2@Uadl_serializer@json_abi_v3_11_2@nlohmann@@V?$vector@EV?$allocator@E@std@@@2@X@json_abi_v3_11_2@nlohmann@@AEA_K@to_json_fn@detail@json_abi_v3_11_2@nlohmann@@QEBAXAEAV?$basic_json@Vmap@std@@Vvector@2@V?$basic_string@DU?$char_traits@D@std@@V?$allocator@D@2@@2@_N_J_KNVallocator@2@Uadl_serializer@json_abi_v3_11_2@nlohmann@@V?$vector@EV?$allocator@E@std@@@2@X@23@AEA_K@Z 0000000140040760 f i main.obj
 0001:0003f7a0       ??$?RV?$basic_json@Vmap@std@@Vvector@2@V?$basic_string@DU?$char_traits@D@std@@V?$allocator@D@2@@2@_N_J_KNVallocator@2@Uadl_serializer@json_abi_v3_11_2@nlohmann@@V?$vector@EV?$allocator@E@std@@@2@X@json_abi_v3_11_2@nlohmann@@AEA_N@from_json_fn@detail@json_abi_v3_11_2@nlohmann@@QEBAXAEBV?$basic_json@Vmap@std@@Vvector@2@V?$basic_string@DU?$char_traits@D@std@@V?$allocator@D@2@@2@_N_J_KNVallocator@2@Uadl_serializer@json_abi_v3_11_2@nlohmann@@V?$vector@EV?$allocator@E@std@@@2@X@23@AEA_N@Z 00000001400407a0 f i main.obj
 0001:0003f7d0       ??$?RV?$basic_json@Vmap@std@@Vvector@2@V?$basic_string@DU?$char_traits@D@std@@V?$allocator@D@2@@2@_N_J_KNVallocator@2@Uadl_serializer@json_abi_v3_11_2@nlohmann@@V?$vector@EV?$allocator@E@std@@@2@X@json_abi_v3_11_2@nlohmann@@AEA_N@to_json_fn@detail@json_abi_v3_11_2@nlohmann@@QEBAXAEAV?$basic_json@Vmap@std@@Vvector@2@V?$basic_string@DU?$char_traits@D@std@@V?$allocator@D@2@@2@_N_J_KNVallocator@2@Uadl_serializer@json_abi_v3_11_2@nlohmann@@V?$vector@EV?$allocator@E@std@@@2@X@23@AEA_N@Z 00000001400407d0 f i main.obj
 0001:0003f810       ??$?YV?$basic_string_view@DU?$char_traits@D@std@@@std@@$0A@@?$basic_string@DU?$char_traits@D@std@@V?$allocator@D@2@@std@@QEAAAEAV01@AEBV?$basic_string_view@DU?$char_traits@D@std@@@1@@Z 0000000140040810 f i main.obj
 0001:0003f840       ??$?__MDU?$char_traits@D@std@@V?$allocator@D@1@@std@@YA?AUstrong_ordering@0@AEBV?$basic_string@DU?$char_traits@D@std@@V?$allocator@D@2@@0@0@Z 0000000140040840 f i main.obj
 0001:0003f920       ??$?__MDU?$char_traits@D@std@@V?$allocator@D@1@@std@@YA?AUstrong_ordering@0@AEBV?$basic_string@DU?$char_traits@D@std@@V?$allocator@D@2@@0@QEBD@Z 0000000140040920 f i main.obj
 0001:0003fa00       ??$AddChild@VActor@@$$V@Node@@QEAAPEAVActor@@XZ 0000000140040a00 f i main.obj
 0001:0003faa0       ?size@?$initializer_list@U?$vec3t@M@@@std@@QEBA_KXZ 0000000140040aa0 f i main.obj
 0001:0003fad0       ??$AddComponent@VAnimationNodeComponent@@$$V@Entity@@QEAAPEAVAnimationNodeComponent@@XZ 0000000140040ad0 f i main.obj
 0001:0003fb90       ??$AddComponent@VMeshComponent@@$$V@Entity@@QEAAPEAVMeshComponent@@XZ 0000000140040b90 f i main.obj
 0001:0003fc50       ??$AddComponent@VScenesComponent@@$$V@Entity@@QEAAPEAVScenesComponent@@XZ 0000000140040c50 f i main.obj
 0001:0003fd10       ??$AddComponent@VSkinComponent@@$$V@Entity@@QEAAPEAVSkinComponent@@XZ 0000000140040d10 f i main.obj
 0001:0003fdd0       ??$GLVaoData@AEAV?$vector@U?$vec2t@M@@V?$allocator@U?$vec2t@M@@@std@@@std@@@@YAXAEAH0AEAV?$vector@U?$vec2t@M@@V?$allocator@U?$vec2t@M@@@std@@@std@@@Z 0000000140040dd0 f i main.obj
 0001:0003ff40       ?_Delete_this@?$_Ref_count_obj2@VAnimation@@@std@@EEAAXXZ 0000000140040f40 f i main.obj
 0001:0003ffa0       ??$GLVaoData@AEAV?$vector@U?$vec2t@M@@V?$allocator@U?$vec2t@M@@@std@@@std@@AEAV12@AEAV12@AEAV12@AEAV?$vector@U?$vec4t@H@@V?$allocator@U?$vec4t@H@@@std@@@2@AEAV?$vector@U?$vec4t@M@@V?$allocator@U?$vec4t@M@@@std@@@2@@@YAXAEAH0AEAV?$vector@U?$vec2t@M@@V?$allocator@U?$vec2t@M@@@std@@@std@@111AEAV?$vector@U?$vec4t@H@@V?$allocator@U?$vec4t@H@@@std@@@1@AEAV?$vector@U?$vec4t@M@@V?$allocator@U?$vec4t@M@@@std@@@1@@Z 0000000140040fa0 f i main.obj
 0001:00040030       ??$GLVaoData@AEAV?$vector@U?$vec2t@M@@V?$allocator@U?$vec2t@M@@@std@@@std@@AEAV12@AEAV12@AEAV?$vector@U?$vec4t@H@@V?$allocator@U?$vec4t@H@@@std@@@2@AEAV?$vector@U?$vec4t@M@@V?$allocator@U?$vec4t@M@@@std@@@2@@@YAXAEAH0AEAV?$vector@U?$vec2t@M@@V?$allocator@U?$vec2t@M@@@std@@@std@@11AEAV?$vector@U?$vec4t@H@@V?$allocator@U?$vec4t@H@@@std@@@1@AEAV?$vector@U?$vec4t@M@@V?$allocator@U?$vec4t@M@@@std@@@1@@Z 0000000140041030 f i main.obj
 0001:000400b0       ??$GLVaoData@AEAV?$vector@U?$vec2t@M@@V?$allocator@U?$vec2t@M@@@std@@@std@@AEAV12@AEAV?$vector@U?$vec4t@H@@V?$allocator@U?$vec4t@H@@@std@@@2@AEAV?$vector@U?$vec4t@M@@V?$allocator@U?$vec4t@M@@@std@@@2@@@YAXAEAH0AEAV?$vector@U?$vec2t@M@@V?$allocator@U?$vec2t@M@@@std@@@std@@1AEAV?$vector@U?$vec4t@H@@V?$allocator@U?$vec4t@H@@@std@@@1@AEAV?$vector@U?$vec4t@M@@V?$allocator@U?$vec4t@M@@@std@@@1@@Z 00000001400410b0 f i main.obj
 0001:00040120       ??$GLVaoData@AEAV?$vector@U?$vec2t@M@@V?$allocator@U?$vec2t@M@@@std@@@std@@AEAV?$vector@U?$vec4t@H@@V?$allocator@U?$vec4t@H@@@std@@@2@AEAV?$vector@U?$vec4t@M@@V?$allocator@U?$vec4t@M@@@std@@@2@@@YAXAEAH0AEAV?$vector@U?$vec2t@M@@V?$allocator@U?$vec2t@M@@@std@@@std@@AEAV?$vector@U?$vec4t@H@@V?$allocator@U?$vec4t@H@@@std@@@1@AEAV?$vector@U?$vec4t@M@@V?$allocator@U?$vec4t@M@@@std@@@1@@Z 0000000140041120 f i main.obj
 0001:00040180       ??$GLVaoData@AEAV?$vector@U?$vec3t@M@@V?$allocator@U?$vec3t@M@@@std@@@std@@@@YAXAEAH0AEAV?$vector@U?$vec3t@M@@V?$allocator@U?$vec3t@M@@@std@@@std@@@Z 0000000140041180 f i main.obj
 0001:000402f0       ?_Delete_this@?$_Ref_count_obj2@VImage@@@std@@EEAAXXZ 00000001400412f0 f i main.obj
 0001:00040350       ??$GLVaoData@AEAV?$vector@U?$vec3t@M@@V?$allocator@U?$vec3t@M@@@std@@@std@@AEAV12@AEAV?$vector@U?$vec4t@M@@V?$allocator@U?$vec4t@M@@@std@@@2@AEAV?$vector@U?$vec2t@M@@V?$allocator@U?$vec2t@M@@@std@@@2@AEAV42@AEAV42@AEAV42@AEAV?$vector@U?$vec4t@H@@V?$allocator@U?$vec4t@H@@@std@@@2@AEAV32@@@YAXAEAH0AEAV?$vector@U?$vec3t@M@@V?$allocator@U?$vec3t@M@@@std@@@std@@1AEAV?$vector@U?$vec4t@M@@V?$allocator@U?$vec4t@M@@@std@@@1@AEAV?$vector@U?$vec2t@M@@V?$allocator@U?$vec2t@M@@@std@@@1@333AEAV?$vector@U?$vec4t@H@@V?$allocator@U?$vec4t@H@@@std@@@1@2@Z 0000000140041350 f i main.obj
 0001:00040420       ??$GLVaoData@AEAV?$vector@U?$vec3t@M@@V?$allocator@U?$vec3t@M@@@std@@@std@@AEAV12@AEAV?$vector@U?$vec4t@M@@V?$allocator@U?$vec4t@M@@@std@@@2@AEAV?$vector@U?$vec2t@M@@V?$allocator@U?$vec2t@M@@@std@@@2@AEAV42@AEAV42@AEAV42@AEAV?$vector@U?$vec4t@H@@V?$allocator@U?$vec4t@H@@@std@@@2@AEAV32@@@YAXAEAV?$vector@U?$vec3t@M@@V?$allocator@U?$vec3t@M@@@std@@@std@@0AEAV?$vector@U?$vec4t@M@@V?$allocator@U?$vec4t@M@@@std@@@1@AEAV?$vector@U?$vec2t@M@@V?$allocator@U?$vec2t@M@@@std@@@1@222AEAV?$vector@U?$vec4t@H@@V?$allocator@U?$vec4t@H@@@std@@@1@1@Z 0000000140041420 f i main.obj
 0001:00040570       ?_Unwrapped@?$_Tree_iterator@V?$_Tree_val@U?$_Tree_simple_types@U?$pair@$$CBV?$basic_string@DU?$char_traits@D@std@@V?$allocator@D@2@@std@@V?$basic_json@Vmap@std@@Vvector@2@V?$basic_string@DU?$char_traits@D@std@@V?$allocator@D@2@@2@_N_J_KNVallocator@2@Uadl_serializer@json_abi_v3_11_2@nlohmann@@V?$vector@EV?$allocator@E@std@@@2@X@json_abi_v3_11_2@nlohmann@@@std@@@std@@@std@@@std@@QEBA?AV?$_Tree_unchecked_iterator@V?$_Tree_val@U?$_Tree_simple_types@U?$pair@$$CBV?$basic_string@DU?$char_traits@D@std@@V?$allocator@D@2@@std@@V?$basic_json@Vmap@std@@Vvector@2@V?$basic_string@DU?$char_traits@D@std@@V?$allocator@D@2@@2@_N_J_KNVallocator@2@Uadl_serializer@json_abi_v3_11_2@nlohmann@@V?$vector@EV?$allocator@E@std@@@2@X@json_abi_v3_11_2@nlohmann@@@std@@@std@@@std@@@2@XZ 0000000140041570 f i main.obj
 0001:000405c0       ??$GLVaoData@AEAV?$vector@U?$vec3t@M@@V?$allocator@U?$vec3t@M@@@std@@@std@@AEAV?$vector@U?$vec4t@M@@V?$allocator@U?$vec4t@M@@@std@@@2@AEAV?$vector@U?$vec2t@M@@V?$allocator@U?$vec2t@M@@@std@@@2@AEAV42@AEAV42@AEAV42@AEAV?$vector@U?$vec4t@H@@V?$allocator@U?$vec4t@H@@@std@@@2@AEAV32@@@YAXAEAH0AEAV?$vector@U?$vec3t@M@@V?$allocator@U?$vec3t@M@@@std@@@std@@AEAV?$vector@U?$vec4t@M@@V?$allocator@U?$vec4t@M@@@std@@@1@AEAV?$vector@U?$vec2t@M@@V?$allocator@U?$vec2t@M@@@std@@@1@333AEAV?$vector@U?$vec4t@H@@V?$allocator@U?$vec4t@H@@@std@@@1@2@Z 00000001400415c0 f i main.obj
 0001:00040680       ??$GLVaoData@AEAV?$vector@U?$vec4t@H@@V?$allocator@U?$vec4t@H@@@std@@@std@@@@YAXAEAH0AEAV?$vector@U?$vec4t@H@@V?$allocator@U?$vec4t@H@@@std@@@std@@@Z 0000000140041680 f i main.obj
 0001:000407f0       ?_Eos@?$basic_string@DU?$char_traits@D@std@@V?$allocator@D@2@@std@@AEAAX_K@Z 00000001400417f0 f i main.obj
 0001:00040850       ??$GLVaoData@AEAV?$vector@U?$vec4t@H@@V?$allocator@U?$vec4t@H@@@std@@@std@@AEAV?$vector@U?$vec4t@M@@V?$allocator@U?$vec4t@M@@@std@@@2@@@YAXAEAH0AEAV?$vector@U?$vec4t@H@@V?$allocator@U?$vec4t@H@@@std@@@std@@AEAV?$vector@U?$vec4t@M@@V?$allocator@U?$vec4t@M@@@std@@@1@@Z 0000000140041850 f i main.obj
 0001:000408b0       ??$GLVaoData@AEAV?$vector@U?$vec4t@M@@V?$allocator@U?$vec4t@M@@@std@@@std@@@@YAXAEAH0AEAV?$vector@U?$vec4t@M@@V?$allocator@U?$vec4t@M@@@std@@@std@@@Z 00000001400418b0 f i main.obj
 0001:00040a20       ?_Maklocwcs@std@@YAPEA_WPEB_W@Z 0000000140041a20 f i main.obj
 0001:00040a80       ??$GLVaoData@AEAV?$vector@U?$vec4t@M@@V?$allocator@U?$vec4t@M@@@std@@@std@@AEAV?$vector@U?$vec2t@M@@V?$allocator@U?$vec2t@M@@@std@@@2@AEAV32@AEAV32@AEAV32@AEAV?$vector@U?$vec4t@H@@V?$allocator@U?$vec4t@H@@@std@@@2@AEAV12@@@YAXAEAH0AEAV?$vector@U?$vec4t@M@@V?$allocator@U?$vec4t@M@@@std@@@std@@AEAV?$vector@U?$vec2t@M@@V?$allocator@U?$vec2t@M@@@std@@@1@222AEAV?$vector@U?$vec4t@H@@V?$allocator@U?$vec4t@H@@@std@@@1@1@Z 0000000140041a80 f i main.obj
 0001:00040b20       ??$GetComponent@VAnimationNodeComponent@@@Entity@@QEAAPEAVAnimationNodeComponent@@XZ 0000000140041b20 f i main.obj
 0001:00040c10       ??$VectorFromFile@G@@YAXAEBV?$basic_string@DU?$char_traits@D@std@@V?$allocator@D@2@@std@@HHAEAV?$vector@GV?$allocator@G@std@@@1@@Z 0000000140041c10 f i main.obj
 0001:00040d10       ??$VectorFromFile@I@@YAXAEBV?$basic_string@DU?$char_traits@D@std@@V?$allocator@D@2@@std@@HHAEAV?$vector@IV?$allocator@I@std@@@1@@Z 0000000140041d10 f i main.obj
 0001:00040e10       ??$VectorFromFile@M@@YAXAEBV?$basic_string@DU?$char_traits@D@std@@V?$allocator@D@2@@std@@HHAEAV?$vector@MV?$allocator@M@std@@@1@@Z 0000000140041e10 f i main.obj
 0001:00040f10       ??$VectorFromFile@U?$quatt@M@@@@YAXAEBV?$basic_string@DU?$char_traits@D@std@@V?$allocator@D@2@@std@@HHAEAV?$vector@U?$quatt@M@@V?$allocator@U?$quatt@M@@@std@@@1@@Z 0000000140041f10 f i main.obj
 0001:00041010       ??$VectorFromFile@U?$vec2t@M@@@@YAXAEBV?$basic_string@DU?$char_traits@D@std@@V?$allocator@D@2@@std@@HHAEAV?$vector@U?$vec2t@M@@V?$allocator@U?$vec2t@M@@@std@@@1@@Z 0000000140042010 f i main.obj
 0001:00041110       ??$VectorFromFile@U?$vec3t@M@@@@YAXAEBV?$basic_string@DU?$char_traits@D@std@@V?$allocator@D@2@@std@@HHAEAV?$vector@U?$vec3t@M@@V?$allocator@U?$vec3t@M@@@std@@@1@@Z 0000000140042110 f i main.obj
 0001:00041210       ??$VectorFromFile@Umat4@@@@YAXAEBV?$basic_string@DU?$char_traits@D@std@@V?$allocator@D@2@@std@@HHAEAV?$vector@Umat4@@V?$allocator@Umat4@@@std@@@1@@Z 0000000140042210 f i main.obj
 0001:00041310       ??$VectorSizeof@AEAV?$vector@U?$vec2t@M@@V?$allocator@U?$vec2t@M@@@std@@@std@@@@YAXAEAHAEAV?$vector@U?$vec2t@M@@V?$allocator@U?$vec2t@M@@@std@@@std@@@Z 0000000140042310 f i main.obj
 0001:00041370       ??$VectorSizeof@AEAV?$vector@U?$vec2t@M@@V?$allocator@U?$vec2t@M@@@std@@@std@@AEAV12@AEAV12@AEAV12@AEAV?$vector@U?$vec4t@H@@V?$allocator@U?$vec4t@H@@@std@@@2@AEAV?$vector@U?$vec4t@M@@V?$allocator@U?$vec4t@M@@@std@@@2@@@YAXAEAHAEAV?$vector@U?$vec2t@M@@V?$allocator@U?$vec2t@M@@@std@@@std@@111AEAV?$vector@U?$vec4t@H@@V?$allocator@U?$vec4t@H@@@std@@@1@AEAV?$vector@U?$vec4t@M@@V?$allocator@U?$vec4t@M@@@std@@@1@@Z 0000000140042370 f i main.obj
 0001:000413e0       ??$VectorSizeof@AEAV?$vector@U?$vec2t@M@@V?$allocator@U?$vec2t@M@@@std@@@std@@AEAV12@AEAV12@AEAV?$vector@U?$vec4t@H@@V?$allocator@U?$vec4t@H@@@std@@@2@AEAV?$vector@U?$vec4t@M@@V?$allocator@U?$vec4t@M@@@std@@@2@@@YAXAEAHAEAV?$vector@U?$vec2t@M@@V?$allocator@U?$vec2t@M@@@std@@@std@@11AEAV?$vector@U?$vec4t@H@@V?$allocator@U?$vec4t@H@@@std@@@1@AEAV?$vector@U?$vec4t@M@@V?$allocator@U?$vec4t@M@@@std@@@1@@Z 00000001400423e0 f i main.obj
 0001:00041450       ??$VectorSizeof@AEAV?$vector@U?$vec2t@M@@V?$allocator@U?$vec2t@M@@@std@@@std@@AEAV12@AEAV?$vector@U?$vec4t@H@@V?$allocator@U?$vec4t@H@@@std@@@2@AEAV?$vector@U?$vec4t@M@@V?$allocator@U?$vec4t@M@@@std@@@2@@@YAXAEAHAEAV?$vector@U?$vec2t@M@@V?$allocator@U?$vec2t@M@@@std@@@std@@1AEAV?$vector@U?$vec4t@H@@V?$allocator@U?$vec4t@H@@@std@@@1@AEAV?$vector@U?$vec4t@M@@V?$allocator@U?$vec4t@M@@@std@@@1@@Z 0000000140042450 f i main.obj
 0001:000414b0       ??$VectorSizeof@AEAV?$vector@U?$vec2t@M@@V?$allocator@U?$vec2t@M@@@std@@@std@@AEAV?$vector@U?$vec4t@H@@V?$allocator@U?$vec4t@H@@@std@@@2@AEAV?$vector@U?$vec4t@M@@V?$allocator@U?$vec4t@M@@@std@@@2@@@YAXAEAHAEAV?$vector@U?$vec2t@M@@V?$allocator@U?$vec2t@M@@@std@@@std@@AEAV?$vector@U?$vec4t@H@@V?$allocator@U?$vec4t@H@@@std@@@1@AEAV?$vector@U?$vec4t@M@@V?$allocator@U?$vec4t@M@@@std@@@1@@Z 00000001400424b0 f i main.obj
 0001:00041500       ??$VectorSizeof@AEAV?$vector@U?$vec3t@M@@V?$allocator@U?$vec3t@M@@@std@@@std@@@@YAXAEAHAEAV?$vector@U?$vec3t@M@@V?$allocator@U?$vec3t@M@@@std@@@std@@@Z 0000000140042500 f i main.obj
 0001:00041560       ??$VectorSizeof@AEAV?$vector@U?$vec3t@M@@V?$allocator@U?$vec3t@M@@@std@@@std@@AEAV12@AEAV?$vector@U?$vec4t@M@@V?$allocator@U?$vec4t@M@@@std@@@2@AEAV?$vector@U?$vec2t@M@@V?$allocator@U?$vec2t@M@@@std@@@2@AEAV42@AEAV42@AEAV42@AEAV?$vector@U?$vec4t@H@@V?$allocator@U?$vec4t@H@@@std@@@2@AEAV32@@@YAXAEAHAEAV?$vector@U?$vec3t@M@@V?$allocator@U?$vec3t@M@@@std@@@std@@1AEAV?$vector@U?$vec4t@M@@V?$allocator@U?$vec4t@M@@@std@@@1@AEAV?$vector@U?$vec2t@M@@V?$allocator@U?$vec2t@M@@@std@@@1@333AEAV?$vector@U?$vec4t@H@@V?$allocator@U?$vec4t@H@@@std@@@1@2@Z 0000000140042560 f i main.obj
 0001:00041610       ??$VectorSizeof@AEAV?$vector@U?$vec3t@M@@V?$allocator@U?$vec3t@M@@@std@@@std@@AEAV?$vector@U?$vec4t@M@@V?$allocator@U?$vec4t@M@@@std@@@2@AEAV?$vector@U?$vec2t@M@@V?$allocator@U?$vec2t@M@@@std@@@2@AEAV42@AEAV42@AEAV42@AEAV?$vector@U?$vec4t@H@@V?$allocator@U?$vec4t@H@@@std@@@2@AEAV32@@@YAXAEAHAEAV?$vector@U?$vec3t@M@@V?$allocator@U?$vec3t@M@@@std@@@std@@AEAV?$vector@U?$vec4t@M@@V?$allocator@U?$vec4t@M@@@std@@@1@AEAV?$vector@U?$vec2t@M@@V?$allocator@U?$vec2t@M@@@std@@@1@333AEAV?$vector@U?$vec4t@H@@V?$allocator@U?$vec4t@H@@@std@@@1@2@Z 0000000140042610 f i main.obj
 0001:000416b0       ??$VectorSizeof@AEAV?$vector@U?$vec4t@H@@V?$allocator@U?$vec4t@H@@@std@@@std@@@@YAXAEAHAEAV?$vector@U?$vec4t@H@@V?$allocator@U?$vec4t@H@@@std@@@std@@@Z 00000001400426b0 f i main.obj
 0001:00041710       ??$VectorSizeof@AEAV?$vector@U?$vec4t@H@@V?$allocator@U?$vec4t@H@@@std@@@std@@AEAV?$vector@U?$vec4t@M@@V?$allocator@U?$vec4t@M@@@std@@@2@@@YAXAEAHAEAV?$vector@U?$vec4t@H@@V?$allocator@U?$vec4t@H@@@std@@@std@@AEAV?$vector@U?$vec4t@M@@V?$allocator@U?$vec4t@M@@@std@@@1@@Z 0000000140042710 f i main.obj
 0001:00041760       ??$VectorSizeof@AEAV?$vector@U?$vec4t@M@@V?$allocator@U?$vec4t@M@@@std@@@std@@@@YAXAEAHAEAV?$vector@U?$vec4t@M@@V?$allocator@U?$vec4t@M@@@std@@@std@@@Z 0000000140042760 f i main.obj
 0001:000417c0       ??$VectorSizeof@AEAV?$vector@U?$vec4t@M@@V?$allocator@U?$vec4t@M@@@std@@@std@@AEAV?$vector@U?$vec2t@M@@V?$allocator@U?$vec2t@M@@@std@@@2@AEAV32@AEAV32@AEAV32@AEAV?$vector@U?$vec4t@H@@V?$allocator@U?$vec4t@H@@@std@@@2@AEAV12@@@YAXAEAHAEAV?$vector@U?$vec4t@M@@V?$allocator@U?$vec4t@M@@@std@@@std@@AEAV?$vector@U?$vec2t@M@@V?$allocator@U?$vec2t@M@@@std@@@1@222AEAV?$vector@U?$vec4t@H@@V?$allocator@U?$vec4t@H@@@std@@@1@1@Z 00000001400427c0 f i main.obj
 0001:00041850       ??$_Adl_verify_range@PEADPEAD@std@@YAXAEBQEAD0@Z 0000000140042850 f i main.obj
 0001:00041860       ??$_Adl_verify_range@V?$_Vb_iterator@U?$_Wrap_alloc@V?$allocator@I@std@@@std@@@std@@V12@@std@@YAXAEBV?$_Vb_iterator@U?$_Wrap_alloc@V?$allocator@I@std@@@std@@@0@0@Z 0000000140042860 f i main.obj
 0001:00041870       ??$_Adl_verify_range@V?$_Vector_const_iterator@V?$_Vector_val@U?$_Simple_types@U?$pair@V?$basic_string@DU?$char_traits@D@std@@V?$allocator@D@2@@std@@H@std@@@std@@@std@@@std@@V12@@std@@YAXAEBV?$_Vector_const_iterator@V?$_Vector_val@U?$_Simple_types@U?$pair@V?$basic_string@DU?$char_traits@D@std@@V?$allocator@D@2@@std@@H@std@@@std@@@std@@@0@0@Z 0000000140042870 f i main.obj
 0001:00041880       ??$_Adl_verify_range@V?$_Vector_iterator@V?$_Vector_val@U?$_Simple_types@G@std@@@std@@@std@@V12@@std@@YAXAEBV?$_Vector_iterator@V?$_Vector_val@U?$_Simple_types@G@std@@@std@@@0@0@Z 0000000140042880 f i main.obj
 0001:00041890       ??$_Adl_verify_range@V?$_Vector_iterator@V?$_Vector_val@U?$_Simple_types@V?$basic_json@Vmap@std@@Vvector@2@V?$basic_string@DU?$char_traits@D@std@@V?$allocator@D@2@@2@_N_J_KNVallocator@2@Uadl_serializer@json_abi_v3_11_2@nlohmann@@V?$vector@EV?$allocator@E@std@@@2@X@json_abi_v3_11_2@nlohmann@@@std@@@std@@@std@@V12@@std@@YAXAEBV?$_Vector_iterator@V?$_Vector_val@U?$_Simple_types@V?$basic_json@Vmap@std@@Vvector@2@V?$basic_string@DU?$char_traits@D@std@@V?$allocator@D@2@@2@_N_J_KNVallocator@2@Uadl_serializer@json_abi_v3_11_2@nlohmann@@V?$vector@EV?$allocator@E@std@@@2@X@json_abi_v3_11_2@nlohmann@@@std@@@std@@@0@0@Z 0000000140042890 f i main.obj
 0001:000418a0       ??$_Allocate@$0BA@U_Default_allocate_traits@std@@$0A@@std@@YAPEAX_K@Z 00000001400428a0 f i main.obj
 0001:00041900       ??$_Allocate_manually_vector_aligned@U_Default_allocate_traits@std@@@std@@YAPEAX_K@Z 0000000140042900 f i main.obj
 0001:000419b0       ??$_Allocators_equal@V?$allocator@D@std@@@std@@YA_NAEBV?$allocator@D@0@0@Z 00000001400429b0 f i main.obj
 0001:000419c0       ??$_Assign_counted_range@PEAH@?$vector@HV?$allocator@H@std@@@std@@AEAAXPEAH_K@Z 00000001400429c0 f i main.obj
 0001:00041c10       ?_Eos@?$basic_string@_WU?$char_traits@_W@std@@V?$allocator@_W@2@@std@@AEAAX_K@Z 0000000140042c10 f i main.obj
 0001:00041ca0       ??$_Assign_counted_range@PEBU?$vec2t@M@@@?$vector@U?$vec2t@M@@V?$allocator@U?$vec2t@M@@@std@@@std@@AEAAXPEBU?$vec2t@M@@_K@Z 0000000140042ca0 f i main.obj
 0001:00041ef0       ?_Incref_nz@_Ref_count_base@std@@QEAA_NXZ 0000000140042ef0 f i main.obj
 0001:00041f80       ??$_Assign_counted_range@PEBU?$vec3t@M@@@?$vector@U?$vec3t@M@@V?$allocator@U?$vec3t@M@@@std@@@std@@AEAAXPEBU?$vec3t@M@@_K@Z 0000000140042f80 f i main.obj
 0001:000421e0       ?_Reset_back@?$basic_filebuf@DU?$char_traits@D@std@@@std@@AEAAXXZ 00000001400431e0 f i main.obj
 0001:00042270       ??$_Bit_cast@_KT_Addr_storage@error_category@std@@$0A@@std@@YA_KAEBT_Addr_storage@error_category@0@@Z 0000000140043270 f i main.obj
 0001:000422a0       ??$_Buyheadnode@V?$allocator@U?$_Tree_node@U?$pair@$$CBV?$basic_string@DU?$char_traits@D@std@@V?$allocator@D@2@@std@@PEAUmat4@@@std@@PEAX@std@@@std@@@?$_Tree_node@U?$pair@$$CBV?$basic_string@DU?$char_traits@D@std@@V?$allocator@D@2@@std@@PEAUmat4@@@std@@PEAX@std@@SAPEAU01@AEAV?$allocator@U?$_Tree_node@U?$pair@$$CBV?$basic_string@DU?$char_traits@D@std@@V?$allocator@D@2@@std@@PEAUmat4@@@std@@PEAX@std@@@1@@Z 00000001400432a0 f i main.obj
 0001:00042340       ??$_Buyheadnode@V?$allocator@U?$_Tree_node@U?$pair@$$CBV?$basic_string@DU?$char_traits@D@std@@V?$allocator@D@2@@std@@V?$basic_json@Vmap@std@@Vvector@2@V?$basic_string@DU?$char_traits@D@std@@V?$allocator@D@2@@2@_N_J_KNVallocator@2@Uadl_serializer@json_abi_v3_11_2@nlohmann@@V?$vector@EV?$allocator@E@std@@@2@X@json_abi_v3_11_2@nlohmann@@@std@@PEAX@std@@@std@@@?$_Tree_node@U?$pair@$$CBV?$basic_string@DU?$char_traits@D@std@@V?$allocator@D@2@@std@@V?$basic_json@Vmap@std@@Vvector@2@V?$basic_string@DU?$char_traits@D@std@@V?$allocator@D@2@@2@_N_J_KNVallocator@2@Uadl_serializer@json_abi_v3_11_2@nlohmann@@V?$vector@EV?$allocator@E@std@@@2@X@json_abi_v3_11_2@nlohmann@@@std@@PEAX@std@@SAPEAU01@AEAV?$allocator@U?$_Tree_node@U?$pair@$$CBV?$basic_string@DU?$char_traits@D@std@@V?$allocator@D@2@@std@@V?$basic_json@Vmap@std@@Vvector@2@V?$basic_string@DU?$char_traits@D@std@@V?$allocator@D@2@@2@_N_J_KNVallocator@2@Uadl_serializer@json_abi_v3_11_2@nlohmann@@V?$vector@EV?$allocator@E@std@@@2@X@json_abi_v3_11_2@nlohmann@@@std@@PEAX@std@@@1@@Z 0000000140043340 f i main.obj
 0001:000423e0       ??$_Buyheadnode@V?$allocator@U?$_Tree_node@U?$pair@$$CBV?$basic_string@DU?$char_traits@D@std@@V?$allocator@D@2@@std@@V?$weak_ptr@VImage@@@2@@std@@PEAX@std@@@std@@@?$_Tree_node@U?$pair@$$CBV?$basic_string@DU?$char_traits@D@std@@V?$allocator@D@2@@std@@V?$weak_ptr@VImage@@@2@@std@@PEAX@std@@SAPEAU01@AEAV?$allocator@U?$_Tree_node@U?$pair@$$CBV?$basic_string@DU?$char_traits@D@std@@V?$allocator@D@2@@std@@V?$weak_ptr@VImage@@@2@@std@@PEAX@std@@@1@@Z 00000001400433e0 f i main.obj
 0001:00042480       ??$_Buyheadnode@V?$allocator@U?$_Tree_node@U?$pair@$$CBV?$basic_string@DU?$char_traits@D@std@@V?$allocator@D@2@@std@@V?$weak_ptr@VScenes@@@2@@std@@PEAX@std@@@std@@@?$_Tree_node@U?$pair@$$CBV?$basic_string@DU?$char_traits@D@std@@V?$allocator@D@2@@std@@V?$weak_ptr@VScenes@@@2@@std@@PEAX@std@@SAPEAU01@AEAV?$allocator@U?$_Tree_node@U?$pair@$$CBV?$basic_string@DU?$char_traits@D@std@@V?$allocator@D@2@@std@@V?$weak_ptr@VScenes@@@2@@std@@PEAX@std@@@1@@Z 0000000140043480 f i main.obj
 0001:00042520       ??$_Buyheadnode@V?$allocator@U?$_Tree_node@U?$pair@$$CBV?$basic_string@DU?$char_traits@D@std@@V?$allocator@D@2@@std@@V?$weak_ptr@VShader@@@2@@std@@PEAX@std@@@std@@@?$_Tree_node@U?$pair@$$CBV?$basic_string@DU?$char_traits@D@std@@V?$allocator@D@2@@std@@V?$weak_ptr@VShader@@@2@@std@@PEAX@std@@SAPEAU01@AEAV?$allocator@U?$_Tree_node@U?$pair@$$CBV?$basic_string@DU?$char_traits@D@std@@V?$allocator@D@2@@std@@V?$weak_ptr@VShader@@@2@@std@@PEAX@std@@@1@@Z 0000000140043520 f i main.obj
 0001:000425c0       ??$_Buyheadnode@V?$allocator@U?$_Tree_node@U?$pair@$$CBV?$basic_string@DU?$char_traits@D@std@@V?$allocator@D@2@@std@@V?$weak_ptr@VTexture2D@@@2@@std@@PEAX@std@@@std@@@?$_Tree_node@U?$pair@$$CBV?$basic_string@DU?$char_traits@D@std@@V?$allocator@D@2@@std@@V?$weak_ptr@VTexture2D@@@2@@std@@PEAX@std@@SAPEAU01@AEAV?$allocator@U?$_Tree_node@U?$pair@$$CBV?$basic_string@DU?$char_traits@D@std@@V?$allocator@D@2@@std@@V?$weak_ptr@VTexture2D@@@2@@std@@PEAX@std@@@1@@Z 00000001400435c0 f i main.obj
 0001:00042660       ??$_Buynode@AEAU?$pair@$$CBV?$basic_string@DU?$char_traits@D@std@@V?$allocator@D@2@@std@@V?$basic_json@Vmap@std@@Vvector@2@V?$basic_string@DU?$char_traits@D@std@@V?$allocator@D@2@@2@_N_J_KNVallocator@2@Uadl_serializer@json_abi_v3_11_2@nlohmann@@V?$vector@EV?$allocator@E@std@@@2@X@json_abi_v3_11_2@nlohmann@@@std@@@?$_Tree@V?$_Tmap_traits@V?$basic_string@DU?$char_traits@D@std@@V?$allocator@D@2@@std@@V?$basic_json@Vmap@std@@Vvector@2@V?$basic_string@DU?$char_traits@D@std@@V?$allocator@D@2@@2@_N_J_KNVallocator@2@Uadl_serializer@json_abi_v3_11_2@nlohmann@@V?$vector@EV?$allocator@E@std@@@2@X@json_abi_v3_11_2@nlohmann@@U?$less@X@2@V?$allocator@U?$pair@$$CBV?$basic_string@DU?$char_traits@D@std@@V?$allocator@D@2@@std@@V?$basic_json@Vmap@std@@Vvector@2@V?$basic_string@DU?$char_traits@D@std@@V?$allocator@D@2@@2@_N_J_KNVallocator@2@Uadl_serializer@json_abi_v3_11_2@nlohmann@@V?$vector@EV?$allocator@E@std@@@2@X@json_abi_v3_11_2@nlohmann@@@std@@@2@$0A@@std@@@std@@IEAAPEAU?$_Tree_node@U?$pair@$$CBV?$basic_string@DU?$char_traits@D@std@@V?$allocator@D@2@@std@@V?$basic_json@Vmap@std@@Vvector@2@V?$basic_string@DU?$char_traits@D@std@@V?$allocator@D@2@@2@_N_J_KNVallocator@2@Uadl_serializer@json_abi_v3_11_2@nlohmann@@V?$vector@EV?$allocator@E@std@@@2@X@json_abi_v3_11_2@nlohmann@@@std@@PEAX@1@AEAU?$pair@$$CBV?$basic_string@DU?$char_traits@D@std@@V?$allocator@D@2@@std@@V?$basic_json@Vmap@std@@Vvector@2@V?$basic_string@DU?$char_traits@D@std@@V?$allocator@D@2@@2@_N_J_KNVallocator@2@Uadl_serializer@json_abi_v3_11_2@nlohmann@@V?$vector@EV?$allocator@E@std@@@2@X@json_abi_v3_11_2@nlohmann@@@1@@Z 0000000140043660 f i main.obj
 0001:000426c0       ??$_Buynode@V?$allocator@U?$_Tree_node@U?$pair@$$CBV?$basic_string@DU?$char_traits@D@std@@V?$allocator@D@2@@std@@V?$basic_json@Vmap@std@@Vvector@2@V?$basic_string@DU?$char_traits@D@std@@V?$allocator@D@2@@2@_N_J_KNVallocator@2@Uadl_serializer@json_abi_v3_11_2@nlohmann@@V?$vector@EV?$allocator@E@std@@@2@X@json_abi_v3_11_2@nlohmann@@@std@@PEAX@std@@@std@@AEAU?$pair@$$CBV?$basic_string@DU?$char_traits@D@std@@V?$allocator@D@2@@std@@V?$basic_json@Vmap@std@@Vvector@2@V?$basic_string@DU?$char_traits@D@std@@V?$allocator@D@2@@2@_N_J_KNVallocator@2@Uadl_serializer@json_abi_v3_11_2@nlohmann@@V?$vector@EV?$allocator@E@std@@@2@X@json_abi_v3_11_2@nlohmann@@@2@@?$_Tree_node@U?$pair@$$CBV?$basic_string@DU?$char_traits@D@std@@V?$allocator@D@2@@std@@V?$basic_json@Vmap@std@@Vvector@2@V?$basic_string@DU?$char_traits@D@std@@V?$allocator@D@2@@2@_N_J_KNVallocator@2@Uadl_serializer@json_abi_v3_11_2@nlohmann@@V?$vector@EV?$allocator@E@std@@@2@X@json_abi_v3_11_2@nlohmann@@@std@@PEAX@std@@SAPEAU01@AEAV?$allocator@U?$_Tree_node@U?$pair@$$CBV?$basic_string@DU?$char_traits@D@std@@V?$allocator@D@2@@std@@V?$basic_json@Vmap@std@@Vvector@2@V?$basic_string@DU?$char_traits@D@std@@V?$allocator@D@2@@2@_N_J_KNVallocator@2@Uadl_serializer@json_abi_v3_11_2@nlohmann@@V?$vector@EV?$allocator@E@std@@@2@X@json_abi_v3_11_2@nlohmann@@@std@@PEAX@std@@@1@PEAU01@AEAU?$pair@$$CBV?$basic_string@DU?$char_traits@D@std@@V?$allocator@D@2@@std@@V?$basic_json@Vmap@std@@Vvector@2@V?$basic_string@DU?$char_traits@D@std@@V?$allocator@D@2@@2@_N_J_KNVallocator@2@Uadl_serializer@json_abi_v3_11_2@nlohmann@@V?$vector@EV?$allocator@E@std@@@2@X@json_abi_v3_11_2@nlohmann@@@1@@Z 00000001400436c0 f i main.obj
 0001:000427c0       ??$_Construct@$00PEAD@?$basic_string@DU?$char_traits@D@std@@V?$allocator@D@2@@std@@AEAAXQEAD_K@Z 00000001400437c0 f i main.obj
 0001:000429a0       ?_Reset_copy@?$_Func_class@_NHW4parse_event_t@detail@json_abi_v3_11_2@nlohmann@@AEAV?$basic_json@Vmap@std@@Vvector@2@V?$basic_string@DU?$char_traits@D@std@@V?$allocator@D@2@@2@_N_J_KNVallocator@2@Uadl_serializer@json_abi_v3_11_2@nlohmann@@V?$vector@EV?$allocator@E@std@@@2@X@34@@std@@IEAAXAEBV12@@Z 00000001400439a0 f i main.obj
 0001:00042a10       ??$_Construct@$00PEBD@?$basic_string@DU?$char_traits@D@std@@V?$allocator@D@2@@std@@AEAAXQEBD_K@Z 0000000140043a10 f i main.obj
 0001:00042bf0       ?_Throw_system_error@std@@YAXW4errc@1@@Z 0000000140043bf0 f i main.obj
 0001:00042c60       ??$_Construct@$01PEBD@?$basic_string@DU?$char_traits@D@std@@V?$allocator@D@2@@std@@AEAAXQEBD_K@Z 0000000140043c60 f i main.obj
 0001:00042e00       ?_Throw_system_error_from_std_win_error@std@@YAXW4__std_win_error@@@Z 0000000140043e00 f i main.obj
 0001:00042e60       ??$_Construct@$01PEB_W@?$basic_string@_WU?$char_traits@_W@std@@V?$allocator@_W@2@@std@@AEAAXQEB_W_K@Z 0000000140043e60 f i main.obj
 0001:00043000       ?allocate@?$_Default_allocator_traits@V?$allocator@V?$basic_string@DU?$char_traits@D@std@@V?$allocator@D@2@@std@@@std@@@std@@SAPEAV?$basic_string@DU?$char_traits@D@std@@V?$allocator@D@2@@2@AEAV?$allocator@V?$basic_string@DU?$char_traits@D@std@@V?$allocator@D@2@@std@@@2@_K@Z 0000000140044000 f i main.obj
 0001:00043060       ??$_Construct_from_weak@VImage@@@?$_Ptr_base@VImage@@@std@@IEAA_NAEBV?$weak_ptr@VImage@@@1@@Z 0000000140044060 f i main.obj
 0001:000430e0       ??$_Construct_from_weak@VScenes@@@?$_Ptr_base@VScenes@@@std@@IEAA_NAEBV?$weak_ptr@VScenes@@@1@@Z 00000001400440e0 f i main.obj
 0001:00043160       ??$_Construct_from_weak@VShader@@@?$_Ptr_base@VShader@@@std@@IEAA_NAEBV?$weak_ptr@VShader@@@1@@Z 0000000140044160 f i main.obj
 0001:000431e0       ??$_Construct_from_weak@VTexture2D@@@?$_Ptr_base@VTexture2D@@@std@@IEAA_NAEBV?$weak_ptr@VTexture2D@@@1@@Z 00000001400441e0 f i main.obj
 0001:00043260       ??$_Construct_in_place@DD@std@@YAXAEAD$$QEAD@Z 0000000140044260 f i main.obj
 0001:000432f0       ??$_Construct_in_place@HAEBH@std@@YAXAEAHAEBH@Z 00000001400442f0 f i main.obj
 0001:00043380       ??$_Construct_in_place@HH@std@@YAXAEAH$$QEAH@Z 0000000140044380 f i main.obj
 0001:00043410       ??$_Construct_in_place@MM@std@@YAXAEAM$$QEAM@Z 0000000140044410 f i main.obj
 0001:000434a0       ??$_Construct_in_place@PEADAEAPEAD@std@@YAXAEAPEAD0@Z 00000001400444a0 f i main.obj
 0001:00043530       ??$_Construct_in_place@PEADAEBQEAD@std@@YAXAEAPEADAEBQEAD@Z 0000000140044530 f i main.obj
 0001:000435c0       ??$_Construct_in_place@PEAU?$_Tree_node@U?$pair@$$CBV?$basic_string@DU?$char_traits@D@std@@V?$allocator@D@2@@std@@PEAUmat4@@@std@@PEAX@std@@AEAPEAU12@@std@@YAXAEAPEAU?$_Tree_node@U?$pair@$$CBV?$basic_string@DU?$char_traits@D@std@@V?$allocator@D@2@@std@@PEAUmat4@@@std@@PEAX@0@0@Z 00000001400445c0 f i main.obj
 0001:00043650       ??$_Construct_in_place@PEAU?$_Tree_node@U?$pair@$$CBV?$basic_string@DU?$char_traits@D@std@@V?$allocator@D@2@@std@@PEAUmat4@@@std@@PEAX@std@@AEBQEAU12@@std@@YAXAEAPEAU?$_Tree_node@U?$pair@$$CBV?$basic_string@DU?$char_traits@D@std@@V?$allocator@D@2@@std@@PEAUmat4@@@std@@PEAX@0@AEBQEAU10@@Z 0000000140044650 f i main.obj
 0001:000436e0       ??$_Construct_in_place@PEAU?$_Tree_node@U?$pair@$$CBV?$basic_string@DU?$char_traits@D@std@@V?$allocator@D@2@@std@@V?$basic_json@Vmap@std@@Vvector@2@V?$basic_string@DU?$char_traits@D@std@@V?$allocator@D@2@@2@_N_J_KNVallocator@2@Uadl_serializer@json_abi_v3_11_2@nlohmann@@V?$vector@EV?$allocator@E@std@@@2@X@json_abi_v3_11_2@nlohmann@@@std@@PEAX@std@@AEAPEAU12@@std@@YAXAEAPEAU?$_Tree_node@U?$pair@$$CBV?$basic_string@DU?$char_traits@D@std@@V?$allocator@D@2@@std@@V?$basic_json@Vmap@std@@Vvector@2@V?$basic_string@DU?$char_traits@D@std@@V?$allocator@D@2@@2@_N_J_KNVallocator@2@Uadl_serializer@json_abi_v3_11_2@nlohmann@@V?$vector@EV?$allocator@E@std@@@2@X@json_abi_v3_11_2@nlohmann@@@std@@PEAX@0@0@Z 00000001400446e0 f i main.obj
 0001:00043770       ??$_Construct_in_place@PEAU?$_Tree_node@U?$pair@$$CBV?$basic_string@DU?$char_traits@D@std@@V?$allocator@D@2@@std@@V?$basic_json@Vmap@std@@Vvector@2@V?$basic_string@DU?$char_traits@D@std@@V?$allocator@D@2@@2@_N_J_KNVallocator@2@Uadl_serializer@json_abi_v3_11_2@nlohmann@@V?$vector@EV?$allocator@E@std@@@2@X@json_abi_v3_11_2@nlohmann@@@std@@PEAX@std@@AEBQEAU12@@std@@YAXAEAPEAU?$_Tree_node@U?$pair@$$CBV?$basic_string@DU?$char_traits@D@std@@V?$allocator@D@2@@std@@V?$basic_json@Vmap@std@@Vvector@2@V?$basic_string@DU?$char_traits@D@std@@V?$allocator@D@2@@2@_N_J_KNVallocator@2@Uadl_serializer@json_abi_v3_11_2@nlohmann@@V?$vector@EV?$allocator@E@std@@@2@X@json_abi_v3_11_2@nlohmann@@@std@@PEAX@0@AEBQEAU10@@Z 0000000140044770 f i main.obj
 0001:00043800       ??$_Construct_in_place@PEAU?$_Tree_node@U?$pair@$$CBV?$basic_string@DU?$char_traits@D@std@@V?$allocator@D@2@@std@@V?$weak_ptr@VImage@@@2@@std@@PEAX@std@@AEAPEAU12@@std@@YAXAEAPEAU?$_Tree_node@U?$pair@$$CBV?$basic_string@DU?$char_traits@D@std@@V?$allocator@D@2@@std@@V?$weak_ptr@VImage@@@2@@std@@PEAX@0@0@Z 0000000140044800 f i main.obj
 0001:00043890       ??$_Construct_in_place@PEAU?$_Tree_node@U?$pair@$$CBV?$basic_string@DU?$char_traits@D@std@@V?$allocator@D@2@@std@@V?$weak_ptr@VImage@@@2@@std@@PEAX@std@@AEBQEAU12@@std@@YAXAEAPEAU?$_Tree_node@U?$pair@$$CBV?$basic_string@DU?$char_traits@D@std@@V?$allocator@D@2@@std@@V?$weak_ptr@VImage@@@2@@std@@PEAX@0@AEBQEAU10@@Z 0000000140044890 f i main.obj
 0001:00043920       ??$_Construct_in_place@PEAU?$_Tree_node@U?$pair@$$CBV?$basic_string@DU?$char_traits@D@std@@V?$allocator@D@2@@std@@V?$weak_ptr@VScenes@@@2@@std@@PEAX@std@@AEAPEAU12@@std@@YAXAEAPEAU?$_Tree_node@U?$pair@$$CBV?$basic_string@DU?$char_traits@D@std@@V?$allocator@D@2@@std@@V?$weak_ptr@VScenes@@@2@@std@@PEAX@0@0@Z 0000000140044920 f i main.obj
 0001:000439b0       ??$_Construct_in_place@PEAU?$_Tree_node@U?$pair@$$CBV?$basic_string@DU?$char_traits@D@std@@V?$allocator@D@2@@std@@V?$weak_ptr@VScenes@@@2@@std@@PEAX@std@@AEBQEAU12@@std@@YAXAEAPEAU?$_Tree_node@U?$pair@$$CBV?$basic_string@DU?$char_traits@D@std@@V?$allocator@D@2@@std@@V?$weak_ptr@VScenes@@@2@@std@@PEAX@0@AEBQEAU10@@Z 00000001400449b0 f i main.obj
 0001:00043a40       ??$_Construct_in_place@PEAU?$_Tree_node@U?$pair@$$CBV?$basic_string@DU?$char_traits@D@std@@V?$allocator@D@2@@std@@V?$weak_ptr@VShader@@@2@@std@@PEAX@std@@AEAPEAU12@@std@@YAXAEAPEAU?$_Tree_node@U?$pair@$$CBV?$basic_string@DU?$char_traits@D@std@@V?$allocator@D@2@@std@@V?$weak_ptr@VShader@@@2@@std@@PEAX@0@0@Z 0000000140044a40 f i main.obj
 0001:00043ad0       ??$_Construct_in_place@PEAU?$_Tree_node@U?$pair@$$CBV?$basic_string@DU?$char_traits@D@std@@V?$allocator@D@2@@std@@V?$weak_ptr@VShader@@@2@@std@@PEAX@std@@AEBQEAU12@@std@@YAXAEAPEAU?$_Tree_node@U?$pair@$$CBV?$basic_string@DU?$char_traits@D@std@@V?$allocator@D@2@@std@@V?$weak_ptr@VShader@@@2@@std@@PEAX@0@AEBQEAU10@@Z 0000000140044ad0 f i main.obj
 0001:00043b60       ??$_Construct_in_place@PEAU?$_Tree_node@U?$pair@$$CBV?$basic_string@DU?$char_traits@D@std@@V?$allocator@D@2@@std@@V?$weak_ptr@VTexture2D@@@2@@std@@PEAX@std@@AEAPEAU12@@std@@YAXAEAPEAU?$_Tree_node@U?$pair@$$CBV?$basic_string@DU?$char_traits@D@std@@V?$allocator@D@2@@std@@V?$weak_ptr@VTexture2D@@@2@@std@@PEAX@0@0@Z 0000000140044b60 f i main.obj
 0001:00043bf0       ??$_Construct_in_place@PEAU?$_Tree_node@U?$pair@$$CBV?$basic_string@DU?$char_traits@D@std@@V?$allocator@D@2@@std@@V?$weak_ptr@VTexture2D@@@2@@std@@PEAX@std@@AEBQEAU12@@std@@YAXAEAPEAU?$_Tree_node@U?$pair@$$CBV?$basic_string@DU?$char_traits@D@std@@V?$allocator@D@2@@std@@V?$weak_ptr@VTexture2D@@@2@@std@@PEAX@0@AEBQEAU10@@Z 0000000140044bf0 f i main.obj
 0001:00043c80       ??$_Construct_in_place@PEAV?$basic_json@Vmap@std@@Vvector@2@V?$basic_string@DU?$char_traits@D@std@@V?$allocator@D@2@@2@_N_J_KNVallocator@2@Uadl_serializer@json_abi_v3_11_2@nlohmann@@V?$vector@EV?$allocator@E@std@@@2@X@json_abi_v3_11_2@nlohmann@@AEBQEAV123@@std@@YAXAEAPEAV?$basic_json@Vmap@std@@Vvector@2@V?$basic_string@DU?$char_traits@D@std@@V?$allocator@D@2@@2@_N_J_KNVallocator@2@Uadl_serializer@json_abi_v3_11_2@nlohmann@@V?$vector@EV?$allocator@E@std@@@2@X@json_abi_v3_11_2@nlohmann@@AEBQEAV123@@Z 0000000140044c80 f i main.obj
 0001:00043d10       ??$_Construct_in_place@PEAV?$basic_json@Vmap@std@@Vvector@2@V?$basic_string@DU?$char_traits@D@std@@V?$allocator@D@2@@2@_N_J_KNVallocator@2@Uadl_serializer@json_abi_v3_11_2@nlohmann@@V?$vector@EV?$allocator@E@std@@@2@X@json_abi_v3_11_2@nlohmann@@PEAV123@@std@@YAXAEAPEAV?$basic_json@Vmap@std@@Vvector@2@V?$basic_string@DU?$char_traits@D@std@@V?$allocator@D@2@@2@_N_J_KNVallocator@2@Uadl_serializer@json_abi_v3_11_2@nlohmann@@V?$vector@EV?$allocator@E@std@@@2@X@json_abi_v3_11_2@nlohmann@@$$QEAPEAV123@@Z 0000000140044d10 f i main.obj
 0001:00043da0       ??$_Construct_in_place@PEAVAnimationChannel@@AEBQEAV1@@std@@YAXAEAPEAVAnimationChannel@@AEBQEAV1@@Z 0000000140044da0 f i main.obj
 0001:00043e30       ??$_Construct_in_place@PEAVComponent@@PEAV1@@std@@YAXAEAPEAVComponent@@$$QEAPEAV1@@Z 0000000140044e30 f i main.obj
 0001:00043ec0       ??$_Construct_in_place@PEAVNode@@PEAV1@@std@@YAXAEAPEAVNode@@$$QEAPEAV1@@Z 0000000140044ec0 f i main.obj
 0001:00043f50       ??$_Construct_in_place@PEA_WAEBQEA_W@std@@YAXAEAPEA_WAEBQEA_W@Z 0000000140044f50 f i main.obj
 0001:00043fe0       ??$_Construct_in_place@U?$pair@V?$basic_string@DU?$char_traits@D@std@@V?$allocator@D@2@@std@@H@std@@U12@@std@@YAXAEAU?$pair@V?$basic_string@DU?$char_traits@D@std@@V?$allocator@D@2@@std@@H@0@$$QEAU10@@Z 0000000140044fe0 f i main.obj
 0001:00044070       ??$_Construct_in_place@U?$pair@V?$basic_string@DU?$char_traits@D@std@@V?$allocator@D@2@@std@@V?$shared_ptr@VTexture2D@@@2@@std@@U12@@std@@YAXAEAU?$pair@V?$basic_string@DU?$char_traits@D@std@@V?$allocator@D@2@@std@@V?$shared_ptr@VTexture2D@@@2@@0@$$QEAU10@@Z 0000000140045070 f i main.obj
 0001:00044100       ??$_Construct_in_place@V?$basic_json@Vmap@std@@Vvector@2@V?$basic_string@DU?$char_traits@D@std@@V?$allocator@D@2@@2@_N_J_KNVallocator@2@Uadl_serializer@json_abi_v3_11_2@nlohmann@@V?$vector@EV?$allocator@E@std@@@2@X@json_abi_v3_11_2@nlohmann@@$$T@std@@YAXAEAV?$basic_json@Vmap@std@@Vvector@2@V?$basic_string@DU?$char_traits@D@std@@V?$allocator@D@2@@2@_N_J_KNVallocator@2@Uadl_serializer@json_abi_v3_11_2@nlohmann@@V?$vector@EV?$allocator@E@std@@@2@X@json_abi_v3_11_2@nlohmann@@$$QEA$$T@Z 0000000140045100 f i main.obj
 0001:00044190       ??$_Construct_in_place@V?$basic_json@Vmap@std@@Vvector@2@V?$basic_string@DU?$char_traits@D@std@@V?$allocator@D@2@@2@_N_J_KNVallocator@2@Uadl_serializer@json_abi_v3_11_2@nlohmann@@V?$vector@EV?$allocator@E@std@@@2@X@json_abi_v3_11_2@nlohmann@@AEAN@std@@YAXAEAV?$basic_json@Vmap@std@@Vvector@2@V?$basic_string@DU?$char_traits@D@std@@V?$allocator@D@2@@2@_N_J_KNVallocator@2@Uadl_serializer@json_abi_v3_11_2@nlohmann@@V?$vector@EV?$allocator@E@std@@@2@X@json_abi_v3_11_2@nlohmann@@AEAN@Z 0000000140045190 f i main.obj
 0001:00044220       ??$_Construct_in_place@V?$basic_json@Vmap@std@@Vvector@2@V?$basic_string@DU?$char_traits@D@std@@V?$allocator@D@2@@2@_N_J_KNVallocator@2@Uadl_serializer@json_abi_v3_11_2@nlohmann@@V?$vector@EV?$allocator@E@std@@@2@X@json_abi_v3_11_2@nlohmann@@AEA_J@std@@YAXAEAV?$basic_json@Vmap@std@@Vvector@2@V?$basic_string@DU?$char_traits@D@std@@V?$allocator@D@2@@2@_N_J_KNVallocator@2@Uadl_serializer@json_abi_v3_11_2@nlohmann@@V?$vector@EV?$allocator@E@std@@@2@X@json_abi_v3_11_2@nlohmann@@AEA_J@Z 0000000140045220 f i main.obj
 0001:000442b0       ??$_Construct_in_place@V?$basic_json@Vmap@std@@Vvector@2@V?$basic_string@DU?$char_traits@D@std@@V?$allocator@D@2@@2@_N_J_KNVallocator@2@Uadl_serializer@json_abi_v3_11_2@nlohmann@@V?$vector@EV?$allocator@E@std@@@2@X@json_abi_v3_11_2@nlohmann@@AEA_K@std@@YAXAEAV?$basic_json@Vmap@std@@Vvector@2@V?$basic_string@DU?$char_traits@D@std@@V?$allocator@D@2@@2@_N_J_KNVallocator@2@Uadl_serializer@json_abi_v3_11_2@nlohmann@@V?$vector@EV?$allocator@E@std@@@2@X@json_abi_v3_11_2@nlohmann@@AEA_K@Z 00000001400452b0 f i main.obj
 0001:00044340       ??$_Construct_in_place@V?$basic_json@Vmap@std@@Vvector@2@V?$basic_string@DU?$char_traits@D@std@@V?$allocator@D@2@@2@_N_J_KNVallocator@2@Uadl_serializer@json_abi_v3_11_2@nlohmann@@V?$vector@EV?$allocator@E@std@@@2@X@json_abi_v3_11_2@nlohmann@@AEA_N@std@@YAXAEAV?$basic_json@Vmap@std@@Vvector@2@V?$basic_string@DU?$char_traits@D@std@@V?$allocator@D@2@@2@_N_J_KNVallocator@2@Uadl_serializer@json_abi_v3_11_2@nlohmann@@V?$vector@EV?$allocator@E@std@@@2@X@json_abi_v3_11_2@nlohmann@@AEA_N@Z 0000000140045340 f i main.obj
 0001:000443d0       ??$_Construct_in_place@V?$basic_json@Vmap@std@@Vvector@2@V?$basic_string@DU?$char_traits@D@std@@V?$allocator@D@2@@2@_N_J_KNVallocator@2@Uadl_serializer@json_abi_v3_11_2@nlohmann@@V?$vector@EV?$allocator@E@std@@@2@X@json_abi_v3_11_2@nlohmann@@V123@@std@@YAXAEAV?$basic_json@Vmap@std@@Vvector@2@V?$basic_string@DU?$char_traits@D@std@@V?$allocator@D@2@@2@_N_J_KNVallocator@2@Uadl_serializer@json_abi_v3_11_2@nlohmann@@V?$vector@EV?$allocator@E@std@@@2@X@json_abi_v3_11_2@nlohmann@@$$QEAV123@@Z 00000001400453d0 f i main.obj
 0001:00044460       ??$_Construct_in_place@VAnimation@@$$V@std@@YAXAEAVAnimation@@@Z 0000000140045460 f i main.obj
 0001:000444f0       ??$_Construct_in_place@VAnimationInstanceView@@V1@@std@@YAXAEAVAnimationInstanceView@@$$QEAV1@@Z 00000001400454f0 f i main.obj
 0001:00044580       ??$_Construct_in_place@VImage@@$$V@std@@YAXAEAVImage@@@Z 0000000140045580 f i main.obj
 0001:00044600       ??$_Construct_in_place@VMaterial@@$$V@std@@YAXAEAVMaterial@@@Z 0000000140045600 f i main.obj
 0001:00044690       ??$_Construct_in_place@VMesh@@$$V@std@@YAXAEAVMesh@@@Z 0000000140045690 f i main.obj
 0001:00044720       ??$_Construct_in_place@VScenes@@$$V@std@@YAXAEAVScenes@@@Z 0000000140045720 f i main.obj
 0001:000447b0       ??$_Construct_in_place@VShader@@$$V@std@@YAXAEAVShader@@@Z 00000001400457b0 f i main.obj
 0001:00044840       ??$_Construct_in_place@VSkin@@$$V@std@@YAXAEAVSkin@@@Z 0000000140045840 f i main.obj
 0001:000448d0       ??$_Construct_in_place@VTexture2D@@$$V@std@@YAXAEAVTexture2D@@@Z 00000001400458d0 f i main.obj
 0001:00044960       ??$_Construct_n@AEBQEAEAEBQEAE@?$vector@EV?$allocator@E@std@@@std@@AEAAX_KAEBQEAE1@Z 0000000140045960 f i main.obj
 0001:00044a50       ??$_Construct_n@AEBQEAHAEBQEAH@?$vector@HV?$allocator@H@std@@@std@@AEAAX_KAEBQEAH1@Z 0000000140045a50 f i main.obj
 0001:00044b40       ??$_Construct_n@AEBQEAIAEBQEAI@?$vector@IV?$allocator@I@std@@@std@@AEAAX_KAEBQEAI1@Z 0000000140045b40 f i main.obj
 0001:00044c30       ??$_Construct_n@AEBQEAMAEBQEAM@?$vector@MV?$allocator@M@std@@@std@@AEAAX_KAEBQEAM1@Z 0000000140045c30 f i main.obj
 0001:00044d20       ??$_Construct_n@AEBQEAU?$pair@V?$basic_string@DU?$char_traits@D@std@@V?$allocator@D@2@@std@@H@std@@AEBQEAU12@@?$vector@U?$pair@V?$basic_string@DU?$char_traits@D@std@@V?$allocator@D@2@@std@@H@std@@V?$allocator@U?$pair@V?$basic_string@DU?$char_traits@D@std@@V?$allocator@D@2@@std@@H@std@@@2@@std@@AEAAX_KAEBQEAU?$pair@V?$basic_string@DU?$char_traits@D@std@@V?$allocator@D@2@@std@@H@1@1@Z 0000000140045d20 f i main.obj
 0001:00044e10       ??$_Construct_n@AEBQEAU?$vec2t@M@@AEBQEAU1@@?$vector@U?$vec2t@M@@V?$allocator@U?$vec2t@M@@@std@@@std@@AEAAX_KAEBQEAU?$vec2t@M@@1@Z 0000000140045e10 f i main.obj
 0001:00044f00       ??$_Construct_n@AEBQEAU?$vec3t@M@@AEBQEAU1@@?$vector@U?$vec3t@M@@V?$allocator@U?$vec3t@M@@@std@@@std@@AEAAX_KAEBQEAU?$vec3t@M@@1@Z 0000000140045f00 f i main.obj
 0001:00044ff0       ??$_Construct_n@AEBQEAU?$vec4t@H@@AEBQEAU1@@?$vector@U?$vec4t@H@@V?$allocator@U?$vec4t@H@@@std@@@std@@AEAAX_KAEBQEAU?$vec4t@H@@1@Z 0000000140045ff0 f i main.obj
 0001:000450e0       ??$_Construct_n@AEBQEAU?$vec4t@M@@AEBQEAU1@@?$vector@U?$vec4t@M@@V?$allocator@U?$vec4t@M@@@std@@@std@@AEAAX_KAEBQEAU?$vec4t@M@@1@Z 00000001400460e0 f i main.obj
 0001:000451d0       ??$_Construct_n@AEBQEAUAnimationChannel@gltf@@AEBQEAU12@@?$vector@UAnimationChannel@gltf@@V?$allocator@UAnimationChannel@gltf@@@std@@@std@@AEAAX_KAEBQEAUAnimationChannel@gltf@@1@Z 00000001400461d0 f i main.obj
 0001:000452c0       ??$_Construct_n@AEBQEAUAnimationSampler@gltf@@AEBQEAU12@@?$vector@UAnimationSampler@gltf@@V?$allocator@UAnimationSampler@gltf@@@std@@@std@@AEAAX_KAEBQEAUAnimationSampler@gltf@@1@Z 00000001400462c0 f i main.obj
 0001:000453b0       ??$_Construct_n@AEBQEAUMeshPrimitive@gltf@@AEBQEAU12@@?$vector@UMeshPrimitive@gltf@@V?$allocator@UMeshPrimitive@gltf@@@std@@@std@@AEAAX_KAEBQEAUMeshPrimitive@gltf@@1@Z 00000001400463b0 f i main.obj
 0001:000454a0       ??$_Construct_n@AEBQEAV?$basic_json@Vmap@std@@Vvector@2@V?$basic_string@DU?$char_traits@D@std@@V?$allocator@D@2@@2@_N_J_KNVallocator@2@Uadl_serializer@json_abi_v3_11_2@nlohmann@@V?$vector@EV?$allocator@E@std@@@2@X@json_abi_v3_11_2@nlohmann@@AEBQEAV123@@?$vector@V?$basic_json@Vmap@std@@Vvector@2@V?$basic_string@DU?$char_traits@D@std@@V?$allocator@D@2@@2@_N_J_KNVallocator@2@Uadl_serializer@json_abi_v3_11_2@nlohmann@@V?$vector@EV?$allocator@E@std@@@2@X@json_abi_v3_11_2@nlohmann@@V?$allocator@V?$basic_json@Vmap@std@@Vvector@2@V?$basic_string@DU?$char_traits@D@std@@V?$allocator@D@2@@2@_N_J_KNVallocator@2@Uadl_serializer@json_abi_v3_11_2@nlohmann@@V?$vector@EV?$allocator@E@std@@@2@X@json_abi_v3_11_2@nlohmann@@@std@@@std@@AEAAX_KAEBQEAV?$basic_json@Vmap@std@@Vvector@2@V?$basic_string@DU?$char_traits@D@std@@V?$allocator@D@2@@2@_N_J_KNVallocator@2@Uadl_serializer@json_abi_v3_11_2@nlohmann@@V?$vector@EV?$allocator@E@std@@@2@X@json_abi_v3_11_2@nlohmann@@1@Z 00000001400464a0 f i main.obj
 0001:00045590       ??$_Construct_n@PEAGPEAG@?$vector@IV?$allocator@I@std@@@std@@AEAAX_K$$QEAPEAG1@Z 0000000140046590 f i main.obj
 0001:00045680       ??$_Convert_Source_to_wide@$$BY06DU_Normal_conversion@filesystem@std@@@filesystem@std@@YA?AV?$basic_string@_WU?$char_traits@_W@std@@V?$allocator@_W@2@@1@AEAY06$$CBDU_Normal_conversion@01@@Z 0000000140046680 f i main.obj
 0001:00045710       ??$_Convert_size@_K_K@std@@YA_K_K@Z 0000000140046710 f i main.obj
 0001:00045720       ??$_Convert_stringoid_to_wide@U_Normal_conversion@filesystem@std@@@filesystem@std@@YA?AV?$basic_string@_WU?$char_traits@_W@std@@V?$allocator@_W@2@@1@V?$basic_string_view@DU?$char_traits@D@std@@@1@U_Normal_conversion@01@@Z 0000000140046720 f i main.obj
 0001:000457c0       ??$_Convert_wide_to_narrow_replace_chars@U?$char_traits@D@std@@V?$allocator@D@2@@filesystem@std@@YA?AV?$basic_string@DU?$char_traits@D@std@@V?$allocator@D@2@@1@W4__std_code_page@@V?$basic_string_view@_WU?$char_traits@_W@std@@@1@AEBV?$allocator@D@1@@Z 00000001400467c0 f i main.obj
 0001:00045920       ?allocate@?$_Default_allocator_traits@V?$allocator@V?$byte_container_with_subtype@V?$vector@EV?$allocator@E@std@@@std@@@json_abi_v3_11_2@nlohmann@@@std@@@std@@SAPEAV?$byte_container_with_subtype@V?$vector@EV?$allocator@E@std@@@std@@@json_abi_v3_11_2@nlohmann@@AEAV?$allocator@V?$byte_container_with_subtype@V?$vector@EV?$allocator@E@std@@@std@@@json_abi_v3_11_2@nlohmann@@@2@_K@Z 0000000140046920 f i main.obj
 0001:00045980       ??$_Copy@$0A@@?$_Tree@V?$_Tmap_traits@V?$basic_string@DU?$char_traits@D@std@@V?$allocator@D@2@@std@@V?$basic_json@Vmap@std@@Vvector@2@V?$basic_string@DU?$char_traits@D@std@@V?$allocator@D@2@@2@_N_J_KNVallocator@2@Uadl_serializer@json_abi_v3_11_2@nlohmann@@V?$vector@EV?$allocator@E@std@@@2@X@json_abi_v3_11_2@nlohmann@@U?$less@X@2@V?$allocator@U?$pair@$$CBV?$basic_string@DU?$char_traits@D@std@@V?$allocator@D@2@@std@@V?$basic_json@Vmap@std@@Vvector@2@V?$basic_string@DU?$char_traits@D@std@@V?$allocator@D@2@@2@_N_J_KNVallocator@2@Uadl_serializer@json_abi_v3_11_2@nlohmann@@V?$vector@EV?$allocator@E@std@@@2@X@json_abi_v3_11_2@nlohmann@@@std@@@2@$0A@@std@@@std@@IEAAXAEBV01@@Z 0000000140046980 f i main.obj
 0001:00045a90       ?eq_int_type@?$_Narrow_char_traits@DH@std@@SA_NAEBH0@Z 0000000140046a90 f i main.obj
 0001:00045ad0       ??$_Copy_backward_unchecked@V?$_Vb_iterator@U?$_Wrap_alloc@V?$allocator@I@std@@@std@@@std@@V12@@std@@YA?AV?$_Vb_iterator@U?$_Wrap_alloc@V?$allocator@I@std@@@std@@@0@V10@00@Z 0000000140046ad0 f i main.obj
 0001:00045bb0       ??$_Copy_construct_from@VAnimation@@@?$_Ptr_base@VAnimation@@@std@@IEAAXAEBV?$shared_ptr@VAnimation@@@1@@Z 0000000140046bb0 f i main.obj
 0001:00045c00       ??$_Copy_construct_from@VImage@@@?$_Ptr_base@VImage@@@std@@IEAAXAEBV?$shared_ptr@VImage@@@1@@Z 0000000140046c00 f i main.obj
 0001:00045c50       ??$_Copy_construct_from@VMaterial@@@?$_Ptr_base@VMaterial@@@std@@IEAAXAEBV?$shared_ptr@VMaterial@@@1@@Z 0000000140046c50 f i main.obj
 0001:00045ca0       ??$_Copy_construct_from@VMesh@@@?$_Ptr_base@VMesh@@@std@@IEAAXAEBV?$shared_ptr@VMesh@@@1@@Z 0000000140046ca0 f i main.obj
 0001:00045cf0       ??$_Copy_construct_from@VScenes@@@?$_Ptr_base@VScenes@@@std@@IEAAXAEBV?$shared_ptr@VScenes@@@1@@Z 0000000140046cf0 f i main.obj
 0001:00045d40       ??$_Copy_construct_from@VShader@@@?$_Ptr_base@VShader@@@std@@IEAAXAEBV?$shared_ptr@VShader@@@1@@Z 0000000140046d40 f i main.obj
 0001:00045d90       ??$_Copy_construct_from@VSkin@@@?$_Ptr_base@VSkin@@@std@@IEAAXAEBV?$shared_ptr@VSkin@@@1@@Z 0000000140046d90 f i main.obj
 0001:00045de0       ??$_Copy_construct_from@VTexture2D@@@?$_Ptr_base@VTexture2D@@@std@@IEAAXAEBV?$shared_ptr@VTexture2D@@@1@@Z 0000000140046de0 f i main.obj
 0001:00045e30       ??$_Copy_memmove@PEADPEAD@std@@YAPEADPEAD00@Z 0000000140046e30 f i main.obj
 0001:00045f00       ??$_Copy_memmove@PEAEPEAE@std@@YAPEAEPEAE00@Z 0000000140046f00 f i main.obj
 0001:00045fd0       ??$_Copy_memmove@PEAGPEAG@std@@YAPEAGPEAG00@Z 0000000140046fd0 f i main.obj
 0001:000460a0       ??$_Copy_memmove@PEAHPEAH@std@@YAPEAHPEAH00@Z 00000001400470a0 f i main.obj
 0001:00046170       ??$_Copy_memmove@PEAIPEAI@std@@YAPEAIPEAI00@Z 0000000140047170 f i main.obj
 0001:00046240       ??$_Copy_memmove@PEAMPEAM@std@@YAPEAMPEAM00@Z 0000000140047240 f i main.obj
 0001:00046310       ??$_Copy_memmove@PEAPEAV?$basic_json@Vmap@std@@Vvector@2@V?$basic_string@DU?$char_traits@D@std@@V?$allocator@D@2@@2@_N_J_KNVallocator@2@Uadl_serializer@json_abi_v3_11_2@nlohmann@@V?$vector@EV?$allocator@E@std@@@2@X@json_abi_v3_11_2@nlohmann@@PEAPEAV123@@std@@YAPEAPEAV?$basic_json@Vmap@std@@Vvector@2@V?$basic_string@DU?$char_traits@D@std@@V?$allocator@D@2@@2@_N_J_KNVallocator@2@Uadl_serializer@json_abi_v3_11_2@nlohmann@@V?$vector@EV?$allocator@E@std@@@2@X@json_abi_v3_11_2@nlohmann@@PEAPEAV123@00@Z 0000000140047310 f i main.obj
 0001:000463e0       ??$_Copy_memmove@PEAPEAVActor@@PEAPEAV1@@std@@YAPEAPEAVActor@@PEAPEAV1@00@Z 00000001400473e0 f i main.obj
 0001:000464b0       ??$_Copy_memmove@PEAPEAVAnimationChannel@@PEAPEAV1@@std@@YAPEAPEAVAnimationChannel@@PEAPEAV1@00@Z 00000001400474b0 f i main.obj
 0001:00046580       ??$_Copy_memmove@PEAPEAVComponent@@PEAPEAV1@@std@@YAPEAPEAVComponent@@PEAPEAV1@00@Z 0000000140047580 f i main.obj
 0001:00046650       ??$_Copy_memmove@PEAPEAVNode@@PEAPEAV1@@std@@YAPEAPEAVNode@@PEAPEAV1@00@Z 0000000140047650 f i main.obj
 0001:00046720       ??$_Copy_memmove@PEAPEAVSkinInstance@@PEAPEAV1@@std@@YAPEAPEAVSkinInstance@@PEAPEAV1@00@Z 0000000140047720 f i main.obj
 0001:000467f0       ??$_Copy_memmove@PEAU?$quatt@M@@PEAU1@@std@@YAPEAU?$quatt@M@@PEAU1@00@Z 00000001400477f0 f i main.obj
 0001:000468c0       ??$_Copy_memmove@PEAVAnimationChannel@@PEAV1@@std@@YAPEAVAnimationChannel@@PEAV1@00@Z 00000001400478c0 f i main.obj
 0001:00046990       ??$_Copy_memmove@PEAVAnimationInstance@@PEAV1@@std@@YAPEAVAnimationInstance@@PEAV1@00@Z 0000000140047990 f i main.obj
 0001:00046a60       ??$_Copy_memmove@PEBU?$vec2t@M@@PEAU1@@std@@YAPEAU?$vec2t@M@@PEBU1@0PEAU1@@Z 0000000140047a60 f i main.obj
 0001:00046b30       ??$_Copy_memmove@PEBU?$vec3t@M@@PEAU1@@std@@YAPEAU?$vec3t@M@@PEBU1@0PEAU1@@Z 0000000140047b30 f i main.obj
 0001:00046c00       ??$_Copy_memmove_n@PEAHPEAH@std@@YAPEAHPEAH_K0@Z 0000000140047c00 f i main.obj
 0001:00046c60       ??$_Copy_memmove_n@PEBU?$vec2t@M@@PEAU1@@std@@YAPEAU?$vec2t@M@@PEBU1@_KPEAU1@@Z 0000000140047c60 f i main.obj
 0001:00046cc0       ??$_Copy_memmove_n@PEBU?$vec3t@M@@PEAU1@@std@@YAPEAU?$vec3t@M@@PEBU1@_KPEAU1@@Z 0000000140047cc0 f i main.obj
 0001:00046d20       ??$_Copy_n_unchecked4@PEAH_KPEAH@std@@YAPEAHPEAH_K0@Z 0000000140047d20 f i main.obj
 0001:00046dd0       ??$_Copy_n_unchecked4@PEBU?$vec2t@M@@_KPEAU1@@std@@YAPEAU?$vec2t@M@@PEBU1@_KPEAU1@@Z 0000000140047dd0 f i main.obj
 0001:00046e80       ??$_Copy_n_unchecked4@PEBU?$vec3t@M@@_KPEAU1@@std@@YAPEAU?$vec3t@M@@PEBU1@_KPEAU1@@Z 0000000140047e80 f i main.obj
 0001:00046f30       ??$_Copy_nodes@$0A@@?$_Tree@V?$_Tmap_traits@V?$basic_string@DU?$char_traits@D@std@@V?$allocator@D@2@@std@@V?$basic_json@Vmap@std@@Vvector@2@V?$basic_string@DU?$char_traits@D@std@@V?$allocator@D@2@@2@_N_J_KNVallocator@2@Uadl_serializer@json_abi_v3_11_2@nlohmann@@V?$vector@EV?$allocator@E@std@@@2@X@json_abi_v3_11_2@nlohmann@@U?$less@X@2@V?$allocator@U?$pair@$$CBV?$basic_string@DU?$char_traits@D@std@@V?$allocator@D@2@@std@@V?$basic_json@Vmap@std@@Vvector@2@V?$basic_string@DU?$char_traits@D@std@@V?$allocator@D@2@@2@_N_J_KNVallocator@2@Uadl_serializer@json_abi_v3_11_2@nlohmann@@V?$vector@EV?$allocator@E@std@@@2@X@json_abi_v3_11_2@nlohmann@@@std@@@2@$0A@@std@@@std@@IEAAPEAU?$_Tree_node@U?$pair@$$CBV?$basic_string@DU?$char_traits@D@std@@V?$allocator@D@2@@std@@V?$basic_json@Vmap@std@@Vvector@2@V?$basic_string@DU?$char_traits@D@std@@V?$allocator@D@2@@2@_N_J_KNVallocator@2@Uadl_serializer@json_abi_v3_11_2@nlohmann@@V?$vector@EV?$allocator@E@std@@@2@X@json_abi_v3_11_2@nlohmann@@@std@@PEAX@1@PEAU21@0@Z 0000000140047f30 f i main.obj
 0001:00047060       ??$_Copy_or_move@$0A@U?$pair@$$CBV?$basic_string@DU?$char_traits@D@std@@V?$allocator@D@2@@std@@V?$basic_json@Vmap@std@@Vvector@2@V?$basic_string@DU?$char_traits@D@std@@V?$allocator@D@2@@2@_N_J_KNVallocator@2@Uadl_serializer@json_abi_v3_11_2@nlohmann@@V?$vector@EV?$allocator@E@std@@@2@X@json_abi_v3_11_2@nlohmann@@@std@@@?$_Tree@V?$_Tmap_traits@V?$basic_string@DU?$char_traits@D@std@@V?$allocator@D@2@@std@@V?$basic_json@Vmap@std@@Vvector@2@V?$basic_string@DU?$char_traits@D@std@@V?$allocator@D@2@@2@_N_J_KNVallocator@2@Uadl_serializer@json_abi_v3_11_2@nlohmann@@V?$vector@EV?$allocator@E@std@@@2@X@json_abi_v3_11_2@nlohmann@@U?$less@X@2@V?$allocator@U?$pair@$$CBV?$basic_string@DU?$char_traits@D@std@@V?$allocator@D@2@@std@@V?$basic_json@Vmap@std@@Vvector@2@V?$basic_string@DU?$char_traits@D@std@@V?$allocator@D@2@@2@_N_J_KNVallocator@2@Uadl_serializer@json_abi_v3_11_2@nlohmann@@V?$vector@EV?$allocator@E@std@@@2@X@json_abi_v3_11_2@nlohmann@@@std@@@2@$0A@@std@@@std@@IEAAPEAU?$_Tree_node@U?$pair@$$CBV?$basic_string@DU?$char_traits@D@std@@V?$allocator@D@2@@std@@V?$basic_json@Vmap@std@@Vvector@2@V?$basic_string@DU?$char_traits@D@std@@V?$allocator@D@2@@2@_N_J_KNVallocator@2@Uadl_serializer@json_abi_v3_11_2@nlohmann@@V?$vector@EV?$allocator@E@std@@@2@X@json_abi_v3_11_2@nlohmann@@@std@@PEAX@1@AEAU?$pair@$$CBV?$basic_string@DU?$char_traits@D@std@@V?$allocator@D@2@@std@@V?$basic_json@Vmap@std@@Vvector@2@V?$basic_string@DU?$char_traits@D@std@@V?$allocator@D@2@@2@_N_J_KNVallocator@2@Uadl_serializer@json_abi_v3_11_2@nlohmann@@V?$vector@EV?$allocator@E@std@@@2@X@json_abi_v3_11_2@nlohmann@@@1@@Z 0000000140048060 f i main.obj
 0001:00047090       ??$_Copy_unchecked@V?$_Vb_iterator@U?$_Wrap_alloc@V?$allocator@I@std@@@std@@@std@@V12@V12@@std@@YA?AV?$_Vb_iterator@U?$_Wrap_alloc@V?$allocator@I@std@@@std@@@0@V10@00@Z 0000000140048090 f i main.obj
 0001:00047160       ??$_Deallocate@$0BA@$0A@@std@@YAXPEAX_K@Z 0000000140048160 f i main.obj
 0001:000471d0       ??$_Destroy_in_place@PEAD@std@@YAXAEAPEAD@Z 00000001400481d0 f i main.obj
 0001:000471e0       ??$_Destroy_in_place@PEAU?$_Tree_node@U?$pair@$$CBV?$basic_string@DU?$char_traits@D@std@@V?$allocator@D@2@@std@@PEAUmat4@@@std@@PEAX@std@@@std@@YAXAEAPEAU?$_Tree_node@U?$pair@$$CBV?$basic_string@DU?$char_traits@D@std@@V?$allocator@D@2@@std@@PEAUmat4@@@std@@PEAX@0@@Z 00000001400481e0 f i main.obj
 0001:000471f0       ??$_Destroy_in_place@PEAU?$_Tree_node@U?$pair@$$CBV?$basic_string@DU?$char_traits@D@std@@V?$allocator@D@2@@std@@V?$basic_json@Vmap@std@@Vvector@2@V?$basic_string@DU?$char_traits@D@std@@V?$allocator@D@2@@2@_N_J_KNVallocator@2@Uadl_serializer@json_abi_v3_11_2@nlohmann@@V?$vector@EV?$allocator@E@std@@@2@X@json_abi_v3_11_2@nlohmann@@@std@@PEAX@std@@@std@@YAXAEAPEAU?$_Tree_node@U?$pair@$$CBV?$basic_string@DU?$char_traits@D@std@@V?$allocator@D@2@@std@@V?$basic_json@Vmap@std@@Vvector@2@V?$basic_string@DU?$char_traits@D@std@@V?$allocator@D@2@@2@_N_J_KNVallocator@2@Uadl_serializer@json_abi_v3_11_2@nlohmann@@V?$vector@EV?$allocator@E@std@@@2@X@json_abi_v3_11_2@nlohmann@@@std@@PEAX@0@@Z 00000001400481f0 f i main.obj
 0001:00047200       ??$_Destroy_in_place@PEAU?$_Tree_node@U?$pair@$$CBV?$basic_string@DU?$char_traits@D@std@@V?$allocator@D@2@@std@@V?$weak_ptr@VImage@@@2@@std@@PEAX@std@@@std@@YAXAEAPEAU?$_Tree_node@U?$pair@$$CBV?$basic_string@DU?$char_traits@D@std@@V?$allocator@D@2@@std@@V?$weak_ptr@VImage@@@2@@std@@PEAX@0@@Z 0000000140048200 f i main.obj
 0001:00047210       ??$_Destroy_in_place@PEAU?$_Tree_node@U?$pair@$$CBV?$basic_string@DU?$char_traits@D@std@@V?$allocator@D@2@@std@@V?$weak_ptr@VScenes@@@2@@std@@PEAX@std@@@std@@YAXAEAPEAU?$_Tree_node@U?$pair@$$CBV?$basic_string@DU?$char_traits@D@std@@V?$allocator@D@2@@std@@V?$weak_ptr@VScenes@@@2@@std@@PEAX@0@@Z 0000000140048210 f i main.obj
 0001:00047220       ??$_Destroy_in_place@PEAU?$_Tree_node@U?$pair@$$CBV?$basic_string@DU?$char_traits@D@std@@V?$allocator@D@2@@std@@V?$weak_ptr@VShader@@@2@@std@@PEAX@std@@@std@@YAXAEAPEAU?$_Tree_node@U?$pair@$$CBV?$basic_string@DU?$char_traits@D@std@@V?$allocator@D@2@@std@@V?$weak_ptr@VShader@@@2@@std@@PEAX@0@@Z 0000000140048220 f i main.obj
 0001:00047230       ??$_Destroy_in_place@PEAU?$_Tree_node@U?$pair@$$CBV?$basic_string@DU?$char_traits@D@std@@V?$allocator@D@2@@std@@V?$weak_ptr@VTexture2D@@@2@@std@@PEAX@std@@@std@@YAXAEAPEAU?$_Tree_node@U?$pair@$$CBV?$basic_string@DU?$char_traits@D@std@@V?$allocator@D@2@@std@@V?$weak_ptr@VTexture2D@@@2@@std@@PEAX@0@@Z 0000000140048230 f i main.obj
 0001:00047240       ??$_Destroy_in_place@PEA_W@std@@YAXAEAPEA_W@Z 0000000140048240 f i main.obj
 0001:00047250       ??$_Destroy_in_place@VAnimation@@@std@@YAXAEAVAnimation@@@Z 0000000140048250 f i main.obj
 0001:00047270       ??$_Destroy_in_place@VImage@@@std@@YAXAEAVImage@@@Z 0000000140048270 f i main.obj
 0001:00047290       ??$_Destroy_in_place@VMaterial@@@std@@YAXAEAVMaterial@@@Z 0000000140048290 f i main.obj
 0001:000472b0       ??$_Destroy_in_place@VMesh@@@std@@YAXAEAVMesh@@@Z 00000001400482b0 f i main.obj
 0001:000472d0       ??$_Destroy_in_place@VScenes@@@std@@YAXAEAVScenes@@@Z 00000001400482d0 f i main.obj
 0001:000472f0       ??$_Destroy_in_place@VShader@@@std@@YAXAEAVShader@@@Z 00000001400482f0 f i main.obj
 0001:00047310       ??$_Destroy_in_place@VSkin@@@std@@YAXAEAVSkin@@@Z 0000000140048310 f i main.obj
 0001:00047330       ??$_Destroy_in_place@VTexture2D@@@std@@YAXAEAVTexture2D@@@Z 0000000140048330 f i main.obj
 0001:00047350       ??$_Destroy_range@V?$allocator@D@std@@@std@@YAXPEADQEADAEAV?$allocator@D@0@@Z 0000000140048350 f i main.obj
 0001:00047370       ??$_Destroy_range@V?$allocator@E@std@@@std@@YAXPEAEQEAEAEAV?$allocator@E@0@@Z 0000000140048370 f i main.obj
 0001:00047390       ??$_Destroy_range@V?$allocator@G@std@@@std@@YAXPEAGQEAGAEAV?$allocator@G@0@@Z 0000000140048390 f i main.obj
 0001:000473b0       ??$_Destroy_range@V?$allocator@H@std@@@std@@YAXPEAHQEAHAEAV?$allocator@H@0@@Z 00000001400483b0 f i main.obj
 0001:000473d0       ??$_Destroy_range@V?$allocator@I@std@@@std@@YAXPEAIQEAIAEAV?$allocator@I@0@@Z 00000001400483d0 f i main.obj
 0001:000473f0       ??$_Destroy_range@V?$allocator@M@std@@@std@@YAXPEAMQEAMAEAV?$allocator@M@0@@Z 00000001400483f0 f i main.obj
 0001:00047410       ??$_Destroy_range@V?$allocator@PEAV?$basic_json@Vmap@std@@Vvector@2@V?$basic_string@DU?$char_traits@D@std@@V?$allocator@D@2@@2@_N_J_KNVallocator@2@Uadl_serializer@json_abi_v3_11_2@nlohmann@@V?$vector@EV?$allocator@E@std@@@2@X@json_abi_v3_11_2@nlohmann@@@std@@@std@@YAXPEAPEAV?$basic_json@Vmap@std@@Vvector@2@V?$basic_string@DU?$char_traits@D@std@@V?$allocator@D@2@@2@_N_J_KNVallocator@2@Uadl_serializer@json_abi_v3_11_2@nlohmann@@V?$vector@EV?$allocator@E@std@@@2@X@json_abi_v3_11_2@nlohmann@@QEAPEAV123@AEAV?$allocator@PEAV?$basic_json@Vmap@std@@Vvector@2@V?$basic_string@DU?$char_traits@D@std@@V?$allocator@D@2@@2@_N_J_KNVallocator@2@Uadl_serializer@json_abi_v3_11_2@nlohmann@@V?$vector@EV?$allocator@E@std@@@2@X@json_abi_v3_11_2@nlohmann@@@0@@Z 0000000140048410 f i main.obj
 0001:00047430       ??$_Destroy_range@V?$allocator@PEAVActor@@@std@@@std@@YAXPEAPEAVActor@@QEAPEAV1@AEAV?$allocator@PEAVActor@@@0@@Z 0000000140048430 f i main.obj
 0001:00047450       ??$_Destroy_range@V?$allocator@PEAVAnimationChannel@@@std@@@std@@YAXPEAPEAVAnimationChannel@@QEAPEAV1@AEAV?$allocator@PEAVAnimationChannel@@@0@@Z 0000000140048450 f i main.obj
 0001:00047470       ??$_Destroy_range@V?$allocator@PEAVComponent@@@std@@@std@@YAXPEAPEAVComponent@@QEAPEAV1@AEAV?$allocator@PEAVComponent@@@0@@Z 0000000140048470 f i main.obj
 0001:00047490       ??$_Destroy_range@V?$allocator@PEAVNode@@@std@@@std@@YAXPEAPEAVNode@@QEAPEAV1@AEAV?$allocator@PEAVNode@@@0@@Z 0000000140048490 f i main.obj
 0001:000474b0       ??$_Destroy_range@V?$allocator@PEAVSkinInstance@@@std@@@std@@YAXPEAPEAVSkinInstance@@QEAPEAV1@AEAV?$allocator@PEAVSkinInstance@@@0@@Z 00000001400484b0 f i main.obj
 0001:000474d0       ??$_Destroy_range@V?$allocator@U?$pair@V?$basic_string@DU?$char_traits@D@std@@V?$allocator@D@2@@std@@H@std@@@std@@@std@@YAXPEAU?$pair@V?$basic_string@DU?$char_traits@D@std@@V?$allocator@D@2@@std@@H@0@QEAU10@AEAV?$allocator@U?$pair@V?$basic_string@DU?$char_traits@D@std@@V?$allocator@D@2@@std@@H@std@@@0@@Z 00000001400484d0 f i main.obj
 0001:00047530       ??$_Destroy_range@V?$allocator@U?$pair@V?$basic_string@DU?$char_traits@D@std@@V?$allocator@D@2@@std@@V?$shared_ptr@VTexture2D@@@2@@std@@@std@@@std@@YAXPEAU?$pair@V?$basic_string@DU?$char_traits@D@std@@V?$allocator@D@2@@std@@V?$shared_ptr@VTexture2D@@@2@@0@QEAU10@AEAV?$allocator@U?$pair@V?$basic_string@DU?$char_traits@D@std@@V?$allocator@D@2@@std@@V?$shared_ptr@VTexture2D@@@2@@std@@@0@@Z 0000000140048530 f i main.obj
 0001:00047590       ??$_Destroy_range@V?$allocator@U?$quatt@M@@@std@@@std@@YAXPEAU?$quatt@M@@QEAU1@AEAV?$allocator@U?$quatt@M@@@0@@Z 0000000140048590 f i main.obj
 0001:000475b0       ??$_Destroy_range@V?$allocator@U?$vec2t@M@@@std@@@std@@YAXPEAU?$vec2t@M@@QEAU1@AEAV?$allocator@U?$vec2t@M@@@0@@Z 00000001400485b0 f i main.obj
 0001:000475d0       ??$_Destroy_range@V?$allocator@U?$vec3t@M@@@std@@@std@@YAXPEAU?$vec3t@M@@QEAU1@AEAV?$allocator@U?$vec3t@M@@@0@@Z 00000001400485d0 f i main.obj
 0001:000475f0       ??$_Destroy_range@V?$allocator@U?$vec4t@H@@@std@@@std@@YAXPEAU?$vec4t@H@@QEAU1@AEAV?$allocator@U?$vec4t@H@@@0@@Z 00000001400485f0 f i main.obj
 0001:00047610       ??$_Destroy_range@V?$allocator@U?$vec4t@M@@@std@@@std@@YAXPEAU?$vec4t@M@@QEAU1@AEAV?$allocator@U?$vec4t@M@@@0@@Z 0000000140048610 f i main.obj
 0001:00047630       ??$_Destroy_range@V?$allocator@UAccessor@gltf@@@std@@@std@@YAXPEAUAccessor@gltf@@QEAU12@AEAV?$allocator@UAccessor@gltf@@@0@@Z 0000000140048630 f i main.obj
 0001:00047690       ??$_Destroy_range@V?$allocator@UAnimation@gltf@@@std@@@std@@YAXPEAUAnimation@gltf@@QEAU12@AEAV?$allocator@UAnimation@gltf@@@0@@Z 0000000140048690 f i main.obj
 0001:000476f0       ??$_Destroy_range@V?$allocator@UAnimationChannel@gltf@@@std@@@std@@YAXPEAUAnimationChannel@gltf@@QEAU12@AEAV?$allocator@UAnimationChannel@gltf@@@0@@Z 00000001400486f0 f i main.obj
 0001:00047750       ??$_Destroy_range@V?$allocator@UAnimationSampler@gltf@@@std@@@std@@YAXPEAUAnimationSampler@gltf@@QEAU12@AEAV?$allocator@UAnimationSampler@gltf@@@0@@Z 0000000140048750 f i main.obj
 0001:000477b0       ??$_Destroy_range@V?$allocator@UBuffer@gltf@@@std@@@std@@YAXPEAUBuffer@gltf@@QEAU12@AEAV?$allocator@UBuffer@gltf@@@0@@Z 00000001400487b0 f i main.obj
 0001:00047810       ??$_Destroy_range@V?$allocator@UBufferView@gltf@@@std@@@std@@YAXPEAUBufferView@gltf@@QEAU12@AEAV?$allocator@UBufferView@gltf@@@0@@Z 0000000140048810 f i main.obj
 0001:00047870       ??$_Destroy_range@V?$allocator@UCamera@gltf@@@std@@@std@@YAXPEAUCamera@gltf@@QEAU12@AEAV?$allocator@UCamera@gltf@@@0@@Z 0000000140048870 f i main.obj
 0001:000478d0       ??$_Destroy_range@V?$allocator@UImage@gltf@@@std@@@std@@YAXPEAUImage@gltf@@QEAU12@AEAV?$allocator@UImage@gltf@@@0@@Z 00000001400488d0 f i main.obj
 0001:00047930       ??$_Destroy_range@V?$allocator@UMaterial@gltf@@@std@@@std@@YAXPEAUMaterial@gltf@@QEAU12@AEAV?$allocator@UMaterial@gltf@@@0@@Z 0000000140048930 f i main.obj
 0001:000479a0       ??$_Destroy_range@V?$allocator@UMesh@gltf@@@std@@@std@@YAXPEAUMesh@gltf@@QEAU12@AEAV?$allocator@UMesh@gltf@@@0@@Z 00000001400489a0 f i main.obj
 0001:00047a00       ??$_Destroy_range@V?$allocator@UMeshPrimitive@gltf@@@std@@@std@@YAXPEAUMeshPrimitive@gltf@@QEAU12@AEAV?$allocator@UMeshPrimitive@gltf@@@0@@Z 0000000140048a00 f i main.obj
 0001:00047a60       ??$_Destroy_range@V?$allocator@UNode@gltf@@@std@@@std@@YAXPEAUNode@gltf@@QEAU12@AEAV?$allocator@UNode@gltf@@@0@@Z 0000000140048a60 f i main.obj
 0001:00047ad0       ??$_Destroy_range@V?$allocator@USampler@gltf@@@std@@@std@@YAXPEAUSampler@gltf@@QEAU12@AEAV?$allocator@USampler@gltf@@@0@@Z 0000000140048ad0 f i main.obj
 0001:00047b30       ??$_Destroy_range@V?$allocator@UScene@gltf@@@std@@@std@@YAXPEAUScene@gltf@@QEAU12@AEAV?$allocator@UScene@gltf@@@0@@Z 0000000140048b30 f i main.obj
 0001:00047b90       ??$_Destroy_range@V?$allocator@USkin@gltf@@@std@@@std@@YAXPEAUSkin@gltf@@QEAU12@AEAV?$allocator@USkin@gltf@@@0@@Z 0000000140048b90 f i main.obj
 0001:00047bf0       ??$_Destroy_range@V?$allocator@UTexture@gltf@@@std@@@std@@YAXPEAUTexture@gltf@@QEAU12@AEAV?$allocator@UTexture@gltf@@@0@@Z 0000000140048bf0 f i main.obj
 0001:00047c50       ??$_Destroy_range@V?$allocator@Umat4@@@std@@@std@@YAXPEAUmat4@@QEAU1@AEAV?$allocator@Umat4@@@0@@Z 0000000140048c50 f i main.obj
 0001:00047c70       ??$_Destroy_range@V?$allocator@V?$basic_json@Vmap@std@@Vvector@2@V?$basic_string@DU?$char_traits@D@std@@V?$allocator@D@2@@2@_N_J_KNVallocator@2@Uadl_serializer@json_abi_v3_11_2@nlohmann@@V?$vector@EV?$allocator@E@std@@@2@X@json_abi_v3_11_2@nlohmann@@@std@@@std@@YAXPEAV?$basic_json@Vmap@std@@Vvector@2@V?$basic_string@DU?$char_traits@D@std@@V?$allocator@D@2@@2@_N_J_KNVallocator@2@Uadl_serializer@json_abi_v3_11_2@nlohmann@@V?$vector@EV?$allocator@E@std@@@2@X@json_abi_v3_11_2@nlohmann@@QEAV123@AEAV?$allocator@V?$basic_json@Vmap@std@@Vvector@2@V?$basic_string@DU?$char_traits@D@std@@V?$allocator@D@2@@2@_N_J_KNVallocator@2@Uadl_serializer@json_abi_v3_11_2@nlohmann@@V?$vector@EV?$allocator@E@std@@@2@X@json_abi_v3_11_2@nlohmann@@@0@@Z 0000000140048c70 f i main.obj
 0001:00047cd0       ??$_Destroy_range@V?$allocator@V?$basic_string@DU?$char_traits@D@std@@V?$allocator@D@2@@std@@@std@@@std@@YAXPEAV?$basic_string@DU?$char_traits@D@std@@V?$allocator@D@2@@0@QEAV10@AEAV?$allocator@V?$basic_string@DU?$char_traits@D@std@@V?$allocator@D@2@@std@@@0@@Z 0000000140048cd0 f i main.obj
 0001:00047d30       ??$_Destroy_range@V?$allocator@V?$shared_ptr@VAnimation@@@std@@@std@@@std@@YAXPEAV?$shared_ptr@VAnimation@@@0@QEAV10@AEAV?$allocator@V?$shared_ptr@VAnimation@@@std@@@0@@Z 0000000140048d30 f i main.obj
 0001:00047d90       ??$_Destroy_range@V?$allocator@V?$shared_ptr@VMaterial@@@std@@@std@@@std@@YAXPEAV?$shared_ptr@VMaterial@@@0@QEAV10@AEAV?$allocator@V?$shared_ptr@VMaterial@@@std@@@0@@Z 0000000140048d90 f i main.obj
 0001:00047df0       ??$_Destroy_range@V?$allocator@V?$shared_ptr@VMesh@@@std@@@std@@@std@@YAXPEAV?$shared_ptr@VMesh@@@0@QEAV10@AEAV?$allocator@V?$shared_ptr@VMesh@@@std@@@0@@Z 0000000140048df0 f i main.obj
 0001:00047e50       ??$_Destroy_range@V?$allocator@V?$shared_ptr@VSkin@@@std@@@std@@@std@@YAXPEAV?$shared_ptr@VSkin@@@0@QEAV10@AEAV?$allocator@V?$shared_ptr@VSkin@@@std@@@0@@Z 0000000140048e50 f i main.obj
 0001:00047eb0       ??$_Destroy_range@V?$allocator@V?$shared_ptr@VTexture2D@@@std@@@std@@@std@@YAXPEAV?$shared_ptr@VTexture2D@@@0@QEAV10@AEAV?$allocator@V?$shared_ptr@VTexture2D@@@std@@@0@@Z 0000000140048eb0 f i main.obj
 0001:00047f10       ??$_Destroy_range@V?$allocator@VAnimationChannel@@@std@@@std@@YAXPEAVAnimationChannel@@QEAV1@AEAV?$allocator@VAnimationChannel@@@0@@Z 0000000140048f10 f i main.obj
 0001:00047f30       ??$_Destroy_range@V?$allocator@VAnimationInstance@@@std@@@std@@YAXPEAVAnimationInstance@@QEAV1@AEAV?$allocator@VAnimationInstance@@@0@@Z 0000000140048f30 f i main.obj
 0001:00047f50       ??$_Destroy_range@V?$allocator@VAnimationInstanceView@@@std@@@std@@YAXPEAVAnimationInstanceView@@QEAV1@AEAV?$allocator@VAnimationInstanceView@@@0@@Z 0000000140048f50 f i main.obj
 0001:00047fb0       ??$_Destroy_range@V?$allocator@VAnimationSampler@@@std@@@std@@YAXPEAVAnimationSampler@@QEAV1@AEAV?$allocator@VAnimationSampler@@@0@@Z 0000000140048fb0 f i main.obj
 0001:00048010       ??$_Destroy_range@V?$allocator@VMeshPrimitive@@@std@@@std@@YAXPEAVMeshPrimitive@@QEAV1@AEAV?$allocator@VMeshPrimitive@@@0@@Z 0000000140049010 f i main.obj
 0001:00048080       ??$_Destroy_range@V?$allocator@VScene@@@std@@@std@@YAXPEAVScene@@QEAV1@AEAV?$allocator@VScene@@@0@@Z 0000000140049080 f i main.obj
 0001:000480e0       ??$_Destroy_range@V?$allocator@VSceneNode@@@std@@@std@@YAXPEAVSceneNode@@QEAV1@AEAV?$allocator@VSceneNode@@@0@@Z 00000001400490e0 f i main.obj
 0001:00048140       ??$_Emplace@V?$basic_string@DU?$char_traits@D@std@@V?$allocator@D@2@@std@@$$T@?$_Tree@V?$_Tmap_traits@V?$basic_string@DU?$char_traits@D@std@@V?$allocator@D@2@@std@@V?$basic_json@Vmap@std@@Vvector@2@V?$basic_string@DU?$char_traits@D@std@@V?$allocator@D@2@@2@_N_J_KNVallocator@2@Uadl_serializer@json_abi_v3_11_2@nlohmann@@V?$vector@EV?$allocator@E@std@@@2@X@json_abi_v3_11_2@nlohmann@@U?$less@X@2@V?$allocator@U?$pair@$$CBV?$basic_string@DU?$char_traits@D@std@@V?$allocator@D@2@@std@@V?$basic_json@Vmap@std@@Vvector@2@V?$basic_string@DU?$char_traits@D@std@@V?$allocator@D@2@@2@_N_J_KNVallocator@2@Uadl_serializer@json_abi_v3_11_2@nlohmann@@V?$vector@EV?$allocator@E@std@@@2@X@json_abi_v3_11_2@nlohmann@@@std@@@2@$0A@@std@@@std@@IEAA?AU?$pair@PEAU?$_Tree_node@U?$pair@$$CBV?$basic_string@DU?$char_traits@D@std@@V?$allocator@D@2@@std@@V?$basic_json@Vmap@std@@Vvector@2@V?$basic_string@DU?$char_traits@D@std@@V?$allocator@D@2@@2@_N_J_KNVallocator@2@Uadl_serializer@json_abi_v3_11_2@nlohmann@@V?$vector@EV?$allocator@E@std@@@2@X@json_abi_v3_11_2@nlohmann@@@std@@PEAX@std@@_N@1@$$QEAV?$basic_string@DU?$char_traits@D@std@@V?$allocator@D@2@@1@$$QEA$$T@Z 0000000140049140 f i main.obj
 0001:000482e0       ?allocate@?$_Default_allocator_traits@V?$allocator@V?$map@V?$basic_string@DU?$char_traits@D@std@@V?$allocator@D@2@@std@@V?$basic_json@Vmap@std@@Vvector@2@V?$basic_string@DU?$char_traits@D@std@@V?$allocator@D@2@@2@_N_J_KNVallocator@2@Uadl_serializer@json_abi_v3_11_2@nlohmann@@V?$vector@EV?$allocator@E@std@@@2@X@json_abi_v3_11_2@nlohmann@@U?$less@X@2@V?$allocator@U?$pair@$$CBV?$basic_string@DU?$char_traits@D@std@@V?$allocator@D@2@@std@@V?$basic_json@Vmap@std@@Vvector@2@V?$basic_string@DU?$char_traits@D@std@@V?$allocator@D@2@@2@_N_J_KNVallocator@2@Uadl_serializer@json_abi_v3_11_2@nlohmann@@V?$vector@EV?$allocator@E@std@@@2@X@json_abi_v3_11_2@nlohmann@@@std@@@2@@std@@@std@@@std@@SAPEAV?$map@V?$basic_string@DU?$char_traits@D@std@@V?$allocator@D@2@@std@@V?$basic_json@Vmap@std@@Vvector@2@V?$basic_string@DU?$char_traits@D@std@@V?$allocator@D@2@@2@_N_J_KNVallocator@2@Uadl_serializer@json_abi_v3_11_2@nlohmann@@V?$vector@EV?$allocator@E@std@@@2@X@json_abi_v3_11_2@nlohmann@@U?$less@X@2@V?$allocator@U?$pair@$$CBV?$basic_string@DU?$char_traits@D@std@@V?$allocator@D@2@@std@@V?$basic_json@Vmap@std@@Vvector@2@V?$basic_string@DU?$char_traits@D@std@@V?$allocator@D@2@@2@_N_J_KNVallocator@2@Uadl_serializer@json_abi_v3_11_2@nlohmann@@V?$vector@EV?$allocator@E@std@@@2@X@json_abi_v3_11_2@nlohmann@@@std@@@2@@2@AEAV?$allocator@V?$map@V?$basic_string@DU?$char_traits@D@std@@V?$allocator@D@2@@std@@V?$basic_json@Vmap@std@@Vvector@2@V?$basic_string@DU?$char_traits@D@std@@V?$allocator@D@2@@2@_N_J_KNVallocator@2@Uadl_serializer@json_abi_v3_11_2@nlohmann@@V?$vector@EV?$allocator@E@std@@@2@X@json_abi_v3_11_2@nlohmann@@U?$less@X@2@V?$allocator@U?$pair@$$CBV?$basic_string@DU?$char_traits@D@std@@V?$allocator@D@2@@std@@V?$basic_json@Vmap@std@@Vvector@2@V?$basic_string@DU?$char_traits@D@std@@V?$allocator@D@2@@2@_N_J_KNVallocator@2@Uadl_serializer@json_abi_v3_11_2@nlohmann@@V?$vector@EV?$allocator@E@std@@@2@X@json_abi_v3_11_2@nlohmann@@@std@@@2@@std@@@2@_K@Z 00000001400492e0 f i main.obj
 0001:00048350       ??$_Emplace_back@$$V@?$_Uninitialized_backout_al@V?$allocator@G@std@@@std@@QEAAXXZ 0000000140049350 f i main.obj
 0001:000483c0       ??$_Emplace_back@$$V@?$_Uninitialized_backout_al@V?$allocator@H@std@@@std@@QEAAXXZ 00000001400493c0 f i main.obj
 0001:00048430       ??$_Emplace_back@$$V@?$_Uninitialized_backout_al@V?$allocator@I@std@@@std@@QEAAXXZ 0000000140049430 f i main.obj
 0001:000484a0       ??$_Emplace_back@$$V@?$_Uninitialized_backout_al@V?$allocator@M@std@@@std@@QEAAXXZ 00000001400494a0 f i main.obj
 0001:00048510       ??$_Emplace_back@$$V@?$_Uninitialized_backout_al@V?$allocator@PEAVActor@@@std@@@std@@QEAAXXZ 0000000140049510 f i main.obj
 0001:00048580       ??$_Emplace_back@$$V@?$_Uninitialized_backout_al@V?$allocator@PEAVSkinInstance@@@std@@@std@@QEAAXXZ 0000000140049580 f i main.obj
 0001:000485f0       ??$_Emplace_back@$$V@?$_Uninitialized_backout_al@V?$allocator@U?$quatt@M@@@std@@@std@@QEAAXXZ 00000001400495f0 f i main.obj
 0001:00048660       ??$_Emplace_back@$$V@?$_Uninitialized_backout_al@V?$allocator@U?$vec2t@M@@@std@@@std@@QEAAXXZ 0000000140049660 f i main.obj
 0001:000486d0       ??$_Emplace_back@$$V@?$_Uninitialized_backout_al@V?$allocator@U?$vec3t@M@@@std@@@std@@QEAAXXZ 00000001400496d0 f i main.obj
 0001:00048740       ??$_Emplace_back@$$V@?$_Uninitialized_backout_al@V?$allocator@Umat4@@@std@@@std@@QEAAXXZ 0000000140049740 f i main.obj
 0001:000487b0       ??$_Emplace_back@$$V@?$_Uninitialized_backout_al@V?$allocator@V?$shared_ptr@VAnimation@@@std@@@std@@@std@@QEAAXXZ 00000001400497b0 f i main.obj
 0001:00048820       ??$_Emplace_back@$$V@?$_Uninitialized_backout_al@V?$allocator@V?$shared_ptr@VMaterial@@@std@@@std@@@std@@QEAAXXZ 0000000140049820 f i main.obj
 0001:00048890       ??$_Emplace_back@$$V@?$_Uninitialized_backout_al@V?$allocator@V?$shared_ptr@VMesh@@@std@@@std@@@std@@QEAAXXZ 0000000140049890 f i main.obj
 0001:00048900       ??$_Emplace_back@$$V@?$_Uninitialized_backout_al@V?$allocator@V?$shared_ptr@VSkin@@@std@@@std@@@std@@QEAAXXZ 0000000140049900 f i main.obj
 0001:00048970       ??$_Emplace_back@$$V@?$_Uninitialized_backout_al@V?$allocator@V?$shared_ptr@VTexture2D@@@std@@@std@@@std@@QEAAXXZ 0000000140049970 f i main.obj
 0001:000489e0       ??$_Emplace_back@$$V@?$_Uninitialized_backout_al@V?$allocator@VAnimationChannel@@@std@@@std@@QEAAXXZ 00000001400499e0 f i main.obj
 0001:00048a50       ??$_Emplace_back@$$V@?$_Uninitialized_backout_al@V?$allocator@VAnimationInstance@@@std@@@std@@QEAAXXZ 0000000140049a50 f i main.obj
 0001:00048ac0       ??$_Emplace_back@$$V@?$_Uninitialized_backout_al@V?$allocator@VAnimationSampler@@@std@@@std@@QEAAXXZ 0000000140049ac0 f i main.obj
 0001:00048b30       ??$_Emplace_back@$$V@?$_Uninitialized_backout_al@V?$allocator@VMeshPrimitive@@@std@@@std@@QEAAXXZ 0000000140049b30 f i main.obj
 0001:00048ba0       ??$_Emplace_back@$$V@?$_Uninitialized_backout_al@V?$allocator@VScene@@@std@@@std@@QEAAXXZ 0000000140049ba0 f i main.obj
 0001:00048c10       ??$_Emplace_back@$$V@?$_Uninitialized_backout_al@V?$allocator@VSceneNode@@@std@@@std@@QEAAXXZ 0000000140049c10 f i main.obj
 0001:00048c80       ??$_Emplace_back@AEAE@?$_Uninitialized_backout_al@V?$allocator@E@std@@@std@@QEAAXAEAE@Z 0000000140049c80 f i main.obj
 0001:00048d00       ??$_Emplace_back@AEAG@?$_Uninitialized_backout_al@V?$allocator@I@std@@@std@@QEAAXAEAG@Z 0000000140049d00 f i main.obj
 0001:00048d80       ??$_Emplace_back@AEAH@?$_Uninitialized_backout_al@V?$allocator@H@std@@@std@@QEAAXAEAH@Z 0000000140049d80 f i main.obj
 0001:00048e00       ??$_Emplace_back@AEAI@?$_Uninitialized_backout_al@V?$allocator@I@std@@@std@@QEAAXAEAI@Z 0000000140049e00 f i main.obj
 0001:00048e80       ??$_Emplace_back@AEAM@?$_Uninitialized_backout_al@V?$allocator@M@std@@@std@@QEAAXAEAM@Z 0000000140049e80 f i main.obj
 0001:00048f00       ??$_Emplace_back@AEAU?$pair@V?$basic_string@DU?$char_traits@D@std@@V?$allocator@D@2@@std@@H@std@@@?$_Uninitialized_backout_al@V?$allocator@U?$pair@V?$basic_string@DU?$char_traits@D@std@@V?$allocator@D@2@@std@@H@std@@@std@@@std@@QEAAXAEAU?$pair@V?$basic_string@DU?$char_traits@D@std@@V?$allocator@D@2@@std@@H@1@@Z 0000000140049f00 f i main.obj
 0001:00048f80       ??$_Emplace_back@AEAU?$vec2t@M@@@?$_Uninitialized_backout_al@V?$allocator@U?$vec2t@M@@@std@@@std@@QEAAXAEAU?$vec2t@M@@@Z 0000000140049f80 f i main.obj
 0001:00049000       ??$_Emplace_back@AEAU?$vec3t@M@@@?$_Uninitialized_backout_al@V?$allocator@U?$vec3t@M@@@std@@@std@@QEAAXAEAU?$vec3t@M@@@Z 000000014004a000 f i main.obj
 0001:00049080       ??$_Emplace_back@AEAU?$vec4t@H@@@?$_Uninitialized_backout_al@V?$allocator@U?$vec4t@H@@@std@@@std@@QEAAXAEAU?$vec4t@H@@@Z 000000014004a080 f i main.obj
 0001:00049100       ??$_Emplace_back@AEAU?$vec4t@M@@@?$_Uninitialized_backout_al@V?$allocator@U?$vec4t@M@@@std@@@std@@QEAAXAEAU?$vec4t@M@@@Z 000000014004a100 f i main.obj
 0001:00049180       ??$_Emplace_back@AEAUAnimationChannel@gltf@@@?$_Uninitialized_backout_al@V?$allocator@UAnimationChannel@gltf@@@std@@@std@@QEAAXAEAUAnimationChannel@gltf@@@Z 000000014004a180 f i main.obj
 0001:00049200       ??$_Emplace_back@AEAUAnimationSampler@gltf@@@?$_Uninitialized_backout_al@V?$allocator@UAnimationSampler@gltf@@@std@@@std@@QEAAXAEAUAnimationSampler@gltf@@@Z 000000014004a200 f i main.obj
 0001:00049280       ??$_Emplace_back@AEAUMeshPrimitive@gltf@@@?$_Uninitialized_backout_al@V?$allocator@UMeshPrimitive@gltf@@@std@@@std@@QEAAXAEAUMeshPrimitive@gltf@@@Z 000000014004a280 f i main.obj
 0001:00049300       ??$_Emplace_back@AEAUmat4@@@?$_Uninitialized_backout_al@V?$allocator@Umat4@@@std@@@std@@QEAAXAEAUmat4@@@Z 000000014004a300 f i main.obj
 0001:00049380       ??$_Emplace_back@AEAV?$basic_json@Vmap@std@@Vvector@2@V?$basic_string@DU?$char_traits@D@std@@V?$allocator@D@2@@2@_N_J_KNVallocator@2@Uadl_serializer@json_abi_v3_11_2@nlohmann@@V?$vector@EV?$allocator@E@std@@@2@X@json_abi_v3_11_2@nlohmann@@@?$_Uninitialized_backout_al@V?$allocator@V?$basic_json@Vmap@std@@Vvector@2@V?$basic_string@DU?$char_traits@D@std@@V?$allocator@D@2@@2@_N_J_KNVallocator@2@Uadl_serializer@json_abi_v3_11_2@nlohmann@@V?$vector@EV?$allocator@E@std@@@2@X@json_abi_v3_11_2@nlohmann@@@std@@@std@@QEAAXAEAV?$basic_json@Vmap@std@@Vvector@2@V?$basic_string@DU?$char_traits@D@std@@V?$allocator@D@2@@2@_N_J_KNVallocator@2@Uadl_serializer@json_abi_v3_11_2@nlohmann@@V?$vector@EV?$allocator@E@std@@@2@X@json_abi_v3_11_2@nlohmann@@@Z 000000014004a380 f i main.obj
 0001:00049400       ??$_Emplace_back@AEAVMeshPrimitive@@@?$_Uninitialized_backout_al@V?$allocator@VMeshPrimitive@@@std@@@std@@QEAAXAEAVMeshPrimitive@@@Z 000000014004a400 f i main.obj
 0001:00049480       ??$_Emplace_back@AEAVSceneNode@@@?$_Uninitialized_backout_al@V?$allocator@VSceneNode@@@std@@@std@@QEAAXAEAVSceneNode@@@Z 000000014004a480 f i main.obj
 0001:00049500       ??$_Emplace_back@AEBI@?$_Uninitialized_backout_al@V?$allocator@I@std@@@std@@QEAAXAEBI@Z 000000014004a500 f i main.obj
 0001:00049580       ??$_Emplace_back@AEBU?$vec2t@M@@@?$_Uninitialized_backout_al@V?$allocator@U?$vec2t@M@@@std@@@std@@QEAAXAEBU?$vec2t@M@@@Z 000000014004a580 f i main.obj
 0001:00049600       ??$_Emplace_back@AEBU?$vec3t@M@@@?$_Uninitialized_backout_al@V?$allocator@U?$vec3t@M@@@std@@@std@@QEAAXAEBU?$vec3t@M@@@Z 000000014004a600 f i main.obj
 0001:00049680       ??$_Emplace_back@D@?$_Uninitialized_backout_al@V?$allocator@D@std@@@std@@QEAAX$$QEAD@Z 000000014004a680 f i main.obj
 0001:00049700       ??$_Emplace_back@G@?$_Uninitialized_backout_al@V?$allocator@G@std@@@std@@QEAAX$$QEAG@Z 000000014004a700 f i main.obj
 0001:00049780       ??$_Emplace_back@H@?$_Uninitialized_backout_al@V?$allocator@H@std@@@std@@QEAAX$$QEAH@Z 000000014004a780 f i main.obj
 0001:00049800       ??$_Emplace_back@I@?$_Uninitialized_backout_al@V?$allocator@I@std@@@std@@QEAAX$$QEAI@Z 000000014004a800 f i main.obj
 0001:00049880       ??$_Emplace_back@M@?$_Uninitialized_backout_al@V?$allocator@M@std@@@std@@QEAAX$$QEAM@Z 000000014004a880 f i main.obj
 0001:00049900       ??$_Emplace_back@PEAV?$basic_json@Vmap@std@@Vvector@2@V?$basic_string@DU?$char_traits@D@std@@V?$allocator@D@2@@2@_N_J_KNVallocator@2@Uadl_serializer@json_abi_v3_11_2@nlohmann@@V?$vector@EV?$allocator@E@std@@@2@X@json_abi_v3_11_2@nlohmann@@@?$_Uninitialized_backout_al@V?$allocator@PEAV?$basic_json@Vmap@std@@Vvector@2@V?$basic_string@DU?$char_traits@D@std@@V?$allocator@D@2@@2@_N_J_KNVallocator@2@Uadl_serializer@json_abi_v3_11_2@nlohmann@@V?$vector@EV?$allocator@E@std@@@2@X@json_abi_v3_11_2@nlohmann@@@std@@@std@@QEAAX$$QEAPEAV?$basic_json@Vmap@std@@Vvector@2@V?$basic_string@DU?$char_traits@D@std@@V?$allocator@D@2@@2@_N_J_KNVallocator@2@Uadl_serializer@json_abi_v3_11_2@nlohmann@@V?$vector@EV?$allocator@E@std@@@2@X@json_abi_v3_11_2@nlohmann@@@Z 000000014004a900 f i main.obj
 0001:00049980       ??$_Emplace_back@PEAVActor@@@?$_Uninitialized_backout_al@V?$allocator@PEAVActor@@@std@@@std@@QEAAX$$QEAPEAVActor@@@Z 000000014004a980 f i main.obj
 0001:00049a00       ??$_Emplace_back@PEAVAnimationChannel@@@?$_Uninitialized_backout_al@V?$allocator@PEAVAnimationChannel@@@std@@@std@@QEAAX$$QEAPEAVAnimationChannel@@@Z 000000014004aa00 f i main.obj
 0001:00049a80       ??$_Emplace_back@PEAVComponent@@@?$_Uninitialized_backout_al@V?$allocator@PEAVComponent@@@std@@@std@@QEAAX$$QEAPEAVComponent@@@Z 000000014004aa80 f i main.obj
 0001:00049b00       ??$_Emplace_back@PEAVNode@@@?$_Uninitialized_backout_al@V?$allocator@PEAVNode@@@std@@@std@@QEAAX$$QEAPEAVNode@@@Z 000000014004ab00 f i main.obj
 0001:00049b80       ??$_Emplace_back@PEAVSkinInstance@@@?$_Uninitialized_backout_al@V?$allocator@PEAVSkinInstance@@@std@@@std@@QEAAX$$QEAPEAVSkinInstance@@@Z 000000014004ab80 f i main.obj
 0001:00049c00       ??$_Emplace_back@U?$pair@V?$basic_string@DU?$char_traits@D@std@@V?$allocator@D@2@@std@@H@std@@@?$_Uninitialized_backout_al@V?$allocator@U?$pair@V?$basic_string@DU?$char_traits@D@std@@V?$allocator@D@2@@std@@H@std@@@std@@@std@@QEAAX$$QEAU?$pair@V?$basic_string@DU?$char_traits@D@std@@V?$allocator@D@2@@std@@H@1@@Z 000000014004ac00 f i main.obj
 0001:00049c80       ??$_Emplace_back@U?$pair@V?$basic_string@DU?$char_traits@D@std@@V?$allocator@D@2@@std@@V?$shared_ptr@VTexture2D@@@2@@std@@@?$_Uninitialized_backout_al@V?$allocator@U?$pair@V?$basic_string@DU?$char_traits@D@std@@V?$allocator@D@2@@std@@V?$shared_ptr@VTexture2D@@@2@@std@@@std@@@std@@QEAAX$$QEAU?$pair@V?$basic_string@DU?$char_traits@D@std@@V?$allocator@D@2@@std@@V?$shared_ptr@VTexture2D@@@2@@1@@Z 000000014004ac80 f i main.obj
 0001:00049d00       ??$_Emplace_back@U?$quatt@M@@@?$_Uninitialized_backout_al@V?$allocator@U?$quatt@M@@@std@@@std@@QEAAX$$QEAU?$quatt@M@@@Z 000000014004ad00 f i main.obj
 0001:00049d80       ??$_Emplace_back@UAccessor@gltf@@@?$_Uninitialized_backout_al@V?$allocator@UAccessor@gltf@@@std@@@std@@QEAAX$$QEAUAccessor@gltf@@@Z 000000014004ad80 f i main.obj
 0001:00049e00       ??$_Emplace_back@UAnimation@gltf@@@?$_Uninitialized_backout_al@V?$allocator@UAnimation@gltf@@@std@@@std@@QEAAX$$QEAUAnimation@gltf@@@Z 000000014004ae00 f i main.obj
 0001:00049e80       ??$_Emplace_back@UAnimationChannel@gltf@@@?$_Uninitialized_backout_al@V?$allocator@UAnimationChannel@gltf@@@std@@@std@@QEAAX$$QEAUAnimationChannel@gltf@@@Z 000000014004ae80 f i main.obj
 0001:00049f00       ??$_Emplace_back@UAnimationSampler@gltf@@@?$_Uninitialized_backout_al@V?$allocator@UAnimationSampler@gltf@@@std@@@std@@QEAAX$$QEAUAnimationSampler@gltf@@@Z 000000014004af00 f i main.obj
 0001:00049f80       ??$_Emplace_back@UBuffer@gltf@@@?$_Uninitialized_backout_al@V?$allocator@UBuffer@gltf@@@std@@@std@@QEAAX$$QEAUBuffer@gltf@@@Z 000000014004af80 f i main.obj
 0001:0004a000       ??$_Emplace_back@UBufferView@gltf@@@?$_Uninitialized_backout_al@V?$allocator@UBufferView@gltf@@@std@@@std@@QEAAX$$QEAUBufferView@gltf@@@Z 000000014004b000 f i main.obj
 0001:0004a080       ??$_Emplace_back@UImage@gltf@@@?$_Uninitialized_backout_al@V?$allocator@UImage@gltf@@@std@@@std@@QEAAX$$QEAUImage@gltf@@@Z 000000014004b080 f i main.obj
 0001:0004a100       ??$_Emplace_back@UMaterial@gltf@@@?$_Uninitialized_backout_al@V?$allocator@UMaterial@gltf@@@std@@@std@@QEAAX$$QEAUMaterial@gltf@@@Z 000000014004b100 f i main.obj
 0001:0004a180       ??$_Emplace_back@UMesh@gltf@@@?$_Uninitialized_backout_al@V?$allocator@UMesh@gltf@@@std@@@std@@QEAAX$$QEAUMesh@gltf@@@Z 000000014004b180 f i main.obj
 0001:0004a200       ??$_Emplace_back@UMeshPrimitive@gltf@@@?$_Uninitialized_backout_al@V?$allocator@UMeshPrimitive@gltf@@@std@@@std@@QEAAX$$QEAUMeshPrimitive@gltf@@@Z 000000014004b200 f i main.obj
 0001:0004a280       ??$_Emplace_back@UNode@gltf@@@?$_Uninitialized_backout_al@V?$allocator@UNode@gltf@@@std@@@std@@QEAAX$$QEAUNode@gltf@@@Z 000000014004b280 f i main.obj
 0001:0004a300       ??$_Emplace_back@USampler@gltf@@@?$_Uninitialized_backout_al@V?$allocator@USampler@gltf@@@std@@@std@@QEAAX$$QEAUSampler@gltf@@@Z 000000014004b300 f i main.obj
 0001:0004a380       ??$_Emplace_back@UScene@gltf@@@?$_Uninitialized_backout_al@V?$allocator@UScene@gltf@@@std@@@std@@QEAAX$$QEAUScene@gltf@@@Z 000000014004b380 f i main.obj
 0001:0004a400       ??$_Emplace_back@USkin@gltf@@@?$_Uninitialized_backout_al@V?$allocator@USkin@gltf@@@std@@@std@@QEAAX$$QEAUSkin@gltf@@@Z 000000014004b400 f i main.obj
 0001:0004a480       ??$_Emplace_back@UTexture@gltf@@@?$_Uninitialized_backout_al@V?$allocator@UTexture@gltf@@@std@@@std@@QEAAX$$QEAUTexture@gltf@@@Z 000000014004b480 f i main.obj
 0001:0004a500       ??$_Emplace_back@V?$basic_json@Vmap@std@@Vvector@2@V?$basic_string@DU?$char_traits@D@std@@V?$allocator@D@2@@2@_N_J_KNVallocator@2@Uadl_serializer@json_abi_v3_11_2@nlohmann@@V?$vector@EV?$allocator@E@std@@@2@X@json_abi_v3_11_2@nlohmann@@@?$_Uninitialized_backout_al@V?$allocator@V?$basic_json@Vmap@std@@Vvector@2@V?$basic_string@DU?$char_traits@D@std@@V?$allocator@D@2@@2@_N_J_KNVallocator@2@Uadl_serializer@json_abi_v3_11_2@nlohmann@@V?$vector@EV?$allocator@E@std@@@2@X@json_abi_v3_11_2@nlohmann@@@std@@@std@@QEAAX$$QEAV?$basic_json@Vmap@std@@Vvector@2@V?$basic_string@DU?$char_traits@D@std@@V?$allocator@D@2@@2@_N_J_KNVallocator@2@Uadl_serializer@json_abi_v3_11_2@nlohmann@@V?$vector@EV?$allocator@E@std@@@2@X@json_abi_v3_11_2@nlohmann@@@Z 000000014004b500 f i main.obj
 0001:0004a580       ??$_Emplace_back@V?$basic_string@DU?$char_traits@D@std@@V?$allocator@D@2@@std@@@?$_Uninitialized_backout_al@V?$allocator@V?$basic_string@DU?$char_traits@D@std@@V?$allocator@D@2@@std@@@std@@@std@@QEAAX$$QEAV?$basic_string@DU?$char_traits@D@std@@V?$allocator@D@2@@1@@Z 000000014004b580 f i main.obj
 0001:0004a600       ??$_Emplace_back@V?$shared_ptr@VAnimation@@@std@@@?$_Uninitialized_backout_al@V?$allocator@V?$shared_ptr@VAnimation@@@std@@@std@@@std@@QEAAX$$QEAV?$shared_ptr@VAnimation@@@1@@Z 000000014004b600 f i main.obj
 0001:0004a680       ??$_Emplace_back@V?$shared_ptr@VMaterial@@@std@@@?$_Uninitialized_backout_al@V?$allocator@V?$shared_ptr@VMaterial@@@std@@@std@@@std@@QEAAX$$QEAV?$shared_ptr@VMaterial@@@1@@Z 000000014004b680 f i main.obj
 0001:0004a700       ??$_Emplace_back@V?$shared_ptr@VMesh@@@std@@@?$_Uninitialized_backout_al@V?$allocator@V?$shared_ptr@VMesh@@@std@@@std@@@std@@QEAAX$$QEAV?$shared_ptr@VMesh@@@1@@Z 000000014004b700 f i main.obj
 0001:0004a780       ??$_Emplace_back@V?$shared_ptr@VSkin@@@std@@@?$_Uninitialized_backout_al@V?$allocator@V?$shared_ptr@VSkin@@@std@@@std@@@std@@QEAAX$$QEAV?$shared_ptr@VSkin@@@1@@Z 000000014004b780 f i main.obj
 0001:0004a800       ??$_Emplace_back@V?$shared_ptr@VTexture2D@@@std@@@?$_Uninitialized_backout_al@V?$allocator@V?$shared_ptr@VTexture2D@@@std@@@std@@@std@@QEAAX$$QEAV?$shared_ptr@VTexture2D@@@1@@Z 000000014004b800 f i main.obj
 0001:0004a880       ??$_Emplace_back@VAnimationChannel@@@?$_Uninitialized_backout_al@V?$allocator@VAnimationChannel@@@std@@@std@@QEAAX$$QEAVAnimationChannel@@@Z 000000014004b880 f i main.obj
 0001:0004a900       ??$_Emplace_back@VAnimationInstance@@@?$_Uninitialized_backout_al@V?$allocator@VAnimationInstance@@@std@@@std@@QEAAX$$QEAVAnimationInstance@@@Z 000000014004b900 f i main.obj
 0001:0004a980       ??$_Emplace_back@VAnimationInstanceView@@@?$_Uninitialized_backout_al@V?$allocator@VAnimationInstanceView@@@std@@@std@@QEAAX$$QEAVAnimationInstanceView@@@Z 000000014004b980 f i main.obj
 0001:0004aa00       ??$_Emplace_back@VAnimationSampler@@@?$_Uninitialized_backout_al@V?$allocator@VAnimationSampler@@@std@@@std@@QEAAX$$QEAVAnimationSampler@@@Z 000000014004ba00 f i main.obj
 0001:0004aa80       ??$_Emplace_back@VScene@@@?$_Uninitialized_backout_al@V?$allocator@VScene@@@std@@@std@@QEAAX$$QEAVScene@@@Z 000000014004ba80 f i main.obj
 0001:0004ab00       ??$_Emplace_back_with_unused_capacity@$$T@?$vector@V?$basic_json@Vmap@std@@Vvector@2@V?$basic_string@DU?$char_traits@D@std@@V?$allocator@D@2@@2@_N_J_KNVallocator@2@Uadl_serializer@json_abi_v3_11_2@nlohmann@@V?$vector@EV?$allocator@E@std@@@2@X@json_abi_v3_11_2@nlohmann@@V?$allocator@V?$basic_json@Vmap@std@@Vvector@2@V?$basic_string@DU?$char_traits@D@std@@V?$allocator@D@2@@2@_N_J_KNVallocator@2@Uadl_serializer@json_abi_v3_11_2@nlohmann@@V?$vector@EV?$allocator@E@std@@@2@X@json_abi_v3_11_2@nlohmann@@@std@@@std@@AEAAAEAV?$basic_json@Vmap@std@@Vvector@2@V?$basic_string@DU?$char_traits@D@std@@V?$allocator@D@2@@2@_N_J_KNVallocator@2@Uadl_serializer@json_abi_v3_11_2@nlohmann@@V?$vector@EV?$allocator@E@std@@@2@X@json_abi_v3_11_2@nlohmann@@$$QEA$$T@Z 000000014004bb00 f i main.obj
 0001:0004aba0       ??$_Emplace_back_with_unused_capacity@AEAN@?$vector@V?$basic_json@Vmap@std@@Vvector@2@V?$basic_string@DU?$char_traits@D@std@@V?$allocator@D@2@@2@_N_J_KNVallocator@2@Uadl_serializer@json_abi_v3_11_2@nlohmann@@V?$vector@EV?$allocator@E@std@@@2@X@json_abi_v3_11_2@nlohmann@@V?$allocator@V?$basic_json@Vmap@std@@Vvector@2@V?$basic_string@DU?$char_traits@D@std@@V?$allocator@D@2@@2@_N_J_KNVallocator@2@Uadl_serializer@json_abi_v3_11_2@nlohmann@@V?$vector@EV?$allocator@E@std@@@2@X@json_abi_v3_11_2@nlohmann@@@std@@@std@@AEAAAEAV?$basic_json@Vmap@std@@Vvector@2@V?$basic_string@DU?$char_traits@D@std@@V?$allocator@D@2@@2@_N_J_KNVallocator@2@Uadl_serializer@json_abi_v3_11_2@nlohmann@@V?$vector@EV?$allocator@E@std@@@2@X@json_abi_v3_11_2@nlohmann@@AEAN@Z 000000014004bba0 f i main.obj
 0001:0004ac40       ??$_Emplace_back_with_unused_capacity@AEAV?$basic_string@DU?$char_traits@D@std@@V?$allocator@D@2@@std@@@?$vector@V?$basic_json@Vmap@std@@Vvector@2@V?$basic_string@DU?$char_traits@D@std@@V?$allocator@D@2@@2@_N_J_KNVallocator@2@Uadl_serializer@json_abi_v3_11_2@nlohmann@@V?$vector@EV?$allocator@E@std@@@2@X@json_abi_v3_11_2@nlohmann@@V?$allocator@V?$basic_json@Vmap@std@@Vvector@2@V?$basic_string@DU?$char_traits@D@std@@V?$allocator@D@2@@2@_N_J_KNVallocator@2@Uadl_serializer@json_abi_v3_11_2@nlohmann@@V?$vector@EV?$allocator@E@std@@@2@X@json_abi_v3_11_2@nlohmann@@@std@@@std@@AEAAAEAV?$basic_json@Vmap@std@@Vvector@2@V?$basic_string@DU?$char_traits@D@std@@V?$allocator@D@2@@2@_N_J_KNVallocator@2@Uadl_serializer@json_abi_v3_11_2@nlohmann@@V?$vector@EV?$allocator@E@std@@@2@X@json_abi_v3_11_2@nlohmann@@AEAV?$basic_string@DU?$char_traits@D@std@@V?$allocator@D@2@@1@@Z 000000014004bc40 f i main.obj
 0001:0004ad10       ??$_Emplace_back_with_unused_capacity@AEA_J@?$vector@V?$basic_json@Vmap@std@@Vvector@2@V?$basic_string@DU?$char_traits@D@std@@V?$allocator@D@2@@2@_N_J_KNVallocator@2@Uadl_serializer@json_abi_v3_11_2@nlohmann@@V?$vector@EV?$allocator@E@std@@@2@X@json_abi_v3_11_2@nlohmann@@V?$allocator@V?$basic_json@Vmap@std@@Vvector@2@V?$basic_string@DU?$char_traits@D@std@@V?$allocator@D@2@@2@_N_J_KNVallocator@2@Uadl_serializer@json_abi_v3_11_2@nlohmann@@V?$vector@EV?$allocator@E@std@@@2@X@json_abi_v3_11_2@nlohmann@@@std@@@std@@AEAAAEAV?$basic_json@Vmap@std@@Vvector@2@V?$basic_string@DU?$char_traits@D@std@@V?$allocator@D@2@@2@_N_J_KNVallocator@2@Uadl_serializer@json_abi_v3_11_2@nlohmann@@V?$vector@EV?$allocator@E@std@@@2@X@json_abi_v3_11_2@nlohmann@@AEA_J@Z 000000014004bd10 f i main.obj
 0001:0004adb0       ??$_Emplace_back_with_unused_capacity@AEA_K@?$vector@V?$basic_json@Vmap@std@@Vvector@2@V?$basic_string@DU?$char_traits@D@std@@V?$allocator@D@2@@2@_N_J_KNVallocator@2@Uadl_serializer@json_abi_v3_11_2@nlohmann@@V?$vector@EV?$allocator@E@std@@@2@X@json_abi_v3_11_2@nlohmann@@V?$allocator@V?$basic_json@Vmap@std@@Vvector@2@V?$basic_string@DU?$char_traits@D@std@@V?$allocator@D@2@@2@_N_J_KNVallocator@2@Uadl_serializer@json_abi_v3_11_2@nlohmann@@V?$vector@EV?$allocator@E@std@@@2@X@json_abi_v3_11_2@nlohmann@@@std@@@std@@AEAAAEAV?$basic_json@Vmap@std@@Vvector@2@V?$basic_string@DU?$char_traits@D@std@@V?$allocator@D@2@@2@_N_J_KNVallocator@2@Uadl_serializer@json_abi_v3_11_2@nlohmann@@V?$vector@EV?$allocator@E@std@@@2@X@json_abi_v3_11_2@nlohmann@@AEA_K@Z 000000014004bdb0 f i main.obj
 0001:0004ae50       ??$_Emplace_back_with_unused_capacity@AEA_N@?$vector@V?$basic_json@Vmap@std@@Vvector@2@V?$basic_string@DU?$char_traits@D@std@@V?$allocator@D@2@@2@_N_J_KNVallocator@2@Uadl_serializer@json_abi_v3_11_2@nlohmann@@V?$vector@EV?$allocator@E@std@@@2@X@json_abi_v3_11_2@nlohmann@@V?$allocator@V?$basic_json@Vmap@std@@Vvector@2@V?$basic_string@DU?$char_traits@D@std@@V?$allocator@D@2@@2@_N_J_KNVallocator@2@Uadl_serializer@json_abi_v3_11_2@nlohmann@@V?$vector@EV?$allocator@E@std@@@2@X@json_abi_v3_11_2@nlohmann@@@std@@@std@@AEAAAEAV?$basic_json@Vmap@std@@Vvector@2@V?$basic_string@DU?$char_traits@D@std@@V?$allocator@D@2@@2@_N_J_KNVallocator@2@Uadl_serializer@json_abi_v3_11_2@nlohmann@@V?$vector@EV?$allocator@E@std@@@2@X@json_abi_v3_11_2@nlohmann@@AEA_N@Z 000000014004be50 f i main.obj
 0001:0004aef0       ??$_Emplace_back_with_unused_capacity@AEBH@?$vector@HV?$allocator@H@std@@@std@@AEAAAEAHAEBH@Z 000000014004bef0 f i main.obj
 0001:0004af90       ??$_Emplace_back_with_unused_capacity@AEBQEAV?$basic_json@Vmap@std@@Vvector@2@V?$basic_string@DU?$char_traits@D@std@@V?$allocator@D@2@@2@_N_J_KNVallocator@2@Uadl_serializer@json_abi_v3_11_2@nlohmann@@V?$vector@EV?$allocator@E@std@@@2@X@json_abi_v3_11_2@nlohmann@@@?$vector@PEAV?$basic_json@Vmap@std@@Vvector@2@V?$basic_string@DU?$char_traits@D@std@@V?$allocator@D@2@@2@_N_J_KNVallocator@2@Uadl_serializer@json_abi_v3_11_2@nlohmann@@V?$vector@EV?$allocator@E@std@@@2@X@json_abi_v3_11_2@nlohmann@@V?$allocator@PEAV?$basic_json@Vmap@std@@Vvector@2@V?$basic_string@DU?$char_traits@D@std@@V?$allocator@D@2@@2@_N_J_KNVallocator@2@Uadl_serializer@json_abi_v3_11_2@nlohmann@@V?$vector@EV?$allocator@E@std@@@2@X@json_abi_v3_11_2@nlohmann@@@std@@@std@@AEAAAEAPEAV?$basic_json@Vmap@std@@Vvector@2@V?$basic_string@DU?$char_traits@D@std@@V?$allocator@D@2@@2@_N_J_KNVallocator@2@Uadl_serializer@json_abi_v3_11_2@nlohmann@@V?$vector@EV?$allocator@E@std@@@2@X@json_abi_v3_11_2@nlohmann@@AEBQEAV234@@Z 000000014004bf90 f i main.obj
 0001:0004b030       ??$_Emplace_back_with_unused_capacity@AEBQEAVAnimationChannel@@@?$vector@PEAVAnimationChannel@@V?$allocator@PEAVAnimationChannel@@@std@@@std@@AEAAAEAPEAVAnimationChannel@@AEBQEAV2@@Z 000000014004c030 f i main.obj
 0001:0004b0d0       ??$_Emplace_back_with_unused_capacity@AEBUAccessor@gltf@@@?$vector@UAccessor@gltf@@V?$allocator@UAccessor@gltf@@@std@@@std@@AEAAAEAUAccessor@gltf@@AEBU23@@Z 000000014004c0d0 f i main.obj
 0001:0004b1a0       ??$_Emplace_back_with_unused_capacity@AEBUAnimation@gltf@@@?$vector@UAnimation@gltf@@V?$allocator@UAnimation@gltf@@@std@@@std@@AEAAAEAUAnimation@gltf@@AEBU23@@Z 000000014004c1a0 f i main.obj
 0001:0004b270       ??$_Emplace_back_with_unused_capacity@AEBUAnimationChannel@gltf@@@?$vector@UAnimationChannel@gltf@@V?$allocator@UAnimationChannel@gltf@@@std@@@std@@AEAAAEAUAnimationChannel@gltf@@AEBU23@@Z 000000014004c270 f i main.obj
 0001:0004b340       ??$_Emplace_back_with_unused_capacity@AEBUAnimationSampler@gltf@@@?$vector@UAnimationSampler@gltf@@V?$allocator@UAnimationSampler@gltf@@@std@@@std@@AEAAAEAUAnimationSampler@gltf@@AEBU23@@Z 000000014004c340 f i main.obj
 0001:0004b410       ??$_Emplace_back_with_unused_capacity@AEBUBuffer@gltf@@@?$vector@UBuffer@gltf@@V?$allocator@UBuffer@gltf@@@std@@@std@@AEAAAEAUBuffer@gltf@@AEBU23@@Z 000000014004c410 f i main.obj
 0001:0004b4e0       ??$_Emplace_back_with_unused_capacity@AEBUBufferView@gltf@@@?$vector@UBufferView@gltf@@V?$allocator@UBufferView@gltf@@@std@@@std@@AEAAAEAUBufferView@gltf@@AEBU23@@Z 000000014004c4e0 f i main.obj
 0001:0004b5b0       ??$_Emplace_back_with_unused_capacity@AEBUImage@gltf@@@?$vector@UImage@gltf@@V?$allocator@UImage@gltf@@@std@@@std@@AEAAAEAUImage@gltf@@AEBU23@@Z 000000014004c5b0 f i main.obj
 0001:0004b680       ??$_Emplace_back_with_unused_capacity@AEBUMaterial@gltf@@@?$vector@UMaterial@gltf@@V?$allocator@UMaterial@gltf@@@std@@@std@@AEAAAEAUMaterial@gltf@@AEBU23@@Z 000000014004c680 f i main.obj
 0001:0004b750       ??$_Emplace_back_with_unused_capacity@AEBUMesh@gltf@@@?$vector@UMesh@gltf@@V?$allocator@UMesh@gltf@@@std@@@std@@AEAAAEAUMesh@gltf@@AEBU23@@Z 000000014004c750 f i main.obj
 0001:0004b820       ??$_Emplace_back_with_unused_capacity@AEBUMeshPrimitive@gltf@@@?$vector@UMeshPrimitive@gltf@@V?$allocator@UMeshPrimitive@gltf@@@std@@@std@@AEAAAEAUMeshPrimitive@gltf@@AEBU23@@Z 000000014004c820 f i main.obj
 0001:0004b8f0       ??$_Emplace_back_with_unused_capacity@AEBUNode@gltf@@@?$vector@UNode@gltf@@V?$allocator@UNode@gltf@@@std@@@std@@AEAAAEAUNode@gltf@@AEBU23@@Z 000000014004c8f0 f i main.obj
 0001:0004b9c0       ??$_Emplace_back_with_unused_capacity@AEBUSampler@gltf@@@?$vector@USampler@gltf@@V?$allocator@USampler@gltf@@@std@@@std@@AEAAAEAUSampler@gltf@@AEBU23@@Z 000000014004c9c0 f i main.obj
 0001:0004ba90       ??$_Emplace_back_with_unused_capacity@AEBUScene@gltf@@@?$vector@UScene@gltf@@V?$allocator@UScene@gltf@@@std@@@std@@AEAAAEAUScene@gltf@@AEBU23@@Z 000000014004ca90 f i main.obj
 0001:0004bb60       ??$_Emplace_back_with_unused_capacity@AEBUSkin@gltf@@@?$vector@USkin@gltf@@V?$allocator@USkin@gltf@@@std@@@std@@AEAAAEAUSkin@gltf@@AEBU23@@Z 000000014004cb60 f i main.obj
 0001:0004bc30       ??$_Emplace_back_with_unused_capacity@AEBUTexture@gltf@@@?$vector@UTexture@gltf@@V?$allocator@UTexture@gltf@@@std@@@std@@AEAAAEAUTexture@gltf@@AEBU23@@Z 000000014004cc30 f i main.obj
 0001:0004bd00       ??$_Emplace_back_with_unused_capacity@AEBV?$basic_string@DU?$char_traits@D@std@@V?$allocator@D@2@@std@@@?$vector@V?$basic_string@DU?$char_traits@D@std@@V?$allocator@D@2@@std@@V?$allocator@V?$basic_string@DU?$char_traits@D@std@@V?$allocator@D@2@@std@@@2@@std@@AEAAAEAV?$basic_string@DU?$char_traits@D@std@@V?$allocator@D@2@@1@AEBV21@@Z 000000014004cd00 f i main.obj
 0001:0004bdd0       ??$_Emplace_back_with_unused_capacity@D@?$vector@DV?$allocator@D@std@@@std@@AEAAAEAD$$QEAD@Z 000000014004cdd0 f i main.obj
 0001:0004be70       ??$_Emplace_back_with_unused_capacity@H@?$vector@HV?$allocator@H@std@@@std@@AEAAAEAH$$QEAH@Z 000000014004ce70 f i main.obj
 0001:0004bf10       ??$_Emplace_back_with_unused_capacity@M@?$vector@MV?$allocator@M@std@@@std@@AEAAAEAM$$QEAM@Z 000000014004cf10 f i main.obj
 0001:0004bfb0       ??$_Emplace_back_with_unused_capacity@PEAV?$basic_json@Vmap@std@@Vvector@2@V?$basic_string@DU?$char_traits@D@std@@V?$allocator@D@2@@2@_N_J_KNVallocator@2@Uadl_serializer@json_abi_v3_11_2@nlohmann@@V?$vector@EV?$allocator@E@std@@@2@X@json_abi_v3_11_2@nlohmann@@@?$vector@PEAV?$basic_json@Vmap@std@@Vvector@2@V?$basic_string@DU?$char_traits@D@std@@V?$allocator@D@2@@2@_N_J_KNVallocator@2@Uadl_serializer@json_abi_v3_11_2@nlohmann@@V?$vector@EV?$allocator@E@std@@@2@X@json_abi_v3_11_2@nlohmann@@V?$allocator@PEAV?$basic_json@Vmap@std@@Vvector@2@V?$basic_string@DU?$char_traits@D@std@@V?$allocator@D@2@@2@_N_J_KNVallocator@2@Uadl_serializer@json_abi_v3_11_2@nlohmann@@V?$vector@EV?$allocator@E@std@@@2@X@json_abi_v3_11_2@nlohmann@@@std@@@std@@AEAAAEAPEAV?$basic_json@Vmap@std@@Vvector@2@V?$basic_string@DU?$char_traits@D@std@@V?$allocator@D@2@@2@_N_J_KNVallocator@2@Uadl_serializer@json_abi_v3_11_2@nlohmann@@V?$vector@EV?$allocator@E@std@@@2@X@json_abi_v3_11_2@nlohmann@@$$QEAPEAV234@@Z 000000014004cfb0 f i main.obj
 0001:0004c050       ??$_Emplace_back_with_unused_capacity@PEAVComponent@@@?$vector@PEAVComponent@@V?$allocator@PEAVComponent@@@std@@@std@@AEAAAEAPEAVComponent@@$$QEAPEAV2@@Z 000000014004d050 f i main.obj
 0001:0004c0f0       ??$_Emplace_back_with_unused_capacity@PEAVNode@@@?$vector@PEAVNode@@V?$allocator@PEAVNode@@@std@@@std@@AEAAAEAPEAVNode@@$$QEAPEAV2@@Z 000000014004d0f0 f i main.obj
 0001:0004c190       ??$_Emplace_back_with_unused_capacity@U?$pair@V?$basic_string@DU?$char_traits@D@std@@V?$allocator@D@2@@std@@H@std@@@?$vector@U?$pair@V?$basic_string@DU?$char_traits@D@std@@V?$allocator@D@2@@std@@H@std@@V?$allocator@U?$pair@V?$basic_string@DU?$char_traits@D@std@@V?$allocator@D@2@@std@@H@std@@@2@@std@@AEAAAEAU?$pair@V?$basic_string@DU?$char_traits@D@std@@V?$allocator@D@2@@std@@H@1@$$QEAU21@@Z 000000014004d190 f i main.obj
 0001:0004c230       ??$_Emplace_back_with_unused_capacity@U?$pair@V?$basic_string@DU?$char_traits@D@std@@V?$allocator@D@2@@std@@V?$shared_ptr@VTexture2D@@@2@@std@@@?$vector@U?$pair@V?$basic_string@DU?$char_traits@D@std@@V?$allocator@D@2@@std@@V?$shared_ptr@VTexture2D@@@2@@std@@V?$allocator@U?$pair@V?$basic_string@DU?$char_traits@D@std@@V?$allocator@D@2@@std@@V?$shared_ptr@VTexture2D@@@2@@std@@@2@@std@@AEAAAEAU?$pair@V?$basic_string@DU?$char_traits@D@std@@V?$allocator@D@2@@std@@V?$shared_ptr@VTexture2D@@@2@@1@$$QEAU21@@Z 000000014004d230 f i main.obj
 0001:0004c2d0       ??$_Emplace_back_with_unused_capacity@V?$basic_json@Vmap@std@@Vvector@2@V?$basic_string@DU?$char_traits@D@std@@V?$allocator@D@2@@2@_N_J_KNVallocator@2@Uadl_serializer@json_abi_v3_11_2@nlohmann@@V?$vector@EV?$allocator@E@std@@@2@X@json_abi_v3_11_2@nlohmann@@@?$vector@V?$basic_json@Vmap@std@@Vvector@2@V?$basic_string@DU?$char_traits@D@std@@V?$allocator@D@2@@2@_N_J_KNVallocator@2@Uadl_serializer@json_abi_v3_11_2@nlohmann@@V?$vector@EV?$allocator@E@std@@@2@X@json_abi_v3_11_2@nlohmann@@V?$allocator@V?$basic_json@Vmap@std@@Vvector@2@V?$basic_string@DU?$char_traits@D@std@@V?$allocator@D@2@@2@_N_J_KNVallocator@2@Uadl_serializer@json_abi_v3_11_2@nlohmann@@V?$vector@EV?$allocator@E@std@@@2@X@json_abi_v3_11_2@nlohmann@@@std@@@std@@AEAAAEAV?$basic_json@Vmap@std@@Vvector@2@V?$basic_string@DU?$char_traits@D@std@@V?$allocator@D@2@@2@_N_J_KNVallocator@2@Uadl_serializer@json_abi_v3_11_2@nlohmann@@V?$vector@EV?$allocator@E@std@@@2@X@json_abi_v3_11_2@nlohmann@@$$QEAV234@@Z 000000014004d2d0 f i main.obj
 0001:0004c370       ??$_Emplace_back_with_unused_capacity@VAnimationInstanceView@@@?$vector@VAnimationInstanceView@@V?$allocator@VAnimationInstanceView@@@std@@@std@@AEAAAEAVAnimationInstanceView@@$$QEAV2@@Z 000000014004d370 f i main.obj
 0001:0004c410       ??$_Emplace_back_with_unused_capacity@W4value_t@detail@json_abi_v3_11_2@nlohmann@@@?$vector@V?$basic_json@Vmap@std@@Vvector@2@V?$basic_string@DU?$char_traits@D@std@@V?$allocator@D@2@@2@_N_J_KNVallocator@2@Uadl_serializer@json_abi_v3_11_2@nlohmann@@V?$vector@EV?$allocator@E@std@@@2@X@json_abi_v3_11_2@nlohmann@@V?$allocator@V?$basic_json@Vmap@std@@Vvector@2@V?$basic_string@DU?$char_traits@D@std@@V?$allocator@D@2@@2@_N_J_KNVallocator@2@Uadl_serializer@json_abi_v3_11_2@nlohmann@@V?$vector@EV?$allocator@E@std@@@2@X@json_abi_v3_11_2@nlohmann@@@std@@@std@@AEAAAEAV?$basic_json@Vmap@std@@Vvector@2@V?$basic_string@DU?$char_traits@D@std@@V?$allocator@D@2@@2@_N_J_KNVallocator@2@Uadl_serializer@json_abi_v3_11_2@nlohmann@@V?$vector@EV?$allocator@E@std@@@2@X@json_abi_v3_11_2@nlohmann@@$$QEAW4value_t@detail@34@@Z 000000014004d410 f i main.obj
 0001:0004c4e0       ??$_Emplace_one_at_back@$$T@?$vector@V?$basic_json@Vmap@std@@Vvector@2@V?$basic_string@DU?$char_traits@D@std@@V?$allocator@D@2@@2@_N_J_KNVallocator@2@Uadl_serializer@json_abi_v3_11_2@nlohmann@@V?$vector@EV?$allocator@E@std@@@2@X@json_abi_v3_11_2@nlohmann@@V?$allocator@V?$basic_json@Vmap@std@@Vvector@2@V?$basic_string@DU?$char_traits@D@std@@V?$allocator@D@2@@2@_N_J_KNVallocator@2@Uadl_serializer@json_abi_v3_11_2@nlohmann@@V?$vector@EV?$allocator@E@std@@@2@X@json_abi_v3_11_2@nlohmann@@@std@@@std@@AEAAAEAV?$basic_json@Vmap@std@@Vvector@2@V?$basic_string@DU?$char_traits@D@std@@V?$allocator@D@2@@2@_N_J_KNVallocator@2@Uadl_serializer@json_abi_v3_11_2@nlohmann@@V?$vector@EV?$allocator@E@std@@@2@X@json_abi_v3_11_2@nlohmann@@$$QEA$$T@Z 000000014004d4e0 f i main.obj
 0001:0004c560       ??$_Emplace_one_at_back@AEAN@?$vector@V?$basic_json@Vmap@std@@Vvector@2@V?$basic_string@DU?$char_traits@D@std@@V?$allocator@D@2@@2@_N_J_KNVallocator@2@Uadl_serializer@json_abi_v3_11_2@nlohmann@@V?$vector@EV?$allocator@E@std@@@2@X@json_abi_v3_11_2@nlohmann@@V?$allocator@V?$basic_json@Vmap@std@@Vvector@2@V?$basic_string@DU?$char_traits@D@std@@V?$allocator@D@2@@2@_N_J_KNVallocator@2@Uadl_serializer@json_abi_v3_11_2@nlohmann@@V?$vector@EV?$allocator@E@std@@@2@X@json_abi_v3_11_2@nlohmann@@@std@@@std@@AEAAAEAV?$basic_json@Vmap@std@@Vvector@2@V?$basic_string@DU?$char_traits@D@std@@V?$allocator@D@2@@2@_N_J_KNVallocator@2@Uadl_serializer@json_abi_v3_11_2@nlohmann@@V?$vector@EV?$allocator@E@std@@@2@X@json_abi_v3_11_2@nlohmann@@AEAN@Z 000000014004d560 f i main.obj
 0001:0004c5e0       ??$_Emplace_one_at_back@AEAV?$basic_string@DU?$char_traits@D@std@@V?$allocator@D@2@@std@@@?$vector@V?$basic_json@Vmap@std@@Vvector@2@V?$basic_string@DU?$char_traits@D@std@@V?$allocator@D@2@@2@_N_J_KNVallocator@2@Uadl_serializer@json_abi_v3_11_2@nlohmann@@V?$vector@EV?$allocator@E@std@@@2@X@json_abi_v3_11_2@nlohmann@@V?$allocator@V?$basic_json@Vmap@std@@Vvector@2@V?$basic_string@DU?$char_traits@D@std@@V?$allocator@D@2@@2@_N_J_KNVallocator@2@Uadl_serializer@json_abi_v3_11_2@nlohmann@@V?$vector@EV?$allocator@E@std@@@2@X@json_abi_v3_11_2@nlohmann@@@std@@@std@@AEAAAEAV?$basic_json@Vmap@std@@Vvector@2@V?$basic_string@DU?$char_traits@D@std@@V?$allocator@D@2@@2@_N_J_KNVallocator@2@Uadl_serializer@json_abi_v3_11_2@nlohmann@@V?$vector@EV?$allocator@E@std@@@2@X@json_abi_v3_11_2@nlohmann@@AEAV?$basic_string@DU?$char_traits@D@std@@V?$allocator@D@2@@1@@Z 000000014004d5e0 f i main.obj
 0001:0004c660       ??$_Emplace_one_at_back@AEA_J@?$vector@V?$basic_json@Vmap@std@@Vvector@2@V?$basic_string@DU?$char_traits@D@std@@V?$allocator@D@2@@2@_N_J_KNVallocator@2@Uadl_serializer@json_abi_v3_11_2@nlohmann@@V?$vector@EV?$allocator@E@std@@@2@X@json_abi_v3_11_2@nlohmann@@V?$allocator@V?$basic_json@Vmap@std@@Vvector@2@V?$basic_string@DU?$char_traits@D@std@@V?$allocator@D@2@@2@_N_J_KNVallocator@2@Uadl_serializer@json_abi_v3_11_2@nlohmann@@V?$vector@EV?$allocator@E@std@@@2@X@json_abi_v3_11_2@nlohmann@@@std@@@std@@AEAAAEAV?$basic_json@Vmap@std@@Vvector@2@V?$basic_string@DU?$char_traits@D@std@@V?$allocator@D@2@@2@_N_J_KNVallocator@2@Uadl_serializer@json_abi_v3_11_2@nlohmann@@V?$vector@EV?$allocator@E@std@@@2@X@json_abi_v3_11_2@nlohmann@@AEA_J@Z 000000014004d660 f i main.obj
 0001:0004c6e0       ??$_Emplace_one_at_back@AEA_K@?$vector@V?$basic_json@Vmap@std@@Vvector@2@V?$basic_string@DU?$char_traits@D@std@@V?$allocator@D@2@@2@_N_J_KNVallocator@2@Uadl_serializer@json_abi_v3_11_2@nlohmann@@V?$vector@EV?$allocator@E@std@@@2@X@json_abi_v3_11_2@nlohmann@@V?$allocator@V?$basic_json@Vmap@std@@Vvector@2@V?$basic_string@DU?$char_traits@D@std@@V?$allocator@D@2@@2@_N_J_KNVallocator@2@Uadl_serializer@json_abi_v3_11_2@nlohmann@@V?$vector@EV?$allocator@E@std@@@2@X@json_abi_v3_11_2@nlohmann@@@std@@@std@@AEAAAEAV?$basic_json@Vmap@std@@Vvector@2@V?$basic_string@DU?$char_traits@D@std@@V?$allocator@D@2@@2@_N_J_KNVallocator@2@Uadl_serializer@json_abi_v3_11_2@nlohmann@@V?$vector@EV?$allocator@E@std@@@2@X@json_abi_v3_11_2@nlohmann@@AEA_K@Z 000000014004d6e0 f i main.obj
 0001:0004c760       ??$_Emplace_one_at_back@AEA_N@?$vector@V?$basic_json@Vmap@std@@Vvector@2@V?$basic_string@DU?$char_traits@D@std@@V?$allocator@D@2@@2@_N_J_KNVallocator@2@Uadl_serializer@json_abi_v3_11_2@nlohmann@@V?$vector@EV?$allocator@E@std@@@2@X@json_abi_v3_11_2@nlohmann@@V?$allocator@V?$basic_json@Vmap@std@@Vvector@2@V?$basic_string@DU?$char_traits@D@std@@V?$allocator@D@2@@2@_N_J_KNVallocator@2@Uadl_serializer@json_abi_v3_11_2@nlohmann@@V?$vector@EV?$allocator@E@std@@@2@X@json_abi_v3_11_2@nlohmann@@@std@@@std@@AEAAAEAV?$basic_json@Vmap@std@@Vvector@2@V?$basic_string@DU?$char_traits@D@std@@V?$allocator@D@2@@2@_N_J_KNVallocator@2@Uadl_serializer@json_abi_v3_11_2@nlohmann@@V?$vector@EV?$allocator@E@std@@@2@X@json_abi_v3_11_2@nlohmann@@AEA_N@Z 000000014004d760 f i main.obj
 0001:0004c7e0       ??$_Emplace_one_at_back@AEBH@?$vector@HV?$allocator@H@std@@@std@@AEAAAEAHAEBH@Z 000000014004d7e0 f i main.obj
 0001:0004c860       ??$_Emplace_one_at_back@AEBQEAV?$basic_json@Vmap@std@@Vvector@2@V?$basic_string@DU?$char_traits@D@std@@V?$allocator@D@2@@2@_N_J_KNVallocator@2@Uadl_serializer@json_abi_v3_11_2@nlohmann@@V?$vector@EV?$allocator@E@std@@@2@X@json_abi_v3_11_2@nlohmann@@@?$vector@PEAV?$basic_json@Vmap@std@@Vvector@2@V?$basic_string@DU?$char_traits@D@std@@V?$allocator@D@2@@2@_N_J_KNVallocator@2@Uadl_serializer@json_abi_v3_11_2@nlohmann@@V?$vector@EV?$allocator@E@std@@@2@X@json_abi_v3_11_2@nlohmann@@V?$allocator@PEAV?$basic_json@Vmap@std@@Vvector@2@V?$basic_string@DU?$char_traits@D@std@@V?$allocator@D@2@@2@_N_J_KNVallocator@2@Uadl_serializer@json_abi_v3_11_2@nlohmann@@V?$vector@EV?$allocator@E@std@@@2@X@json_abi_v3_11_2@nlohmann@@@std@@@std@@AEAAAEAPEAV?$basic_json@Vmap@std@@Vvector@2@V?$basic_string@DU?$char_traits@D@std@@V?$allocator@D@2@@2@_N_J_KNVallocator@2@Uadl_serializer@json_abi_v3_11_2@nlohmann@@V?$vector@EV?$allocator@E@std@@@2@X@json_abi_v3_11_2@nlohmann@@AEBQEAV234@@Z 000000014004d860 f i main.obj
 0001:0004c8e0       ??$_Emplace_one_at_back@AEBQEAVAnimationChannel@@@?$vector@PEAVAnimationChannel@@V?$allocator@PEAVAnimationChannel@@@std@@@std@@AEAAAEAPEAVAnimationChannel@@AEBQEAV2@@Z 000000014004d8e0 f i main.obj
 0001:0004c960       ??$_Emplace_one_at_back@AEBUAccessor@gltf@@@?$vector@UAccessor@gltf@@V?$allocator@UAccessor@gltf@@@std@@@std@@AEAAAEAUAccessor@gltf@@AEBU23@@Z 000000014004d960 f i main.obj
 0001:0004c9e0       ??$_Emplace_one_at_back@AEBUAnimation@gltf@@@?$vector@UAnimation@gltf@@V?$allocator@UAnimation@gltf@@@std@@@std@@AEAAAEAUAnimation@gltf@@AEBU23@@Z 000000014004d9e0 f i main.obj
 0001:0004ca60       ??$_Emplace_one_at_back@AEBUAnimationChannel@gltf@@@?$vector@UAnimationChannel@gltf@@V?$allocator@UAnimationChannel@gltf@@@std@@@std@@AEAAAEAUAnimationChannel@gltf@@AEBU23@@Z 000000014004da60 f i main.obj
 0001:0004cae0       ??$_Emplace_one_at_back@AEBUAnimationSampler@gltf@@@?$vector@UAnimationSampler@gltf@@V?$allocator@UAnimationSampler@gltf@@@std@@@std@@AEAAAEAUAnimationSampler@gltf@@AEBU23@@Z 000000014004dae0 f i main.obj
 0001:0004cb60       ??$_Emplace_one_at_back@AEBUBuffer@gltf@@@?$vector@UBuffer@gltf@@V?$allocator@UBuffer@gltf@@@std@@@std@@AEAAAEAUBuffer@gltf@@AEBU23@@Z 000000014004db60 f i main.obj
 0001:0004cbe0       ??$_Emplace_one_at_back@AEBUBufferView@gltf@@@?$vector@UBufferView@gltf@@V?$allocator@UBufferView@gltf@@@std@@@std@@AEAAAEAUBufferView@gltf@@AEBU23@@Z 000000014004dbe0 f i main.obj
 0001:0004cc60       ??$_Emplace_one_at_back@AEBUImage@gltf@@@?$vector@UImage@gltf@@V?$allocator@UImage@gltf@@@std@@@std@@AEAAAEAUImage@gltf@@AEBU23@@Z 000000014004dc60 f i main.obj
 0001:0004cce0       ??$_Emplace_one_at_back@AEBUMaterial@gltf@@@?$vector@UMaterial@gltf@@V?$allocator@UMaterial@gltf@@@std@@@std@@AEAAAEAUMaterial@gltf@@AEBU23@@Z 000000014004dce0 f i main.obj
 0001:0004cd60       ??$_Emplace_one_at_back@AEBUMesh@gltf@@@?$vector@UMesh@gltf@@V?$allocator@UMesh@gltf@@@std@@@std@@AEAAAEAUMesh@gltf@@AEBU23@@Z 000000014004dd60 f i main.obj
 0001:0004cde0       ??$_Emplace_one_at_back@AEBUMeshPrimitive@gltf@@@?$vector@UMeshPrimitive@gltf@@V?$allocator@UMeshPrimitive@gltf@@@std@@@std@@AEAAAEAUMeshPrimitive@gltf@@AEBU23@@Z 000000014004dde0 f i main.obj
 0001:0004ce60       ??$_Emplace_one_at_back@AEBUNode@gltf@@@?$vector@UNode@gltf@@V?$allocator@UNode@gltf@@@std@@@std@@AEAAAEAUNode@gltf@@AEBU23@@Z 000000014004de60 f i main.obj
 0001:0004cee0       ??$_Emplace_one_at_back@AEBUSampler@gltf@@@?$vector@USampler@gltf@@V?$allocator@USampler@gltf@@@std@@@std@@AEAAAEAUSampler@gltf@@AEBU23@@Z 000000014004dee0 f i main.obj
 0001:0004cf60       ??$_Emplace_one_at_back@AEBUScene@gltf@@@?$vector@UScene@gltf@@V?$allocator@UScene@gltf@@@std@@@std@@AEAAAEAUScene@gltf@@AEBU23@@Z 000000014004df60 f i main.obj
 0001:0004cfe0       ??$_Emplace_one_at_back@AEBUSkin@gltf@@@?$vector@USkin@gltf@@V?$allocator@USkin@gltf@@@std@@@std@@AEAAAEAUSkin@gltf@@AEBU23@@Z 000000014004dfe0 f i main.obj
 0001:0004d060       ??$_Emplace_one_at_back@AEBUTexture@gltf@@@?$vector@UTexture@gltf@@V?$allocator@UTexture@gltf@@@std@@@std@@AEAAAEAUTexture@gltf@@AEBU23@@Z 000000014004e060 f i main.obj
 0001:0004d0e0       ??$_Emplace_one_at_back@AEBV?$basic_string@DU?$char_traits@D@std@@V?$allocator@D@2@@std@@@?$vector@V?$basic_string@DU?$char_traits@D@std@@V?$allocator@D@2@@std@@V?$allocator@V?$basic_string@DU?$char_traits@D@std@@V?$allocator@D@2@@std@@@2@@std@@AEAAAEAV?$basic_string@DU?$char_traits@D@std@@V?$allocator@D@2@@1@AEBV21@@Z 000000014004e0e0 f i main.obj
 0001:0004d160       ??$_Emplace_one_at_back@D@?$vector@DV?$allocator@D@std@@@std@@AEAAAEAD$$QEAD@Z 000000014004e160 f i main.obj
 0001:0004d1e0       ??$_Emplace_one_at_back@H@?$vector@HV?$allocator@H@std@@@std@@AEAAAEAH$$QEAH@Z 000000014004e1e0 f i main.obj
 0001:0004d260       ??$_Emplace_one_at_back@M@?$vector@MV?$allocator@M@std@@@std@@AEAAAEAM$$QEAM@Z 000000014004e260 f i main.obj
 0001:0004d2e0       ??$_Emplace_one_at_back@PEAV?$basic_json@Vmap@std@@Vvector@2@V?$basic_string@DU?$char_traits@D@std@@V?$allocator@D@2@@2@_N_J_KNVallocator@2@Uadl_serializer@json_abi_v3_11_2@nlohmann@@V?$vector@EV?$allocator@E@std@@@2@X@json_abi_v3_11_2@nlohmann@@@?$vector@PEAV?$basic_json@Vmap@std@@Vvector@2@V?$basic_string@DU?$char_traits@D@std@@V?$allocator@D@2@@2@_N_J_KNVallocator@2@Uadl_serializer@json_abi_v3_11_2@nlohmann@@V?$vector@EV?$allocator@E@std@@@2@X@json_abi_v3_11_2@nlohmann@@V?$allocator@PEAV?$basic_json@Vmap@std@@Vvector@2@V?$basic_string@DU?$char_traits@D@std@@V?$allocator@D@2@@2@_N_J_KNVallocator@2@Uadl_serializer@json_abi_v3_11_2@nlohmann@@V?$vector@EV?$allocator@E@std@@@2@X@json_abi_v3_11_2@nlohmann@@@std@@@std@@AEAAAEAPEAV?$basic_json@Vmap@std@@Vvector@2@V?$basic_string@DU?$char_traits@D@std@@V?$allocator@D@2@@2@_N_J_KNVallocator@2@Uadl_serializer@json_abi_v3_11_2@nlohmann@@V?$vector@EV?$allocator@E@std@@@2@X@json_abi_v3_11_2@nlohmann@@$$QEAPEAV234@@Z 000000014004e2e0 f i main.obj
 0001:0004d360       ??$_Emplace_one_at_back@PEAVComponent@@@?$vector@PEAVComponent@@V?$allocator@PEAVComponent@@@std@@@std@@AEAAAEAPEAVComponent@@$$QEAPEAV2@@Z 000000014004e360 f i main.obj
 0001:0004d3e0       ??$_Emplace_one_at_back@PEAVNode@@@?$vector@PEAVNode@@V?$allocator@PEAVNode@@@std@@@std@@AEAAAEAPEAVNode@@$$QEAPEAV2@@Z 000000014004e3e0 f i main.obj
 0001:0004d460       ??$_Emplace_one_at_back@U?$pair@V?$basic_string@DU?$char_traits@D@std@@V?$allocator@D@2@@std@@H@std@@@?$vector@U?$pair@V?$basic_string@DU?$char_traits@D@std@@V?$allocator@D@2@@std@@H@std@@V?$allocator@U?$pair@V?$basic_string@DU?$char_traits@D@std@@V?$allocator@D@2@@std@@H@std@@@2@@std@@AEAAAEAU?$pair@V?$basic_string@DU?$char_traits@D@std@@V?$allocator@D@2@@std@@H@1@$$QEAU21@@Z 000000014004e460 f i main.obj
 0001:0004d4e0       ??$_Emplace_one_at_back@U?$pair@V?$basic_string@DU?$char_traits@D@std@@V?$allocator@D@2@@std@@V?$shared_ptr@VTexture2D@@@2@@std@@@?$vector@U?$pair@V?$basic_string@DU?$char_traits@D@std@@V?$allocator@D@2@@std@@V?$shared_ptr@VTexture2D@@@2@@std@@V?$allocator@U?$pair@V?$basic_string@DU?$char_traits@D@std@@V?$allocator@D@2@@std@@V?$shared_ptr@VTexture2D@@@2@@std@@@2@@std@@AEAAAEAU?$pair@V?$basic_string@DU?$char_traits@D@std@@V?$allocator@D@2@@std@@V?$shared_ptr@VTexture2D@@@2@@1@$$QEAU21@@Z 000000014004e4e0 f i main.obj
 0001:0004d560       ??$_Emplace_one_at_back@V?$basic_json@Vmap@std@@Vvector@2@V?$basic_string@DU?$char_traits@D@std@@V?$allocator@D@2@@2@_N_J_KNVallocator@2@Uadl_serializer@json_abi_v3_11_2@nlohmann@@V?$vector@EV?$allocator@E@std@@@2@X@json_abi_v3_11_2@nlohmann@@@?$vector@V?$basic_json@Vmap@std@@Vvector@2@V?$basic_string@DU?$char_traits@D@std@@V?$allocator@D@2@@2@_N_J_KNVallocator@2@Uadl_serializer@json_abi_v3_11_2@nlohmann@@V?$vector@EV?$allocator@E@std@@@2@X@json_abi_v3_11_2@nlohmann@@V?$allocator@V?$basic_json@Vmap@std@@Vvector@2@V?$basic_string@DU?$char_traits@D@std@@V?$allocator@D@2@@2@_N_J_KNVallocator@2@Uadl_serializer@json_abi_v3_11_2@nlohmann@@V?$vector@EV?$allocator@E@std@@@2@X@json_abi_v3_11_2@nlohmann@@@std@@@std@@AEAAAEAV?$basic_json@Vmap@std@@Vvector@2@V?$basic_string@DU?$char_traits@D@std@@V?$allocator@D@2@@2@_N_J_KNVallocator@2@Uadl_serializer@json_abi_v3_11_2@nlohmann@@V?$vector@EV?$allocator@E@std@@@2@X@json_abi_v3_11_2@nlohmann@@$$QEAV234@@Z 000000014004e560 f i main.obj
 0001:0004d5e0       ??$_Emplace_one_at_back@VAnimationInstanceView@@@?$vector@VAnimationInstanceView@@V?$allocator@VAnimationInstanceView@@@std@@@std@@AEAAAEAVAnimationInstanceView@@$$QEAV2@@Z 000000014004e5e0 f i main.obj
 0001:0004d660       ??$_Emplace_one_at_back@W4value_t@detail@json_abi_v3_11_2@nlohmann@@@?$vector@V?$basic_json@Vmap@std@@Vvector@2@V?$basic_string@DU?$char_traits@D@std@@V?$allocator@D@2@@2@_N_J_KNVallocator@2@Uadl_serializer@json_abi_v3_11_2@nlohmann@@V?$vector@EV?$allocator@E@std@@@2@X@json_abi_v3_11_2@nlohmann@@V?$allocator@V?$basic_json@Vmap@std@@Vvector@2@V?$basic_string@DU?$char_traits@D@std@@V?$allocator@D@2@@2@_N_J_KNVallocator@2@Uadl_serializer@json_abi_v3_11_2@nlohmann@@V?$vector@EV?$allocator@E@std@@@2@X@json_abi_v3_11_2@nlohmann@@@std@@@std@@AEAAAEAV?$basic_json@Vmap@std@@Vvector@2@V?$basic_string@DU?$char_traits@D@std@@V?$allocator@D@2@@2@_N_J_KNVallocator@2@Uadl_serializer@json_abi_v3_11_2@nlohmann@@V?$vector@EV?$allocator@E@std@@@2@X@json_abi_v3_11_2@nlohmann@@$$QEAW4value_t@detail@34@@Z 000000014004e660 f i main.obj
 0001:0004d6e0       ??$_Emplace_reallocate@$$T@?$vector@V?$basic_json@Vmap@std@@Vvector@2@V?$basic_string@DU?$char_traits@D@std@@V?$allocator@D@2@@2@_N_J_KNVallocator@2@Uadl_serializer@json_abi_v3_11_2@nlohmann@@V?$vector@EV?$allocator@E@std@@@2@X@json_abi_v3_11_2@nlohmann@@V?$allocator@V?$basic_json@Vmap@std@@Vvector@2@V?$basic_string@DU?$char_traits@D@std@@V?$allocator@D@2@@2@_N_J_KNVallocator@2@Uadl_serializer@json_abi_v3_11_2@nlohmann@@V?$vector@EV?$allocator@E@std@@@2@X@json_abi_v3_11_2@nlohmann@@@std@@@std@@AEAAPEAV?$basic_json@Vmap@std@@Vvector@2@V?$basic_string@DU?$char_traits@D@std@@V?$allocator@D@2@@2@_N_J_KNVallocator@2@Uadl_serializer@json_abi_v3_11_2@nlohmann@@V?$vector@EV?$allocator@E@std@@@2@X@json_abi_v3_11_2@nlohmann@@QEAV234@$$QEA$$T@Z 000000014004e6e0 f i main.obj
 0001:0004d8e0       ?_Take_contents@?$_Vector_val@U?$_Simple_types@I@std@@@std@@QEAAXAEAV12@@Z 000000014004e8e0 f i main.obj
 0001:0004d960       ??$_Emplace_reallocate@AEAN@?$vector@V?$basic_json@Vmap@std@@Vvector@2@V?$basic_string@DU?$char_traits@D@std@@V?$allocator@D@2@@2@_N_J_KNVallocator@2@Uadl_serializer@json_abi_v3_11_2@nlohmann@@V?$vector@EV?$allocator@E@std@@@2@X@json_abi_v3_11_2@nlohmann@@V?$allocator@V?$basic_json@Vmap@std@@Vvector@2@V?$basic_string@DU?$char_traits@D@std@@V?$allocator@D@2@@2@_N_J_KNVallocator@2@Uadl_serializer@json_abi_v3_11_2@nlohmann@@V?$vector@EV?$allocator@E@std@@@2@X@json_abi_v3_11_2@nlohmann@@@std@@@std@@AEAAPEAV?$basic_json@Vmap@std@@Vvector@2@V?$basic_string@DU?$char_traits@D@std@@V?$allocator@D@2@@2@_N_J_KNVallocator@2@Uadl_serializer@json_abi_v3_11_2@nlohmann@@V?$vector@EV?$allocator@E@std@@@2@X@json_abi_v3_11_2@nlohmann@@QEAV234@AEAN@Z 000000014004e960 f i main.obj
 0001:0004db60       ?_Tidy@?$_Func_class@_NHW4parse_event_t@detail@json_abi_v3_11_2@nlohmann@@AEAV?$basic_json@Vmap@std@@Vvector@2@V?$basic_string@DU?$char_traits@D@std@@V?$allocator@D@2@@2@_N_J_KNVallocator@2@Uadl_serializer@json_abi_v3_11_2@nlohmann@@V?$vector@EV?$allocator@E@std@@@2@X@34@@std@@IEAAXXZ 000000014004eb60 f i main.obj
 0001:0004dbe0       ??$_Emplace_reallocate@AEAV?$basic_string@DU?$char_traits@D@std@@V?$allocator@D@2@@std@@@?$vector@V?$basic_json@Vmap@std@@Vvector@2@V?$basic_string@DU?$char_traits@D@std@@V?$allocator@D@2@@2@_N_J_KNVallocator@2@Uadl_serializer@json_abi_v3_11_2@nlohmann@@V?$vector@EV?$allocator@E@std@@@2@X@json_abi_v3_11_2@nlohmann@@V?$allocator@V?$basic_json@Vmap@std@@Vvector@2@V?$basic_string@DU?$char_traits@D@std@@V?$allocator@D@2@@2@_N_J_KNVallocator@2@Uadl_serializer@json_abi_v3_11_2@nlohmann@@V?$vector@EV?$allocator@E@std@@@2@X@json_abi_v3_11_2@nlohmann@@@std@@@std@@AEAAPEAV?$basic_json@Vmap@std@@Vvector@2@V?$basic_string@DU?$char_traits@D@std@@V?$allocator@D@2@@2@_N_J_KNVallocator@2@Uadl_serializer@json_abi_v3_11_2@nlohmann@@V?$vector@EV?$allocator@E@std@@@2@X@json_abi_v3_11_2@nlohmann@@QEAV234@AEAV?$basic_string@DU?$char_traits@D@std@@V?$allocator@D@2@@1@@Z 000000014004ebe0 f i main.obj
 0001:0004dde0       ?append@?$basic_string@DU?$char_traits@D@std@@V?$allocator@D@2@@std@@QEAAAEAV12@AEBV12@@Z 000000014004ede0 f i main.obj
 0001:0004de60       ??$_Emplace_reallocate@AEA_J@?$vector@V?$basic_json@Vmap@std@@Vvector@2@V?$basic_string@DU?$char_traits@D@std@@V?$allocator@D@2@@2@_N_J_KNVallocator@2@Uadl_serializer@json_abi_v3_11_2@nlohmann@@V?$vector@EV?$allocator@E@std@@@2@X@json_abi_v3_11_2@nlohmann@@V?$allocator@V?$basic_json@Vmap@std@@Vvector@2@V?$basic_string@DU?$char_traits@D@std@@V?$allocator@D@2@@2@_N_J_KNVallocator@2@Uadl_serializer@json_abi_v3_11_2@nlohmann@@V?$vector@EV?$allocator@E@std@@@2@X@json_abi_v3_11_2@nlohmann@@@std@@@std@@AEAAPEAV?$basic_json@Vmap@std@@Vvector@2@V?$basic_string@DU?$char_traits@D@std@@V?$allocator@D@2@@2@_N_J_KNVallocator@2@Uadl_serializer@json_abi_v3_11_2@nlohmann@@V?$vector@EV?$allocator@E@std@@@2@X@json_abi_v3_11_2@nlohmann@@QEAV234@AEA_J@Z 000000014004ee60 f i main.obj
 0001:0004e060       ?back@?$vector@_NV?$allocator@_N@std@@@std@@QEAA?AV?$_Vb_reference@U?$_Wrap_alloc@V?$allocator@I@std@@@std@@@2@XZ 000000014004f060 f i main.obj
 0001:0004e0e0       ??$_Emplace_reallocate@AEA_K@?$vector@V?$basic_json@Vmap@std@@Vvector@2@V?$basic_string@DU?$char_traits@D@std@@V?$allocator@D@2@@2@_N_J_KNVallocator@2@Uadl_serializer@json_abi_v3_11_2@nlohmann@@V?$vector@EV?$allocator@E@std@@@2@X@json_abi_v3_11_2@nlohmann@@V?$allocator@V?$basic_json@Vmap@std@@Vvector@2@V?$basic_string@DU?$char_traits@D@std@@V?$allocator@D@2@@2@_N_J_KNVallocator@2@Uadl_serializer@json_abi_v3_11_2@nlohmann@@V?$vector@EV?$allocator@E@std@@@2@X@json_abi_v3_11_2@nlohmann@@@std@@@std@@AEAAPEAV?$basic_json@Vmap@std@@Vvector@2@V?$basic_string@DU?$char_traits@D@std@@V?$allocator@D@2@@2@_N_J_KNVallocator@2@Uadl_serializer@json_abi_v3_11_2@nlohmann@@V?$vector@EV?$allocator@E@std@@@2@X@json_abi_v3_11_2@nlohmann@@QEAV234@AEA_K@Z 000000014004f0e0 f i main.obj
 0001:0004e2e0       ?begin@?$_Tree@V?$_Tmap_traits@V?$basic_string@DU?$char_traits@D@std@@V?$allocator@D@2@@std@@PEAUmat4@@U?$less@V?$basic_string@DU?$char_traits@D@std@@V?$allocator@D@2@@std@@@2@V?$allocator@U?$pair@$$CBV?$basic_string@DU?$char_traits@D@std@@V?$allocator@D@2@@std@@PEAUmat4@@@std@@@2@$0A@@std@@@std@@QEAA?AV?$_Tree_iterator@V?$_Tree_val@U?$_Tree_simple_types@U?$pair@$$CBV?$basic_string@DU?$char_traits@D@std@@V?$allocator@D@2@@std@@PEAUmat4@@@std@@@std@@@std@@@2@XZ 000000014004f2e0 f i main.obj
 0001:0004e360       ??$_Emplace_reallocate@AEA_N@?$vector@V?$basic_json@Vmap@std@@Vvector@2@V?$basic_string@DU?$char_traits@D@std@@V?$allocator@D@2@@2@_N_J_KNVallocator@2@Uadl_serializer@json_abi_v3_11_2@nlohmann@@V?$vector@EV?$allocator@E@std@@@2@X@json_abi_v3_11_2@nlohmann@@V?$allocator@V?$basic_json@Vmap@std@@Vvector@2@V?$basic_string@DU?$char_traits@D@std@@V?$allocator@D@2@@2@_N_J_KNVallocator@2@Uadl_serializer@json_abi_v3_11_2@nlohmann@@V?$vector@EV?$allocator@E@std@@@2@X@json_abi_v3_11_2@nlohmann@@@std@@@std@@AEAAPEAV?$basic_json@Vmap@std@@Vvector@2@V?$basic_string@DU?$char_traits@D@std@@V?$allocator@D@2@@2@_N_J_KNVallocator@2@Uadl_serializer@json_abi_v3_11_2@nlohmann@@V?$vector@EV?$allocator@E@std@@@2@X@json_abi_v3_11_2@nlohmann@@QEAV234@AEA_N@Z 000000014004f360 f i main.obj
 0001:0004e560       ?begin@?$_Tree@V?$_Tmap_traits@V?$basic_string@DU?$char_traits@D@std@@V?$allocator@D@2@@std@@V?$basic_json@Vmap@std@@Vvector@2@V?$basic_string@DU?$char_traits@D@std@@V?$allocator@D@2@@2@_N_J_KNVallocator@2@Uadl_serializer@json_abi_v3_11_2@nlohmann@@V?$vector@EV?$allocator@E@std@@@2@X@json_abi_v3_11_2@nlohmann@@U?$less@X@2@V?$allocator@U?$pair@$$CBV?$basic_string@DU?$char_traits@D@std@@V?$allocator@D@2@@std@@V?$basic_json@Vmap@std@@Vvector@2@V?$basic_string@DU?$char_traits@D@std@@V?$allocator@D@2@@2@_N_J_KNVallocator@2@Uadl_serializer@json_abi_v3_11_2@nlohmann@@V?$vector@EV?$allocator@E@std@@@2@X@json_abi_v3_11_2@nlohmann@@@std@@@2@$0A@@std@@@std@@QEAA?AV?$_Tree_iterator@V?$_Tree_val@U?$_Tree_simple_types@U?$pair@$$CBV?$basic_string@DU?$char_traits@D@std@@V?$allocator@D@2@@std@@V?$basic_json@Vmap@std@@Vvector@2@V?$basic_string@DU?$char_traits@D@std@@V?$allocator@D@2@@2@_N_J_KNVallocator@2@Uadl_serializer@json_abi_v3_11_2@nlohmann@@V?$vector@EV?$allocator@E@std@@@2@X@json_abi_v3_11_2@nlohmann@@@std@@@std@@@std@@@2@XZ 000000014004f560 f i main.obj
 0001:0004e5e0       ??$_Emplace_reallocate@AEBH@?$vector@HV?$allocator@H@std@@@std@@AEAAPEAHQEAHAEBH@Z 000000014004f5e0 f i main.obj
 0001:0004e7e0       ?begin@?$vector@GV?$allocator@G@std@@@std@@QEAA?AV?$_Vector_iterator@V?$_Vector_val@U?$_Simple_types@G@std@@@std@@@2@XZ 000000014004f7e0 f i main.obj
 0001:0004e850       ??$_Emplace_reallocate@AEBQEAV?$basic_json@Vmap@std@@Vvector@2@V?$basic_string@DU?$char_traits@D@std@@V?$allocator@D@2@@2@_N_J_KNVallocator@2@Uadl_serializer@json_abi_v3_11_2@nlohmann@@V?$vector@EV?$allocator@E@std@@@2@X@json_abi_v3_11_2@nlohmann@@@?$vector@PEAV?$basic_json@Vmap@std@@Vvector@2@V?$basic_string@DU?$char_traits@D@std@@V?$allocator@D@2@@2@_N_J_KNVallocator@2@Uadl_serializer@json_abi_v3_11_2@nlohmann@@V?$vector@EV?$allocator@E@std@@@2@X@json_abi_v3_11_2@nlohmann@@V?$allocator@PEAV?$basic_json@Vmap@std@@Vvector@2@V?$basic_string@DU?$char_traits@D@std@@V?$allocator@D@2@@2@_N_J_KNVallocator@2@Uadl_serializer@json_abi_v3_11_2@nlohmann@@V?$vector@EV?$allocator@E@std@@@2@X@json_abi_v3_11_2@nlohmann@@@std@@@std@@AEAAPEAPEAV?$basic_json@Vmap@std@@Vvector@2@V?$basic_string@DU?$char_traits@D@std@@V?$allocator@D@2@@2@_N_J_KNVallocator@2@Uadl_serializer@json_abi_v3_11_2@nlohmann@@V?$vector@EV?$allocator@E@std@@@2@X@json_abi_v3_11_2@nlohmann@@QEAPEAV234@AEBQEAV234@@Z 000000014004f850 f i main.obj
 0001:0004ea50       ?begin@?$vector@IV?$allocator@I@std@@@std@@QEAA?AV?$_Vector_iterator@V?$_Vector_val@U?$_Simple_types@I@std@@@std@@@2@XZ 000000014004fa50 f i main.obj
 0001:0004eac0       ??$_Emplace_reallocate@AEBQEAVAnimationChannel@@@?$vector@PEAVAnimationChannel@@V?$allocator@PEAVAnimationChannel@@@std@@@std@@AEAAPEAPEAVAnimationChannel@@QEAPEAV2@AEBQEAV2@@Z 000000014004fac0 f i main.obj
 0001:0004ecc0       ?begin@?$vector@U?$pair@V?$basic_string@DU?$char_traits@D@std@@V?$allocator@D@2@@std@@H@std@@V?$allocator@U?$pair@V?$basic_string@DU?$char_traits@D@std@@V?$allocator@D@2@@std@@H@std@@@2@@std@@QEBA?AV?$_Vector_const_iterator@V?$_Vector_val@U?$_Simple_types@U?$pair@V?$basic_string@DU?$char_traits@D@std@@V?$allocator@D@2@@std@@H@std@@@std@@@std@@@2@XZ 000000014004fcc0 f i main.obj
 0001:0004ed30       ??$_Emplace_reallocate@AEBUAccessor@gltf@@@?$vector@UAccessor@gltf@@V?$allocator@UAccessor@gltf@@@std@@@std@@AEAAPEAUAccessor@gltf@@QEAU23@AEBU23@@Z 000000014004fd30 f i main.obj
 0001:0004ef40       ?current_path@filesystem@std@@YAXAEBVpath@12@@Z 000000014004ff40 f i main.obj
 0001:0004efc0       ??$_Emplace_reallocate@AEBUAnimation@gltf@@@?$vector@UAnimation@gltf@@V?$allocator@UAnimation@gltf@@@std@@@std@@AEAAPEAUAnimation@gltf@@QEAU23@AEBU23@@Z 000000014004ffc0 f i main.obj
 0001:0004f1d0       ?deallocate@?$_Default_allocator_traits@V?$allocator@U?$_Tree_node@U?$pair@$$CBV?$basic_string@DU?$char_traits@D@std@@V?$allocator@D@2@@std@@PEAUmat4@@@std@@PEAX@std@@@std@@@std@@SAXAEAV?$allocator@U?$_Tree_node@U?$pair@$$CBV?$basic_string@DU?$char_traits@D@std@@V?$allocator@D@2@@std@@PEAUmat4@@@std@@PEAX@std@@@2@QEAU?$_Tree_node@U?$pair@$$CBV?$basic_string@DU?$char_traits@D@std@@V?$allocator@D@2@@std@@PEAUmat4@@@std@@PEAX@2@_K@Z 00000001400501d0 f i main.obj
 0001:0004f250       ??$_Emplace_reallocate@AEBUAnimationChannel@gltf@@@?$vector@UAnimationChannel@gltf@@V?$allocator@UAnimationChannel@gltf@@@std@@@std@@AEAAPEAUAnimationChannel@gltf@@QEAU23@AEBU23@@Z 0000000140050250 f i main.obj
 0001:0004f460       ?deallocate@?$_Default_allocator_traits@V?$allocator@U?$_Tree_node@U?$pair@$$CBV?$basic_string@DU?$char_traits@D@std@@V?$allocator@D@2@@std@@V?$basic_json@Vmap@std@@Vvector@2@V?$basic_string@DU?$char_traits@D@std@@V?$allocator@D@2@@2@_N_J_KNVallocator@2@Uadl_serializer@json_abi_v3_11_2@nlohmann@@V?$vector@EV?$allocator@E@std@@@2@X@json_abi_v3_11_2@nlohmann@@@std@@PEAX@std@@@std@@@std@@SAXAEAV?$allocator@U?$_Tree_node@U?$pair@$$CBV?$basic_string@DU?$char_traits@D@std@@V?$allocator@D@2@@std@@V?$basic_json@Vmap@std@@Vvector@2@V?$basic_string@DU?$char_traits@D@std@@V?$allocator@D@2@@2@_N_J_KNVallocator@2@Uadl_serializer@json_abi_v3_11_2@nlohmann@@V?$vector@EV?$allocator@E@std@@@2@X@json_abi_v3_11_2@nlohmann@@@std@@PEAX@std@@@2@QEAU?$_Tree_node@U?$pair@$$CBV?$basic_string@DU?$char_traits@D@std@@V?$allocator@D@2@@std@@V?$basic_json@Vmap@std@@Vvector@2@V?$basic_string@DU?$char_traits@D@std@@V?$allocator@D@2@@2@_N_J_KNVallocator@2@Uadl_serializer@json_abi_v3_11_2@nlohmann@@V?$vector@EV?$allocator@E@std@@@2@X@json_abi_v3_11_2@nlohmann@@@std@@PEAX@2@_K@Z 0000000140050460 f i main.obj
 0001:0004f4e0       ??$_Emplace_reallocate@AEBUAnimationSampler@gltf@@@?$vector@UAnimationSampler@gltf@@V?$allocator@UAnimationSampler@gltf@@@std@@@std@@AEAAPEAUAnimationSampler@gltf@@QEAU23@AEBU23@@Z 00000001400504e0 f i main.obj
 0001:0004f6f0       ?deallocate@?$_Default_allocator_traits@V?$allocator@U?$_Tree_node@U?$pair@$$CBV?$basic_string@DU?$char_traits@D@std@@V?$allocator@D@2@@std@@V?$weak_ptr@VImage@@@2@@std@@PEAX@std@@@std@@@std@@SAXAEAV?$allocator@U?$_Tree_node@U?$pair@$$CBV?$basic_string@DU?$char_traits@D@std@@V?$allocator@D@2@@std@@V?$weak_ptr@VImage@@@2@@std@@PEAX@std@@@2@QEAU?$_Tree_node@U?$pair@$$CBV?$basic_string@DU?$char_traits@D@std@@V?$allocator@D@2@@std@@V?$weak_ptr@VImage@@@2@@std@@PEAX@2@_K@Z 00000001400506f0 f i main.obj
 0001:0004f770       ??$_Emplace_reallocate@AEBUBuffer@gltf@@@?$vector@UBuffer@gltf@@V?$allocator@UBuffer@gltf@@@std@@@std@@AEAAPEAUBuffer@gltf@@QEAU23@AEBU23@@Z 0000000140050770 f i main.obj
 0001:0004f980       ?end@?$vector@GV?$allocator@G@std@@@std@@QEAA?AV?$_Vector_iterator@V?$_Vector_val@U?$_Simple_types@G@std@@@std@@@2@XZ 0000000140050980 f i main.obj
 0001:0004fa00       ??$_Emplace_reallocate@AEBUBufferView@gltf@@@?$vector@UBufferView@gltf@@V?$allocator@UBufferView@gltf@@@std@@@std@@AEAAPEAUBufferView@gltf@@QEAU23@AEBU23@@Z 0000000140050a00 f i main.obj
 0001:0004fc10       ?end@?$vector@IV?$allocator@I@std@@@std@@QEAA?AV?$_Vector_iterator@V?$_Vector_val@U?$_Simple_types@I@std@@@std@@@2@XZ 0000000140050c10 f i main.obj
 0001:0004fc90       ??$_Emplace_reallocate@AEBUImage@gltf@@@?$vector@UImage@gltf@@V?$allocator@UImage@gltf@@@std@@@std@@AEAAPEAUImage@gltf@@QEAU23@AEBU23@@Z 0000000140050c90 f i main.obj
 0001:0004fea0       ?end@?$vector@U?$pair@V?$basic_string@DU?$char_traits@D@std@@V?$allocator@D@2@@std@@H@std@@V?$allocator@U?$pair@V?$basic_string@DU?$char_traits@D@std@@V?$allocator@D@2@@std@@H@std@@@2@@std@@QEBA?AV?$_Vector_const_iterator@V?$_Vector_val@U?$_Simple_types@U?$pair@V?$basic_string@DU?$char_traits@D@std@@V?$allocator@D@2@@std@@H@std@@@std@@@std@@@2@XZ 0000000140050ea0 f i main.obj
 0001:0004ff20       ??$_Emplace_reallocate@AEBUMaterial@gltf@@@?$vector@UMaterial@gltf@@V?$allocator@UMaterial@gltf@@@std@@@std@@AEAAPEAUMaterial@gltf@@QEAU23@AEBU23@@Z 0000000140050f20 f i main.obj
 0001:00050140       ?_Set_back@?$basic_filebuf@DU?$char_traits@D@std@@@std@@AEAAXXZ 0000000140051140 f i main.obj
 0001:000501d0       ??$_Emplace_reallocate@AEBUMesh@gltf@@@?$vector@UMesh@gltf@@V?$allocator@UMesh@gltf@@@std@@@std@@AEAAPEAUMesh@gltf@@QEAU23@AEBU23@@Z 00000001400511d0 f i main.obj
 0001:000503e0       ?equivalent@error_category@std@@UEBA_NAEBVerror_code@2@H@Z 00000001400513e0 f i main.obj
 0001:00050460       ??$_Emplace_reallocate@AEBUMeshPrimitive@gltf@@@?$vector@UMeshPrimitive@gltf@@V?$allocator@UMeshPrimitive@gltf@@@std@@@std@@AEAAPEAUMeshPrimitive@gltf@@QEAU23@AEBU23@@Z 0000000140051460 f i main.obj
 0001:00050670       ?get_decimal_point@?$lexer@V?$basic_json@Vmap@std@@Vvector@2@V?$basic_string@DU?$char_traits@D@std@@V?$allocator@D@2@@2@_N_J_KNVallocator@2@Uadl_serializer@json_abi_v3_11_2@nlohmann@@V?$vector@EV?$allocator@E@std@@@2@X@json_abi_v3_11_2@nlohmann@@Vinput_stream_adapter@detail@23@@detail@json_abi_v3_11_2@nlohmann@@CADXZ 0000000140051670 f i main.obj
 0001:000506f0       ??$_Emplace_reallocate@AEBUNode@gltf@@@?$vector@UNode@gltf@@V?$allocator@UNode@gltf@@@std@@@std@@AEAAPEAUNode@gltf@@QEAU23@AEBU23@@Z 00000001400516f0 f i main.obj
 0001:00050910       ?close@?$basic_filebuf@DU?$char_traits@D@std@@@std@@QEAAPEAV12@XZ 0000000140051910 f i main.obj
 0001:000509a0       ??$_Emplace_reallocate@AEBUSampler@gltf@@@?$vector@USampler@gltf@@V?$allocator@USampler@gltf@@@std@@@std@@AEAAPEAUSampler@gltf@@QEAU23@AEBU23@@Z 00000001400519a0 f i main.obj
 0001:00050bb0       ?get_impl_ptr@?$basic_json@Vmap@std@@Vvector@2@V?$basic_string@DU?$char_traits@D@std@@V?$allocator@D@2@@2@_N_J_KNVallocator@2@Uadl_serializer@json_abi_v3_11_2@nlohmann@@V?$vector@EV?$allocator@E@std@@@2@X@json_abi_v3_11_2@nlohmann@@AEBAPEB_JPEB_J@Z 0000000140051bb0 f i main.obj
 0001:00050c30       ??$_Emplace_reallocate@AEBUScene@gltf@@@?$vector@UScene@gltf@@V?$allocator@UScene@gltf@@@std@@@std@@AEAAPEAUScene@gltf@@QEAU23@AEBU23@@Z 0000000140051c30 f i main.obj
 0001:00050e40       ?get_token@?$parser@V?$basic_json@Vmap@std@@Vvector@2@V?$basic_string@DU?$char_traits@D@std@@V?$allocator@D@2@@2@_N_J_KNVallocator@2@Uadl_serializer@json_abi_v3_11_2@nlohmann@@V?$vector@EV?$allocator@E@std@@@2@X@json_abi_v3_11_2@nlohmann@@Vinput_stream_adapter@detail@23@@detail@json_abi_v3_11_2@nlohmann@@AEAA?AW4token_type@?$lexer_base@V?$basic_json@Vmap@std@@Vvector@2@V?$basic_string@DU?$char_traits@D@std@@V?$allocator@D@2@@2@_N_J_KNVallocator@2@Uadl_serializer@json_abi_v3_11_2@nlohmann@@V?$vector@EV?$allocator@E@std@@@2@X@json_abi_v3_11_2@nlohmann@@@234@XZ 0000000140051e40 f i main.obj
 0001:00050e80       ?is_number_integer@?$basic_json@Vmap@std@@Vvector@2@V?$basic_string@DU?$char_traits@D@std@@V?$allocator@D@2@@2@_N_J_KNVallocator@2@Uadl_serializer@json_abi_v3_11_2@nlohmann@@V?$vector@EV?$allocator@E@std@@@2@X@json_abi_v3_11_2@nlohmann@@QEBA_NXZ 0000000140051e80 f i main.obj
 0001:00050ec0       ??$_Emplace_reallocate@AEBUSkin@gltf@@@?$vector@USkin@gltf@@V?$allocator@USkin@gltf@@@std@@@std@@AEAAPEAUSkin@gltf@@QEAU23@AEBU23@@Z 0000000140051ec0 f i main.obj
 0001:000510c0       ?is_structured@?$basic_json@Vmap@std@@Vvector@2@V?$basic_string@DU?$char_traits@D@std@@V?$allocator@D@2@@2@_N_J_KNVallocator@2@Uadl_serializer@json_abi_v3_11_2@nlohmann@@V?$vector@EV?$allocator@E@std@@@2@X@json_abi_v3_11_2@nlohmann@@QEBA_NXZ 00000001400520c0 f i main.obj
 0001:00051140       ??$_Emplace_reallocate@AEBUTexture@gltf@@@?$vector@UTexture@gltf@@V?$allocator@UTexture@gltf@@@std@@@std@@AEAAPEAUTexture@gltf@@QEAU23@AEBU23@@Z 0000000140052140 f i main.obj
 0001:00051350       ?length@?$vec3t@M@@QEBAMXZ 0000000140052350 f i main.obj
 0001:000513d0       ??$_Emplace_reallocate@AEBV?$basic_string@DU?$char_traits@D@std@@V?$allocator@D@2@@std@@@?$vector@V?$basic_string@DU?$char_traits@D@std@@V?$allocator@D@2@@std@@V?$allocator@V?$basic_string@DU?$char_traits@D@std@@V?$allocator@D@2@@std@@@2@@std@@AEAAPEAV?$basic_string@DU?$char_traits@D@std@@V?$allocator@D@2@@1@QEAV21@AEBV21@@Z 00000001400523d0 f i main.obj
 0001:000515d0       ?lock@?$weak_ptr@VImage@@@std@@QEBA?AV?$shared_ptr@VImage@@@2@XZ 00000001400525d0 f i main.obj
 0001:00051610       ?strtof@?$lexer@V?$basic_json@Vmap@std@@Vvector@2@V?$basic_string@DU?$char_traits@D@std@@V?$allocator@D@2@@2@_N_J_KNVallocator@2@Uadl_serializer@json_abi_v3_11_2@nlohmann@@V?$vector@EV?$allocator@E@std@@@2@X@json_abi_v3_11_2@nlohmann@@Vinput_stream_adapter@detail@23@@detail@json_abi_v3_11_2@nlohmann@@CAXAEANPEBDPEAPEAD@Z 0000000140052610 f i main.obj
 0001:00051650       ??$_Emplace_reallocate@D@?$vector@DV?$allocator@D@std@@@std@@AEAAPEADQEAD$$QEAD@Z 0000000140052650 f i main.obj
 0001:00051840       ?max_size@?$_Tree@V?$_Tmap_traits@V?$basic_string@DU?$char_traits@D@std@@V?$allocator@D@2@@std@@PEAUmat4@@U?$less@V?$basic_string@DU?$char_traits@D@std@@V?$allocator@D@2@@std@@@2@V?$allocator@U?$pair@$$CBV?$basic_string@DU?$char_traits@D@std@@V?$allocator@D@2@@std@@PEAUmat4@@@std@@@2@$0A@@std@@@std@@QEBA_KXZ 0000000140052840 f i main.obj
 0001:000518c0       ??$_Emplace_reallocate@H@?$vector@HV?$allocator@H@std@@@std@@AEAAPEAHQEAH$$QEAH@Z 00000001400528c0 f i main.obj
 0001:00051ac0       ?max_size@?$_Tree@V?$_Tmap_traits@V?$basic_string@DU?$char_traits@D@std@@V?$allocator@D@2@@std@@V?$basic_json@Vmap@std@@Vvector@2@V?$basic_string@DU?$char_traits@D@std@@V?$allocator@D@2@@2@_N_J_KNVallocator@2@Uadl_serializer@json_abi_v3_11_2@nlohmann@@V?$vector@EV?$allocator@E@std@@@2@X@json_abi_v3_11_2@nlohmann@@U?$less@X@2@V?$allocator@U?$pair@$$CBV?$basic_string@DU?$char_traits@D@std@@V?$allocator@D@2@@std@@V?$basic_json@Vmap@std@@Vvector@2@V?$basic_string@DU?$char_traits@D@std@@V?$allocator@D@2@@2@_N_J_KNVallocator@2@Uadl_serializer@json_abi_v3_11_2@nlohmann@@V?$vector@EV?$allocator@E@std@@@2@X@json_abi_v3_11_2@nlohmann@@@std@@@2@$0A@@std@@@std@@QEBA_KXZ 0000000140052ac0 f i main.obj
 0001:00051b30       ??$_Emplace_reallocate@M@?$vector@MV?$allocator@M@std@@@std@@AEAAPEAMQEAM$$QEAM@Z 0000000140052b30 f i main.obj
 0001:00051d30       ?max_size@?$_Tree@V?$_Tmap_traits@V?$basic_string@DU?$char_traits@D@std@@V?$allocator@D@2@@std@@V?$weak_ptr@VImage@@@2@U?$less@V?$basic_string@DU?$char_traits@D@std@@V?$allocator@D@2@@std@@@2@V?$allocator@U?$pair@$$CBV?$basic_string@DU?$char_traits@D@std@@V?$allocator@D@2@@std@@V?$weak_ptr@VImage@@@2@@std@@@2@$0A@@std@@@std@@QEBA_KXZ 0000000140052d30 f i main.obj
 0001:00051da0       ??$_Emplace_reallocate@PEAV?$basic_json@Vmap@std@@Vvector@2@V?$basic_string@DU?$char_traits@D@std@@V?$allocator@D@2@@2@_N_J_KNVallocator@2@Uadl_serializer@json_abi_v3_11_2@nlohmann@@V?$vector@EV?$allocator@E@std@@@2@X@json_abi_v3_11_2@nlohmann@@@?$vector@PEAV?$basic_json@Vmap@std@@Vvector@2@V?$basic_string@DU?$char_traits@D@std@@V?$allocator@D@2@@2@_N_J_KNVallocator@2@Uadl_serializer@json_abi_v3_11_2@nlohmann@@V?$vector@EV?$allocator@E@std@@@2@X@json_abi_v3_11_2@nlohmann@@V?$allocator@PEAV?$basic_json@Vmap@std@@Vvector@2@V?$basic_string@DU?$char_traits@D@std@@V?$allocator@D@2@@2@_N_J_KNVallocator@2@Uadl_serializer@json_abi_v3_11_2@nlohmann@@V?$vector@EV?$allocator@E@std@@@2@X@json_abi_v3_11_2@nlohmann@@@std@@@std@@AEAAPEAPEAV?$basic_json@Vmap@std@@Vvector@2@V?$basic_string@DU?$char_traits@D@std@@V?$allocator@D@2@@2@_N_J_KNVallocator@2@Uadl_serializer@json_abi_v3_11_2@nlohmann@@V?$vector@EV?$allocator@E@std@@@2@X@json_abi_v3_11_2@nlohmann@@QEAPEAV234@$$QEAPEAV234@@Z 0000000140052da0 f i main.obj
 0001:00051fa0       ?max_size@?$basic_string@DU?$char_traits@D@std@@V?$allocator@D@2@@std@@QEBA_KXZ 0000000140052fa0 f i main.obj
 0001:00052010       ??$_Emplace_reallocate@PEAVComponent@@@?$vector@PEAVComponent@@V?$allocator@PEAVComponent@@@std@@@std@@AEAAPEAPEAVComponent@@QEAPEAV2@$$QEAPEAV2@@Z 0000000140053010 f i main.obj
 0001:00052210       ?max_size@?$basic_string@_WU?$char_traits@_W@std@@V?$allocator@_W@2@@std@@QEBA_KXZ 0000000140053210 f i main.obj
 0001:00052280       ??$_Emplace_reallocate@PEAVNode@@@?$vector@PEAVNode@@V?$allocator@PEAVNode@@@std@@@std@@AEAAPEAPEAVNode@@QEAPEAV2@$$QEAPEAV2@@Z 0000000140053280 f i main.obj
 0001:00052480       ?not_eof@?$_Narrow_char_traits@DH@std@@SAHAEBH@Z 0000000140053480 f i main.obj
 0001:000524f0       ??$_Emplace_reallocate@U?$pair@V?$basic_string@DU?$char_traits@D@std@@V?$allocator@D@2@@std@@H@std@@@?$vector@U?$pair@V?$basic_string@DU?$char_traits@D@std@@V?$allocator@D@2@@std@@H@std@@V?$allocator@U?$pair@V?$basic_string@DU?$char_traits@D@std@@V?$allocator@D@2@@std@@H@std@@@2@@std@@AEAAPEAU?$pair@V?$basic_string@DU?$char_traits@D@std@@V?$allocator@D@2@@std@@H@1@QEAU21@$$QEAU21@@Z 00000001400534f0 f i main.obj
 0001:00052700       ?push_back@?$vector@_NV?$allocator@_N@std@@@std@@QEAAXAEB_N@Z 0000000140053700 f i main.obj
 0001:00052780       ??$_Emplace_reallocate@U?$pair@V?$basic_string@DU?$char_traits@D@std@@V?$allocator@D@2@@std@@V?$shared_ptr@VTexture2D@@@2@@std@@@?$vector@U?$pair@V?$basic_string@DU?$char_traits@D@std@@V?$allocator@D@2@@std@@V?$shared_ptr@VTexture2D@@@2@@std@@V?$allocator@U?$pair@V?$basic_string@DU?$char_traits@D@std@@V?$allocator@D@2@@std@@V?$shared_ptr@VTexture2D@@@2@@std@@@2@@std@@AEAAPEAU?$pair@V?$basic_string@DU?$char_traits@D@std@@V?$allocator@D@2@@std@@V?$shared_ptr@VTexture2D@@@2@@1@QEAU21@$$QEAU21@@Z 0000000140053780 f i main.obj
 0001:00052990       ?reserve@?$basic_string@DU?$char_traits@D@std@@V?$allocator@D@2@@std@@QEAAX_K@Z 0000000140053990 f i main.obj
 0001:00052a10       ??$_Emplace_reallocate@V?$basic_json@Vmap@std@@Vvector@2@V?$basic_string@DU?$char_traits@D@std@@V?$allocator@D@2@@2@_N_J_KNVallocator@2@Uadl_serializer@json_abi_v3_11_2@nlohmann@@V?$vector@EV?$allocator@E@std@@@2@X@json_abi_v3_11_2@nlohmann@@@?$vector@V?$basic_json@Vmap@std@@Vvector@2@V?$basic_string@DU?$char_traits@D@std@@V?$allocator@D@2@@2@_N_J_KNVallocator@2@Uadl_serializer@json_abi_v3_11_2@nlohmann@@V?$vector@EV?$allocator@E@std@@@2@X@json_abi_v3_11_2@nlohmann@@V?$allocator@V?$basic_json@Vmap@std@@Vvector@2@V?$basic_string@DU?$char_traits@D@std@@V?$allocator@D@2@@2@_N_J_KNVallocator@2@Uadl_serializer@json_abi_v3_11_2@nlohmann@@V?$vector@EV?$allocator@E@std@@@2@X@json_abi_v3_11_2@nlohmann@@@std@@@std@@AEAAPEAV?$basic_json@Vmap@std@@Vvector@2@V?$basic_string@DU?$char_traits@D@std@@V?$allocator@D@2@@2@_N_J_KNVallocator@2@Uadl_serializer@json_abi_v3_11_2@nlohmann@@V?$vector@EV?$allocator@E@std@@@2@X@json_abi_v3_11_2@nlohmann@@QEAV234@$$QEAV234@@Z 0000000140053a10 f i main.obj
 0001:00052c10       ?reserve@?$vector@V?$basic_json@Vmap@std@@Vvector@2@V?$basic_string@DU?$char_traits@D@std@@V?$allocator@D@2@@2@_N_J_KNVallocator@2@Uadl_serializer@json_abi_v3_11_2@nlohmann@@V?$vector@EV?$allocator@E@std@@@2@X@json_abi_v3_11_2@nlohmann@@V?$allocator@V?$basic_json@Vmap@std@@Vvector@2@V?$basic_string@DU?$char_traits@D@std@@V?$allocator@D@2@@2@_N_J_KNVallocator@2@Uadl_serializer@json_abi_v3_11_2@nlohmann@@V?$vector@EV?$allocator@E@std@@@2@X@json_abi_v3_11_2@nlohmann@@@std@@@std@@QEAAX_K@Z 0000000140053c10 f i main.obj
 0001:00052c90       ??$_Emplace_reallocate@VAnimationInstanceView@@@?$vector@VAnimationInstanceView@@V?$allocator@VAnimationInstanceView@@@std@@@std@@AEAAPEAVAnimationInstanceView@@QEAV2@$$QEAV2@@Z 0000000140053c90 f i main.obj
 0001:00052e90       ?reset@?$lexer@V?$basic_json@Vmap@std@@Vvector@2@V?$basic_string@DU?$char_traits@D@std@@V?$allocator@D@2@@2@_N_J_KNVallocator@2@Uadl_serializer@json_abi_v3_11_2@nlohmann@@V?$vector@EV?$allocator@E@std@@@2@X@json_abi_v3_11_2@nlohmann@@Vinput_stream_adapter@detail@23@@detail@json_abi_v3_11_2@nlohmann@@AEAAXXZ 0000000140053e90 f i main.obj
 0001:00052f10       ??$_Emplace_reallocate@W4value_t@detail@json_abi_v3_11_2@nlohmann@@@?$vector@V?$basic_json@Vmap@std@@Vvector@2@V?$basic_string@DU?$char_traits@D@std@@V?$allocator@D@2@@2@_N_J_KNVallocator@2@Uadl_serializer@json_abi_v3_11_2@nlohmann@@V?$vector@EV?$allocator@E@std@@@2@X@json_abi_v3_11_2@nlohmann@@V?$allocator@V?$basic_json@Vmap@std@@Vvector@2@V?$basic_string@DU?$char_traits@D@std@@V?$allocator@D@2@@2@_N_J_KNVallocator@2@Uadl_serializer@json_abi_v3_11_2@nlohmann@@V?$vector@EV?$allocator@E@std@@@2@X@json_abi_v3_11_2@nlohmann@@@std@@@std@@AEAAPEAV?$basic_json@Vmap@std@@Vvector@2@V?$basic_string@DU?$char_traits@D@std@@V?$allocator@D@2@@2@_N_J_KNVallocator@2@Uadl_serializer@json_abi_v3_11_2@nlohmann@@V?$vector@EV?$allocator@E@std@@@2@X@json_abi_v3_11_2@nlohmann@@QEAV234@$$QEAW4value_t@detail@34@@Z 0000000140053f10 f i main.obj
 0001:00053110       ?resize@?$basic_string@_WU?$char_traits@_W@std@@V?$allocator@_W@2@@std@@QEAAX_K_W@Z 0000000140054110 f i main.obj
 0001:00053190       ??$_Erase_head@V?$allocator@U?$_Tree_node@U?$pair@$$CBV?$basic_string@DU?$char_traits@D@std@@V?$allocator@D@2@@std@@PEAUmat4@@@std@@PEAX@std@@@std@@@?$_Tree_val@U?$_Tree_simple_types@U?$pair@$$CBV?$basic_string@DU?$char_traits@D@std@@V?$allocator@D@2@@std@@PEAUmat4@@@std@@@std@@@std@@QEAAXAEAV?$allocator@U?$_Tree_node@U?$pair@$$CBV?$basic_string@DU?$char_traits@D@std@@V?$allocator@D@2@@std@@PEAUmat4@@@std@@PEAX@std@@@1@@Z 0000000140054190 f i main.obj
 0001:000531f0       ??$_Erase_head@V?$allocator@U?$_Tree_node@U?$pair@$$CBV?$basic_string@DU?$char_traits@D@std@@V?$allocator@D@2@@std@@V?$basic_json@Vmap@std@@Vvector@2@V?$basic_string@DU?$char_traits@D@std@@V?$allocator@D@2@@2@_N_J_KNVallocator@2@Uadl_serializer@json_abi_v3_11_2@nlohmann@@V?$vector@EV?$allocator@E@std@@@2@X@json_abi_v3_11_2@nlohmann@@@std@@PEAX@std@@@std@@@?$_Tree_val@U?$_Tree_simple_types@U?$pair@$$CBV?$basic_string@DU?$char_traits@D@std@@V?$allocator@D@2@@std@@V?$basic_json@Vmap@std@@Vvector@2@V?$basic_string@DU?$char_traits@D@std@@V?$allocator@D@2@@2@_N_J_KNVallocator@2@Uadl_serializer@json_abi_v3_11_2@nlohmann@@V?$vector@EV?$allocator@E@std@@@2@X@json_abi_v3_11_2@nlohmann@@@std@@@std@@@std@@QEAAXAEAV?$allocator@U?$_Tree_node@U?$pair@$$CBV?$basic_string@DU?$char_traits@D@std@@V?$allocator@D@2@@std@@V?$basic_json@Vmap@std@@Vvector@2@V?$basic_string@DU?$char_traits@D@std@@V?$allocator@D@2@@2@_N_J_KNVallocator@2@Uadl_serializer@json_abi_v3_11_2@nlohmann@@V?$vector@EV?$allocator@E@std@@@2@X@json_abi_v3_11_2@nlohmann@@@std@@PEAX@std@@@1@@Z 00000001400541f0 f i main.obj
 0001:00053250       ??$_Erase_head@V?$allocator@U?$_Tree_node@U?$pair@$$CBV?$basic_string@DU?$char_traits@D@std@@V?$allocator@D@2@@std@@V?$weak_ptr@VImage@@@2@@std@@PEAX@std@@@std@@@?$_Tree_val@U?$_Tree_simple_types@U?$pair@$$CBV?$basic_string@DU?$char_traits@D@std@@V?$allocator@D@2@@std@@V?$weak_ptr@VImage@@@2@@std@@@std@@@std@@QEAAXAEAV?$allocator@U?$_Tree_node@U?$pair@$$CBV?$basic_string@DU?$char_traits@D@std@@V?$allocator@D@2@@std@@V?$weak_ptr@VImage@@@2@@std@@PEAX@std@@@1@@Z 0000000140054250 f i main.obj
 0001:000532b0       ??$_Erase_head@V?$allocator@U?$_Tree_node@U?$pair@$$CBV?$basic_string@DU?$char_traits@D@std@@V?$allocator@D@2@@std@@V?$weak_ptr@VScenes@@@2@@std@@PEAX@std@@@std@@@?$_Tree_val@U?$_Tree_simple_types@U?$pair@$$CBV?$basic_string@DU?$char_traits@D@std@@V?$allocator@D@2@@std@@V?$weak_ptr@VScenes@@@2@@std@@@std@@@std@@QEAAXAEAV?$allocator@U?$_Tree_node@U?$pair@$$CBV?$basic_string@DU?$char_traits@D@std@@V?$allocator@D@2@@std@@V?$weak_ptr@VScenes@@@2@@std@@PEAX@std@@@1@@Z 00000001400542b0 f i main.obj
 0001:00053310       ??$_Erase_head@V?$allocator@U?$_Tree_node@U?$pair@$$CBV?$basic_string@DU?$char_traits@D@std@@V?$allocator@D@2@@std@@V?$weak_ptr@VShader@@@2@@std@@PEAX@std@@@std@@@?$_Tree_val@U?$_Tree_simple_types@U?$pair@$$CBV?$basic_string@DU?$char_traits@D@std@@V?$allocator@D@2@@std@@V?$weak_ptr@VShader@@@2@@std@@@std@@@std@@QEAAXAEAV?$allocator@U?$_Tree_node@U?$pair@$$CBV?$basic_string@DU?$char_traits@D@std@@V?$allocator@D@2@@std@@V?$weak_ptr@VShader@@@2@@std@@PEAX@std@@@1@@Z 0000000140054310 f i main.obj
 0001:00053370       ??$_Erase_head@V?$allocator@U?$_Tree_node@U?$pair@$$CBV?$basic_string@DU?$char_traits@D@std@@V?$allocator@D@2@@std@@V?$weak_ptr@VTexture2D@@@2@@std@@PEAX@std@@@std@@@?$_Tree_val@U?$_Tree_simple_types@U?$pair@$$CBV?$basic_string@DU?$char_traits@D@std@@V?$allocator@D@2@@std@@V?$weak_ptr@VTexture2D@@@2@@std@@@std@@@std@@QEAAXAEAV?$allocator@U?$_Tree_node@U?$pair@$$CBV?$basic_string@DU?$char_traits@D@std@@V?$allocator@D@2@@std@@V?$weak_ptr@VTexture2D@@@2@@std@@PEAX@std@@@1@@Z 0000000140054370 f i main.obj
 0001:000533d0       ??$_Erase_tree@V?$allocator@U?$_Tree_node@U?$pair@$$CBV?$basic_string@DU?$char_traits@D@std@@V?$allocator@D@2@@std@@PEAUmat4@@@std@@PEAX@std@@@std@@@?$_Tree_val@U?$_Tree_simple_types@U?$pair@$$CBV?$basic_string@DU?$char_traits@D@std@@V?$allocator@D@2@@std@@PEAUmat4@@@std@@@std@@@std@@QEAAXAEAV?$allocator@U?$_Tree_node@U?$pair@$$CBV?$basic_string@DU?$char_traits@D@std@@V?$allocator@D@2@@std@@PEAUmat4@@@std@@PEAX@std@@@1@PEAU?$_Tree_node@U?$pair@$$CBV?$basic_string@DU?$char_traits@D@std@@V?$allocator@D@2@@std@@PEAUmat4@@@std@@PEAX@1@@Z 00000001400543d0 f i main.obj
 0001:00053450       ??$_Erase_tree@V?$allocator@U?$_Tree_node@U?$pair@$$CBV?$basic_string@DU?$char_traits@D@std@@V?$allocator@D@2@@std@@V?$basic_json@Vmap@std@@Vvector@2@V?$basic_string@DU?$char_traits@D@std@@V?$allocator@D@2@@2@_N_J_KNVallocator@2@Uadl_serializer@json_abi_v3_11_2@nlohmann@@V?$vector@EV?$allocator@E@std@@@2@X@json_abi_v3_11_2@nlohmann@@@std@@PEAX@std@@@std@@@?$_Tree_val@U?$_Tree_simple_types@U?$pair@$$CBV?$basic_string@DU?$char_traits@D@std@@V?$allocator@D@2@@std@@V?$basic_json@Vmap@std@@Vvector@2@V?$basic_string@DU?$char_traits@D@std@@V?$allocator@D@2@@2@_N_J_KNVallocator@2@Uadl_serializer@json_abi_v3_11_2@nlohmann@@V?$vector@EV?$allocator@E@std@@@2@X@json_abi_v3_11_2@nlohmann@@@std@@@std@@@std@@QEAAXAEAV?$allocator@U?$_Tree_node@U?$pair@$$CBV?$basic_string@DU?$char_traits@D@std@@V?$allocator@D@2@@std@@V?$basic_json@Vmap@std@@Vvector@2@V?$basic_string@DU?$char_traits@D@std@@V?$allocator@D@2@@2@_N_J_KNVallocator@2@Uadl_serializer@json_abi_v3_11_2@nlohmann@@V?$vector@EV?$allocator@E@std@@@2@X@json_abi_v3_11_2@nlohmann@@@std@@PEAX@std@@@1@PEAU?$_Tree_node@U?$pair@$$CBV?$basic_string@DU?$char_traits@D@std@@V?$allocator@D@2@@std@@V?$basic_json@Vmap@std@@Vvector@2@V?$basic_string@DU?$char_traits@D@std@@V?$allocator@D@2@@2@_N_J_KNVallocator@2@Uadl_serializer@json_abi_v3_11_2@nlohmann@@V?$vector@EV?$allocator@E@std@@@2@X@json_abi_v3_11_2@nlohmann@@@std@@PEAX@1@@Z 0000000140054450 f i main.obj
 0001:000534d0       ??$_Erase_tree@V?$allocator@U?$_Tree_node@U?$pair@$$CBV?$basic_string@DU?$char_traits@D@std@@V?$allocator@D@2@@std@@V?$weak_ptr@VImage@@@2@@std@@PEAX@std@@@std@@@?$_Tree_val@U?$_Tree_simple_types@U?$pair@$$CBV?$basic_string@DU?$char_traits@D@std@@V?$allocator@D@2@@std@@V?$weak_ptr@VImage@@@2@@std@@@std@@@std@@QEAAXAEAV?$allocator@U?$_Tree_node@U?$pair@$$CBV?$basic_string@DU?$char_traits@D@std@@V?$allocator@D@2@@std@@V?$weak_ptr@VImage@@@2@@std@@PEAX@std@@@1@PEAU?$_Tree_node@U?$pair@$$CBV?$basic_string@DU?$char_traits@D@std@@V?$allocator@D@2@@std@@V?$weak_ptr@VImage@@@2@@std@@PEAX@1@@Z 00000001400544d0 f i main.obj
 0001:00053550       ??$_Erase_tree@V?$allocator@U?$_Tree_node@U?$pair@$$CBV?$basic_string@DU?$char_traits@D@std@@V?$allocator@D@2@@std@@V?$weak_ptr@VScenes@@@2@@std@@PEAX@std@@@std@@@?$_Tree_val@U?$_Tree_simple_types@U?$pair@$$CBV?$basic_string@DU?$char_traits@D@std@@V?$allocator@D@2@@std@@V?$weak_ptr@VScenes@@@2@@std@@@std@@@std@@QEAAXAEAV?$allocator@U?$_Tree_node@U?$pair@$$CBV?$basic_string@DU?$char_traits@D@std@@V?$allocator@D@2@@std@@V?$weak_ptr@VScenes@@@2@@std@@PEAX@std@@@1@PEAU?$_Tree_node@U?$pair@$$CBV?$basic_string@DU?$char_traits@D@std@@V?$allocator@D@2@@std@@V?$weak_ptr@VScenes@@@2@@std@@PEAX@1@@Z 0000000140054550 f i main.obj
 0001:000535d0       ??$_Erase_tree@V?$allocator@U?$_Tree_node@U?$pair@$$CBV?$basic_string@DU?$char_traits@D@std@@V?$allocator@D@2@@std@@V?$weak_ptr@VShader@@@2@@std@@PEAX@std@@@std@@@?$_Tree_val@U?$_Tree_simple_types@U?$pair@$$CBV?$basic_string@DU?$char_traits@D@std@@V?$allocator@D@2@@std@@V?$weak_ptr@VShader@@@2@@std@@@std@@@std@@QEAAXAEAV?$allocator@U?$_Tree_node@U?$pair@$$CBV?$basic_string@DU?$char_traits@D@std@@V?$allocator@D@2@@std@@V?$weak_ptr@VShader@@@2@@std@@PEAX@std@@@1@PEAU?$_Tree_node@U?$pair@$$CBV?$basic_string@DU?$char_traits@D@std@@V?$allocator@D@2@@std@@V?$weak_ptr@VShader@@@2@@std@@PEAX@1@@Z 00000001400545d0 f i main.obj
 0001:00053650       ??$_Erase_tree@V?$allocator@U?$_Tree_node@U?$pair@$$CBV?$basic_string@DU?$char_traits@D@std@@V?$allocator@D@2@@std@@V?$weak_ptr@VTexture2D@@@2@@std@@PEAX@std@@@std@@@?$_Tree_val@U?$_Tree_simple_types@U?$pair@$$CBV?$basic_string@DU?$char_traits@D@std@@V?$allocator@D@2@@std@@V?$weak_ptr@VTexture2D@@@2@@std@@@std@@@std@@QEAAXAEAV?$allocator@U?$_Tree_node@U?$pair@$$CBV?$basic_string@DU?$char_traits@D@std@@V?$allocator@D@2@@std@@V?$weak_ptr@VTexture2D@@@2@@std@@PEAX@std@@@1@PEAU?$_Tree_node@U?$pair@$$CBV?$basic_string@DU?$char_traits@D@std@@V?$allocator@D@2@@std@@V?$weak_ptr@VTexture2D@@@2@@std@@PEAX@1@@Z 0000000140054650 f i main.obj
 0001:000536d0       ??$_Erase_tree_and_orphan@V?$allocator@U?$_Tree_node@U?$pair@$$CBV?$basic_string@DU?$char_traits@D@std@@V?$allocator@D@2@@std@@V?$basic_json@Vmap@std@@Vvector@2@V?$basic_string@DU?$char_traits@D@std@@V?$allocator@D@2@@2@_N_J_KNVallocator@2@Uadl_serializer@json_abi_v3_11_2@nlohmann@@V?$vector@EV?$allocator@E@std@@@2@X@json_abi_v3_11_2@nlohmann@@@std@@PEAX@std@@@std@@@?$_Tree_val@U?$_Tree_simple_types@U?$pair@$$CBV?$basic_string@DU?$char_traits@D@std@@V?$allocator@D@2@@std@@V?$basic_json@Vmap@std@@Vvector@2@V?$basic_string@DU?$char_traits@D@std@@V?$allocator@D@2@@2@_N_J_KNVallocator@2@Uadl_serializer@json_abi_v3_11_2@nlohmann@@V?$vector@EV?$allocator@E@std@@@2@X@json_abi_v3_11_2@nlohmann@@@std@@@std@@@std@@QEAAXAEAV?$allocator@U?$_Tree_node@U?$pair@$$CBV?$basic_string@DU?$char_traits@D@std@@V?$allocator@D@2@@std@@V?$basic_json@Vmap@std@@Vvector@2@V?$basic_string@DU?$char_traits@D@std@@V?$allocator@D@2@@2@_N_J_KNVallocator@2@Uadl_serializer@json_abi_v3_11_2@nlohmann@@V?$vector@EV?$allocator@E@std@@@2@X@json_abi_v3_11_2@nlohmann@@@std@@PEAX@std@@@1@PEAU?$_Tree_node@U?$pair@$$CBV?$basic_string@DU?$char_traits@D@std@@V?$allocator@D@2@@std@@V?$basic_json@Vmap@std@@Vvector@2@V?$basic_string@DU?$char_traits@D@std@@V?$allocator@D@2@@2@_N_J_KNVallocator@2@Uadl_serializer@json_abi_v3_11_2@nlohmann@@V?$vector@EV?$allocator@E@std@@@2@X@json_abi_v3_11_2@nlohmann@@@std@@PEAX@1@@Z 00000001400546d0 f i main.obj
 0001:00053770       ??$_Fgetc@D@std@@YA_NAEADPEAU_iobuf@@@Z 0000000140054770 f i main.obj
 0001:000537c0       ??$_Fill_vbool@V?$_Vb_iterator@U?$_Wrap_alloc@V?$allocator@I@std@@@std@@@std@@@std@@YAXV?$_Vb_iterator@U?$_Wrap_alloc@V?$allocator@I@std@@@std@@@0@V10@_N@Z 00000001400547c0 f i main.obj
 0001:00053a40       ?assign@?$basic_string@DU?$char_traits@D@std@@V?$allocator@D@2@@std@@QEAAAEAV12@QEBD_K@Z 0000000140054a40 f i main.obj
 0001:00053ae0       ??$_Fill_zero_memset@PEAI@std@@YAXPEAI_K@Z 0000000140054ae0 f i main.obj
 0001:00053b30       ??$_Find@$$BY03D@?$_Tree@V?$_Tmap_traits@V?$basic_string@DU?$char_traits@D@std@@V?$allocator@D@2@@std@@V?$basic_json@Vmap@std@@Vvector@2@V?$basic_string@DU?$char_traits@D@std@@V?$allocator@D@2@@2@_N_J_KNVallocator@2@Uadl_serializer@json_abi_v3_11_2@nlohmann@@V?$vector@EV?$allocator@E@std@@@2@X@json_abi_v3_11_2@nlohmann@@U?$less@X@2@V?$allocator@U?$pair@$$CBV?$basic_string@DU?$char_traits@D@std@@V?$allocator@D@2@@std@@V?$basic_json@Vmap@std@@Vvector@2@V?$basic_string@DU?$char_traits@D@std@@V?$allocator@D@2@@2@_N_J_KNVallocator@2@Uadl_serializer@json_abi_v3_11_2@nlohmann@@V?$vector@EV?$allocator@E@std@@@2@X@json_abi_v3_11_2@nlohmann@@@std@@@2@$0A@@std@@@std@@AEBAPEAU?$_Tree_node@U?$pair@$$CBV?$basic_string@DU?$char_traits@D@std@@V?$allocator@D@2@@std@@V?$basic_json@Vmap@std@@Vvector@2@V?$basic_string@DU?$char_traits@D@std@@V?$allocator@D@2@@2@_N_J_KNVallocator@2@Uadl_serializer@json_abi_v3_11_2@nlohmann@@V?$vector@EV?$allocator@E@std@@@2@X@json_abi_v3_11_2@nlohmann@@@std@@PEAX@1@AEAY03$$CBD@Z 0000000140054b30 f i main.obj
 0001:00053ba0       ??$_Find@$$BY04D@?$_Tree@V?$_Tmap_traits@V?$basic_string@DU?$char_traits@D@std@@V?$allocator@D@2@@std@@V?$basic_json@Vmap@std@@Vvector@2@V?$basic_string@DU?$char_traits@D@std@@V?$allocator@D@2@@2@_N_J_KNVallocator@2@Uadl_serializer@json_abi_v3_11_2@nlohmann@@V?$vector@EV?$allocator@E@std@@@2@X@json_abi_v3_11_2@nlohmann@@U?$less@X@2@V?$allocator@U?$pair@$$CBV?$basic_string@DU?$char_traits@D@std@@V?$allocator@D@2@@std@@V?$basic_json@Vmap@std@@Vvector@2@V?$basic_string@DU?$char_traits@D@std@@V?$allocator@D@2@@2@_N_J_KNVallocator@2@Uadl_serializer@json_abi_v3_11_2@nlohmann@@V?$vector@EV?$allocator@E@std@@@2@X@json_abi_v3_11_2@nlohmann@@@std@@@2@$0A@@std@@@std@@AEBAPEAU?$_Tree_node@U?$pair@$$CBV?$basic_string@DU?$char_traits@D@std@@V?$allocator@D@2@@std@@V?$basic_json@Vmap@std@@Vvector@2@V?$basic_string@DU?$char_traits@D@std@@V?$allocator@D@2@@2@_N_J_KNVallocator@2@Uadl_serializer@json_abi_v3_11_2@nlohmann@@V?$vector@EV?$allocator@E@std@@@2@X@json_abi_v3_11_2@nlohmann@@@std@@PEAX@1@AEAY04$$CBD@Z 0000000140054ba0 f i main.obj
 0001:00053c10       ??$_Find@$$BY05D@?$_Tree@V?$_Tmap_traits@V?$basic_string@DU?$char_traits@D@std@@V?$allocator@D@2@@std@@V?$basic_json@Vmap@std@@Vvector@2@V?$basic_string@DU?$char_traits@D@std@@V?$allocator@D@2@@2@_N_J_KNVallocator@2@Uadl_serializer@json_abi_v3_11_2@nlohmann@@V?$vector@EV?$allocator@E@std@@@2@X@json_abi_v3_11_2@nlohmann@@U?$less@X@2@V?$allocator@U?$pair@$$CBV?$basic_string@DU?$char_traits@D@std@@V?$allocator@D@2@@std@@V?$basic_json@Vmap@std@@Vvector@2@V?$basic_string@DU?$char_traits@D@std@@V?$allocator@D@2@@2@_N_J_KNVallocator@2@Uadl_serializer@json_abi_v3_11_2@nlohmann@@V?$vector@EV?$allocator@E@std@@@2@X@json_abi_v3_11_2@nlohmann@@@std@@@2@$0A@@std@@@std@@AEBAPEAU?$_Tree_node@U?$pair@$$CBV?$basic_string@DU?$char_traits@D@std@@V?$allocator@D@2@@std@@V?$basic_json@Vmap@std@@Vvector@2@V?$basic_string@DU?$char_traits@D@std@@V?$allocator@D@2@@2@_N_J_KNVallocator@2@Uadl_serializer@json_abi_v3_11_2@nlohmann@@V?$vector@EV?$allocator@E@std@@@2@X@json_abi_v3_11_2@nlohmann@@@std@@PEAX@1@AEAY05$$CBD@Z 0000000140054c10 f i main.obj
 0001:00053c80       ??$_Find@$$BY06D@?$_Tree@V?$_Tmap_traits@V?$basic_string@DU?$char_traits@D@std@@V?$allocator@D@2@@std@@V?$basic_json@Vmap@std@@Vvector@2@V?$basic_string@DU?$char_traits@D@std@@V?$allocator@D@2@@2@_N_J_KNVallocator@2@Uadl_serializer@json_abi_v3_11_2@nlohmann@@V?$vector@EV?$allocator@E@std@@@2@X@json_abi_v3_11_2@nlohmann@@U?$less@X@2@V?$allocator@U?$pair@$$CBV?$basic_string@DU?$char_traits@D@std@@V?$allocator@D@2@@std@@V?$basic_json@Vmap@std@@Vvector@2@V?$basic_string@DU?$char_traits@D@std@@V?$allocator@D@2@@2@_N_J_KNVallocator@2@Uadl_serializer@json_abi_v3_11_2@nlohmann@@V?$vector@EV?$allocator@E@std@@@2@X@json_abi_v3_11_2@nlohmann@@@std@@@2@$0A@@std@@@std@@AEBAPEAU?$_Tree_node@U?$pair@$$CBV?$basic_string@DU?$char_traits@D@std@@V?$allocator@D@2@@std@@V?$basic_json@Vmap@std@@Vvector@2@V?$basic_string@DU?$char_traits@D@std@@V?$allocator@D@2@@2@_N_J_KNVallocator@2@Uadl_serializer@json_abi_v3_11_2@nlohmann@@V?$vector@EV?$allocator@E@std@@@2@X@json_abi_v3_11_2@nlohmann@@@std@@PEAX@1@AEAY06$$CBD@Z 0000000140054c80 f i main.obj
 0001:00053cf0       ??$_Find@$$BY07D@?$_Tree@V?$_Tmap_traits@V?$basic_string@DU?$char_traits@D@std@@V?$allocator@D@2@@std@@V?$basic_json@Vmap@std@@Vvector@2@V?$basic_string@DU?$char_traits@D@std@@V?$allocator@D@2@@2@_N_J_KNVallocator@2@Uadl_serializer@json_abi_v3_11_2@nlohmann@@V?$vector@EV?$allocator@E@std@@@2@X@json_abi_v3_11_2@nlohmann@@U?$less@X@2@V?$allocator@U?$pair@$$CBV?$basic_string@DU?$char_traits@D@std@@V?$allocator@D@2@@std@@V?$basic_json@Vmap@std@@Vvector@2@V?$basic_string@DU?$char_traits@D@std@@V?$allocator@D@2@@2@_N_J_KNVallocator@2@Uadl_serializer@json_abi_v3_11_2@nlohmann@@V?$vector@EV?$allocator@E@std@@@2@X@json_abi_v3_11_2@nlohmann@@@std@@@2@$0A@@std@@@std@@AEBAPEAU?$_Tree_node@U?$pair@$$CBV?$basic_string@DU?$char_traits@D@std@@V?$allocator@D@2@@std@@V?$basic_json@Vmap@std@@Vvector@2@V?$basic_string@DU?$char_traits@D@std@@V?$allocator@D@2@@2@_N_J_KNVallocator@2@Uadl_serializer@json_abi_v3_11_2@nlohmann@@V?$vector@EV?$allocator@E@std@@@2@X@json_abi_v3_11_2@nlohmann@@@std@@PEAX@1@AEAY07$$CBD@Z 0000000140054cf0 f i main.obj
 0001:00053d60       ??$_Find@$$BY08D@?$_Tree@V?$_Tmap_traits@V?$basic_string@DU?$char_traits@D@std@@V?$allocator@D@2@@std@@V?$basic_json@Vmap@std@@Vvector@2@V?$basic_string@DU?$char_traits@D@std@@V?$allocator@D@2@@2@_N_J_KNVallocator@2@Uadl_serializer@json_abi_v3_11_2@nlohmann@@V?$vector@EV?$allocator@E@std@@@2@X@json_abi_v3_11_2@nlohmann@@U?$less@X@2@V?$allocator@U?$pair@$$CBV?$basic_string@DU?$char_traits@D@std@@V?$allocator@D@2@@std@@V?$basic_json@Vmap@std@@Vvector@2@V?$basic_string@DU?$char_traits@D@std@@V?$allocator@D@2@@2@_N_J_KNVallocator@2@Uadl_serializer@json_abi_v3_11_2@nlohmann@@V?$vector@EV?$allocator@E@std@@@2@X@json_abi_v3_11_2@nlohmann@@@std@@@2@$0A@@std@@@std@@AEBAPEAU?$_Tree_node@U?$pair@$$CBV?$basic_string@DU?$char_traits@D@std@@V?$allocator@D@2@@std@@V?$basic_json@Vmap@std@@Vvector@2@V?$basic_string@DU?$char_traits@D@std@@V?$allocator@D@2@@2@_N_J_KNVallocator@2@Uadl_serializer@json_abi_v3_11_2@nlohmann@@V?$vector@EV?$allocator@E@std@@@2@X@json_abi_v3_11_2@nlohmann@@@std@@PEAX@1@AEAY08$$CBD@Z 0000000140054d60 f i main.obj
 0001:00053dd0       ??$_Find@$$BY09D@?$_Tree@V?$_Tmap_traits@V?$basic_string@DU?$char_traits@D@std@@V?$allocator@D@2@@std@@V?$basic_json@Vmap@std@@Vvector@2@V?$basic_string@DU?$char_traits@D@std@@V?$allocator@D@2@@2@_N_J_KNVallocator@2@Uadl_serializer@json_abi_v3_11_2@nlohmann@@V?$vector@EV?$allocator@E@std@@@2@X@json_abi_v3_11_2@nlohmann@@U?$less@X@2@V?$allocator@U?$pair@$$CBV?$basic_string@DU?$char_traits@D@std@@V?$allocator@D@2@@std@@V?$basic_json@Vmap@std@@Vvector@2@V?$basic_string@DU?$char_traits@D@std@@V?$allocator@D@2@@2@_N_J_KNVallocator@2@Uadl_serializer@json_abi_v3_11_2@nlohmann@@V?$vector@EV?$allocator@E@std@@@2@X@json_abi_v3_11_2@nlohmann@@@std@@@2@$0A@@std@@@std@@AEBAPEAU?$_Tree_node@U?$pair@$$CBV?$basic_string@DU?$char_traits@D@std@@V?$allocator@D@2@@std@@V?$basic_json@Vmap@std@@Vvector@2@V?$basic_string@DU?$char_traits@D@std@@V?$allocator@D@2@@2@_N_J_KNVallocator@2@Uadl_serializer@json_abi_v3_11_2@nlohmann@@V?$vector@EV?$allocator@E@std@@@2@X@json_abi_v3_11_2@nlohmann@@@std@@PEAX@1@AEAY09$$CBD@Z 0000000140054dd0 f i main.obj
 0001:00053e40       ??$_Find@$$BY0BA@D@?$_Tree@V?$_Tmap_traits@V?$basic_string@DU?$char_traits@D@std@@V?$allocator@D@2@@std@@V?$basic_json@Vmap@std@@Vvector@2@V?$basic_string@DU?$char_traits@D@std@@V?$allocator@D@2@@2@_N_J_KNVallocator@2@Uadl_serializer@json_abi_v3_11_2@nlohmann@@V?$vector@EV?$allocator@E@std@@@2@X@json_abi_v3_11_2@nlohmann@@U?$less@X@2@V?$allocator@U?$pair@$$CBV?$basic_string@DU?$char_traits@D@std@@V?$allocator@D@2@@std@@V?$basic_json@Vmap@std@@Vvector@2@V?$basic_string@DU?$char_traits@D@std@@V?$allocator@D@2@@2@_N_J_KNVallocator@2@Uadl_serializer@json_abi_v3_11_2@nlohmann@@V?$vector@EV?$allocator@E@std@@@2@X@json_abi_v3_11_2@nlohmann@@@std@@@2@$0A@@std@@@std@@AEBAPEAU?$_Tree_node@U?$pair@$$CBV?$basic_string@DU?$char_traits@D@std@@V?$allocator@D@2@@std@@V?$basic_json@Vmap@std@@Vvector@2@V?$basic_string@DU?$char_traits@D@std@@V?$allocator@D@2@@2@_N_J_KNVallocator@2@Uadl_serializer@json_abi_v3_11_2@nlohmann@@V?$vector@EV?$allocator@E@std@@@2@X@json_abi_v3_11_2@nlohmann@@@std@@PEAX@1@AEAY0BA@$$CBD@Z 0000000140054e40 f i main.obj
 0001:00053eb0       ??$_Find@$$BY0BB@D@?$_Tree@V?$_Tmap_traits@V?$basic_string@DU?$char_traits@D@std@@V?$allocator@D@2@@std@@V?$basic_json@Vmap@std@@Vvector@2@V?$basic_string@DU?$char_traits@D@std@@V?$allocator@D@2@@2@_N_J_KNVallocator@2@Uadl_serializer@json_abi_v3_11_2@nlohmann@@V?$vector@EV?$allocator@E@std@@@2@X@json_abi_v3_11_2@nlohmann@@U?$less@X@2@V?$allocator@U?$pair@$$CBV?$basic_string@DU?$char_traits@D@std@@V?$allocator@D@2@@std@@V?$basic_json@Vmap@std@@Vvector@2@V?$basic_string@DU?$char_traits@D@std@@V?$allocator@D@2@@2@_N_J_KNVallocator@2@Uadl_serializer@json_abi_v3_11_2@nlohmann@@V?$vector@EV?$allocator@E@std@@@2@X@json_abi_v3_11_2@nlohmann@@@std@@@2@$0A@@std@@@std@@AEBAPEAU?$_Tree_node@U?$pair@$$CBV?$basic_string@DU?$char_traits@D@std@@V?$allocator@D@2@@std@@V?$basic_json@Vmap@std@@Vvector@2@V?$basic_string@DU?$char_traits@D@std@@V?$allocator@D@2@@2@_N_J_KNVallocator@2@Uadl_serializer@json_abi_v3_11_2@nlohmann@@V?$vector@EV?$allocator@E@std@@@2@X@json_abi_v3_11_2@nlohmann@@@std@@PEAX@1@AEAY0BB@$$CBD@Z 0000000140054eb0 f i main.obj
 0001:00053f20       ??$_Find@$$BY0BE@D@?$_Tree@V?$_Tmap_traits@V?$basic_string@DU?$char_traits@D@std@@V?$allocator@D@2@@std@@V?$basic_json@Vmap@std@@Vvector@2@V?$basic_string@DU?$char_traits@D@std@@V?$allocator@D@2@@2@_N_J_KNVallocator@2@Uadl_serializer@json_abi_v3_11_2@nlohmann@@V?$vector@EV?$allocator@E@std@@@2@X@json_abi_v3_11_2@nlohmann@@U?$less@X@2@V?$allocator@U?$pair@$$CBV?$basic_string@DU?$char_traits@D@std@@V?$allocator@D@2@@std@@V?$basic_json@Vmap@std@@Vvector@2@V?$basic_string@DU?$char_traits@D@std@@V?$allocator@D@2@@2@_N_J_KNVallocator@2@Uadl_serializer@json_abi_v3_11_2@nlohmann@@V?$vector@EV?$allocator@E@std@@@2@X@json_abi_v3_11_2@nlohmann@@@std@@@2@$0A@@std@@@std@@AEBAPEAU?$_Tree_node@U?$pair@$$CBV?$basic_string@DU?$char_traits@D@std@@V?$allocator@D@2@@std@@V?$basic_json@Vmap@std@@Vvector@2@V?$basic_string@DU?$char_traits@D@std@@V?$allocator@D@2@@2@_N_J_KNVallocator@2@Uadl_serializer@json_abi_v3_11_2@nlohmann@@V?$vector@EV?$allocator@E@std@@@2@X@json_abi_v3_11_2@nlohmann@@@std@@PEAX@1@AEAY0BE@$$CBD@Z 0000000140054f20 f i main.obj
 0001:00053f90       ??$_Find@$$BY0BF@D@?$_Tree@V?$_Tmap_traits@V?$basic_string@DU?$char_traits@D@std@@V?$allocator@D@2@@std@@V?$basic_json@Vmap@std@@Vvector@2@V?$basic_string@DU?$char_traits@D@std@@V?$allocator@D@2@@2@_N_J_KNVallocator@2@Uadl_serializer@json_abi_v3_11_2@nlohmann@@V?$vector@EV?$allocator@E@std@@@2@X@json_abi_v3_11_2@nlohmann@@U?$less@X@2@V?$allocator@U?$pair@$$CBV?$basic_string@DU?$char_traits@D@std@@V?$allocator@D@2@@std@@V?$basic_json@Vmap@std@@Vvector@2@V?$basic_string@DU?$char_traits@D@std@@V?$allocator@D@2@@2@_N_J_KNVallocator@2@Uadl_serializer@json_abi_v3_11_2@nlohmann@@V?$vector@EV?$allocator@E@std@@@2@X@json_abi_v3_11_2@nlohmann@@@std@@@2@$0A@@std@@@std@@AEBAPEAU?$_Tree_node@U?$pair@$$CBV?$basic_string@DU?$char_traits@D@std@@V?$allocator@D@2@@std@@V?$basic_json@Vmap@std@@Vvector@2@V?$basic_string@DU?$char_traits@D@std@@V?$allocator@D@2@@2@_N_J_KNVallocator@2@Uadl_serializer@json_abi_v3_11_2@nlohmann@@V?$vector@EV?$allocator@E@std@@@2@X@json_abi_v3_11_2@nlohmann@@@std@@PEAX@1@AEAY0BF@$$CBD@Z 0000000140054f90 f i main.obj
 0001:00054000       ??$_Find@$$BY0BJ@D@?$_Tree@V?$_Tmap_traits@V?$basic_string@DU?$char_traits@D@std@@V?$allocator@D@2@@std@@V?$basic_json@Vmap@std@@Vvector@2@V?$basic_string@DU?$char_traits@D@std@@V?$allocator@D@2@@2@_N_J_KNVallocator@2@Uadl_serializer@json_abi_v3_11_2@nlohmann@@V?$vector@EV?$allocator@E@std@@@2@X@json_abi_v3_11_2@nlohmann@@U?$less@X@2@V?$allocator@U?$pair@$$CBV?$basic_string@DU?$char_traits@D@std@@V?$allocator@D@2@@std@@V?$basic_json@Vmap@std@@Vvector@2@V?$basic_string@DU?$char_traits@D@std@@V?$allocator@D@2@@2@_N_J_KNVallocator@2@Uadl_serializer@json_abi_v3_11_2@nlohmann@@V?$vector@EV?$allocator@E@std@@@2@X@json_abi_v3_11_2@nlohmann@@@std@@@2@$0A@@std@@@std@@AEBAPEAU?$_Tree_node@U?$pair@$$CBV?$basic_string@DU?$char_traits@D@std@@V?$allocator@D@2@@std@@V?$basic_json@Vmap@std@@Vvector@2@V?$basic_string@DU?$char_traits@D@std@@V?$allocator@D@2@@2@_N_J_KNVallocator@2@Uadl_serializer@json_abi_v3_11_2@nlohmann@@V?$vector@EV?$allocator@E@std@@@2@X@json_abi_v3_11_2@nlohmann@@@std@@PEAX@1@AEAY0BJ@$$CBD@Z 0000000140055000 f i main.obj
 0001:00054070       ??$_Find@$$BY0L@D@?$_Tree@V?$_Tmap_traits@V?$basic_string@DU?$char_traits@D@std@@V?$allocator@D@2@@std@@V?$basic_json@Vmap@std@@Vvector@2@V?$basic_string@DU?$char_traits@D@std@@V?$allocator@D@2@@2@_N_J_KNVallocator@2@Uadl_serializer@json_abi_v3_11_2@nlohmann@@V?$vector@EV?$allocator@E@std@@@2@X@json_abi_v3_11_2@nlohmann@@U?$less@X@2@V?$allocator@U?$pair@$$CBV?$basic_string@DU?$char_traits@D@std@@V?$allocator@D@2@@std@@V?$basic_json@Vmap@std@@Vvector@2@V?$basic_string@DU?$char_traits@D@std@@V?$allocator@D@2@@2@_N_J_KNVallocator@2@Uadl_serializer@json_abi_v3_11_2@nlohmann@@V?$vector@EV?$allocator@E@std@@@2@X@json_abi_v3_11_2@nlohmann@@@std@@@2@$0A@@std@@@std@@AEBAPEAU?$_Tree_node@U?$pair@$$CBV?$basic_string@DU?$char_traits@D@std@@V?$allocator@D@2@@std@@V?$basic_json@Vmap@std@@Vvector@2@V?$basic_string@DU?$char_traits@D@std@@V?$allocator@D@2@@2@_N_J_KNVallocator@2@Uadl_serializer@json_abi_v3_11_2@nlohmann@@V?$vector@EV?$allocator@E@std@@@2@X@json_abi_v3_11_2@nlohmann@@@std@@PEAX@1@AEAY0L@$$CBD@Z 0000000140055070 f i main.obj
 0001:000540e0       ??$_Find@$$BY0M@D@?$_Tree@V?$_Tmap_traits@V?$basic_string@DU?$char_traits@D@std@@V?$allocator@D@2@@std@@V?$basic_json@Vmap@std@@Vvector@2@V?$basic_string@DU?$char_traits@D@std@@V?$allocator@D@2@@2@_N_J_KNVallocator@2@Uadl_serializer@json_abi_v3_11_2@nlohmann@@V?$vector@EV?$allocator@E@std@@@2@X@json_abi_v3_11_2@nlohmann@@U?$less@X@2@V?$allocator@U?$pair@$$CBV?$basic_string@DU?$char_traits@D@std@@V?$allocator@D@2@@std@@V?$basic_json@Vmap@std@@Vvector@2@V?$basic_string@DU?$char_traits@D@std@@V?$allocator@D@2@@2@_N_J_KNVallocator@2@Uadl_serializer@json_abi_v3_11_2@nlohmann@@V?$vector@EV?$allocator@E@std@@@2@X@json_abi_v3_11_2@nlohmann@@@std@@@2@$0A@@std@@@std@@AEBAPEAU?$_Tree_node@U?$pair@$$CBV?$basic_string@DU?$char_traits@D@std@@V?$allocator@D@2@@std@@V?$basic_json@Vmap@std@@Vvector@2@V?$basic_string@DU?$char_traits@D@std@@V?$allocator@D@2@@2@_N_J_KNVallocator@2@Uadl_serializer@json_abi_v3_11_2@nlohmann@@V?$vector@EV?$allocator@E@std@@@2@X@json_abi_v3_11_2@nlohmann@@@std@@PEAX@1@AEAY0M@$$CBD@Z 00000001400550e0 f i main.obj
 0001:00054150       ??$_Find@$$BY0O@D@?$_Tree@V?$_Tmap_traits@V?$basic_string@DU?$char_traits@D@std@@V?$allocator@D@2@@std@@V?$basic_json@Vmap@std@@Vvector@2@V?$basic_string@DU?$char_traits@D@std@@V?$allocator@D@2@@2@_N_J_KNVallocator@2@Uadl_serializer@json_abi_v3_11_2@nlohmann@@V?$vector@EV?$allocator@E@std@@@2@X@json_abi_v3_11_2@nlohmann@@U?$less@X@2@V?$allocator@U?$pair@$$CBV?$basic_string@DU?$char_traits@D@std@@V?$allocator@D@2@@std@@V?$basic_json@Vmap@std@@Vvector@2@V?$basic_string@DU?$char_traits@D@std@@V?$allocator@D@2@@2@_N_J_KNVallocator@2@Uadl_serializer@json_abi_v3_11_2@nlohmann@@V?$vector@EV?$allocator@E@std@@@2@X@json_abi_v3_11_2@nlohmann@@@std@@@2@$0A@@std@@@std@@AEBAPEAU?$_Tree_node@U?$pair@$$CBV?$basic_string@DU?$char_traits@D@std@@V?$allocator@D@2@@std@@V?$basic_json@Vmap@std@@Vvector@2@V?$basic_string@DU?$char_traits@D@std@@V?$allocator@D@2@@2@_N_J_KNVallocator@2@Uadl_serializer@json_abi_v3_11_2@nlohmann@@V?$vector@EV?$allocator@E@std@@@2@X@json_abi_v3_11_2@nlohmann@@@std@@PEAX@1@AEAY0O@$$CBD@Z 0000000140055150 f i main.obj
 0001:000541c0       ??$_Find@$$BY0P@D@?$_Tree@V?$_Tmap_traits@V?$basic_string@DU?$char_traits@D@std@@V?$allocator@D@2@@std@@V?$basic_json@Vmap@std@@Vvector@2@V?$basic_string@DU?$char_traits@D@std@@V?$allocator@D@2@@2@_N_J_KNVallocator@2@Uadl_serializer@json_abi_v3_11_2@nlohmann@@V?$vector@EV?$allocator@E@std@@@2@X@json_abi_v3_11_2@nlohmann@@U?$less@X@2@V?$allocator@U?$pair@$$CBV?$basic_string@DU?$char_traits@D@std@@V?$allocator@D@2@@std@@V?$basic_json@Vmap@std@@Vvector@2@V?$basic_string@DU?$char_traits@D@std@@V?$allocator@D@2@@2@_N_J_KNVallocator@2@Uadl_serializer@json_abi_v3_11_2@nlohmann@@V?$vector@EV?$allocator@E@std@@@2@X@json_abi_v3_11_2@nlohmann@@@std@@@2@$0A@@std@@@std@@AEBAPEAU?$_Tree_node@U?$pair@$$CBV?$basic_string@DU?$char_traits@D@std@@V?$allocator@D@2@@std@@V?$basic_json@Vmap@std@@Vvector@2@V?$basic_string@DU?$char_traits@D@std@@V?$allocator@D@2@@2@_N_J_KNVallocator@2@Uadl_serializer@json_abi_v3_11_2@nlohmann@@V?$vector@EV?$allocator@E@std@@@2@X@json_abi_v3_11_2@nlohmann@@@std@@PEAX@1@AEAY0P@$$CBD@Z 00000001400551c0 f i main.obj
 0001:00054230       ??$_Find@V?$basic_string@DU?$char_traits@D@std@@V?$allocator@D@2@@std@@@?$_Tree@V?$_Tmap_traits@V?$basic_string@DU?$char_traits@D@std@@V?$allocator@D@2@@std@@V?$weak_ptr@VImage@@@2@U?$less@V?$basic_string@DU?$char_traits@D@std@@V?$allocator@D@2@@std@@@2@V?$allocator@U?$pair@$$CBV?$basic_string@DU?$char_traits@D@std@@V?$allocator@D@2@@std@@V?$weak_ptr@VImage@@@2@@std@@@2@$0A@@std@@@std@@AEBAPEAU?$_Tree_node@U?$pair@$$CBV?$basic_string@DU?$char_traits@D@std@@V?$allocator@D@2@@std@@V?$weak_ptr@VImage@@@2@@std@@PEAX@1@AEBV?$basic_string@DU?$char_traits@D@std@@V?$allocator@D@2@@1@@Z 0000000140055230 f i main.obj
 0001:000542a0       ??$_Find@V?$basic_string@DU?$char_traits@D@std@@V?$allocator@D@2@@std@@@?$_Tree@V?$_Tmap_traits@V?$basic_string@DU?$char_traits@D@std@@V?$allocator@D@2@@std@@V?$weak_ptr@VScenes@@@2@U?$less@V?$basic_string@DU?$char_traits@D@std@@V?$allocator@D@2@@std@@@2@V?$allocator@U?$pair@$$CBV?$basic_string@DU?$char_traits@D@std@@V?$allocator@D@2@@std@@V?$weak_ptr@VScenes@@@2@@std@@@2@$0A@@std@@@std@@AEBAPEAU?$_Tree_node@U?$pair@$$CBV?$basic_string@DU?$char_traits@D@std@@V?$allocator@D@2@@std@@V?$weak_ptr@VScenes@@@2@@std@@PEAX@1@AEBV?$basic_string@DU?$char_traits@D@std@@V?$allocator@D@2@@1@@Z 00000001400552a0 f i main.obj
 0001:00054310       ??$_Find@V?$basic_string@DU?$char_traits@D@std@@V?$allocator@D@2@@std@@@?$_Tree@V?$_Tmap_traits@V?$basic_string@DU?$char_traits@D@std@@V?$allocator@D@2@@std@@V?$weak_ptr@VShader@@@2@U?$less@V?$basic_string@DU?$char_traits@D@std@@V?$allocator@D@2@@std@@@2@V?$allocator@U?$pair@$$CBV?$basic_string@DU?$char_traits@D@std@@V?$allocator@D@2@@std@@V?$weak_ptr@VShader@@@2@@std@@@2@$0A@@std@@@std@@AEBAPEAU?$_Tree_node@U?$pair@$$CBV?$basic_string@DU?$char_traits@D@std@@V?$allocator@D@2@@std@@V?$weak_ptr@VShader@@@2@@std@@PEAX@1@AEBV?$basic_string@DU?$char_traits@D@std@@V?$allocator@D@2@@1@@Z 0000000140055310 f i main.obj
 0001:00054380       ??$_Find@V?$basic_string@DU?$char_traits@D@std@@V?$allocator@D@2@@std@@@?$_Tree@V?$_Tmap_traits@V?$basic_string@DU?$char_traits@D@std@@V?$allocator@D@2@@std@@V?$weak_ptr@VTexture2D@@@2@U?$less@V?$basic_string@DU?$char_traits@D@std@@V?$allocator@D@2@@std@@@2@V?$allocator@U?$pair@$$CBV?$basic_string@DU?$char_traits@D@std@@V?$allocator@D@2@@std@@V?$weak_ptr@VTexture2D@@@2@@std@@@2@$0A@@std@@@std@@AEBAPEAU?$_Tree_node@U?$pair@$$CBV?$basic_string@DU?$char_traits@D@std@@V?$allocator@D@2@@std@@V?$weak_ptr@VTexture2D@@@2@@std@@PEAX@1@AEBV?$basic_string@DU?$char_traits@D@std@@V?$allocator@D@2@@1@@Z 0000000140055380 f i main.obj
 0001:000543f0       ??$_Find_lower_bound@$$BY03D@?$_Tree@V?$_Tmap_traits@V?$basic_string@DU?$char_traits@D@std@@V?$allocator@D@2@@std@@V?$basic_json@Vmap@std@@Vvector@2@V?$basic_string@DU?$char_traits@D@std@@V?$allocator@D@2@@2@_N_J_KNVallocator@2@Uadl_serializer@json_abi_v3_11_2@nlohmann@@V?$vector@EV?$allocator@E@std@@@2@X@json_abi_v3_11_2@nlohmann@@U?$less@X@2@V?$allocator@U?$pair@$$CBV?$basic_string@DU?$char_traits@D@std@@V?$allocator@D@2@@std@@V?$basic_json@Vmap@std@@Vvector@2@V?$basic_string@DU?$char_traits@D@std@@V?$allocator@D@2@@2@_N_J_KNVallocator@2@Uadl_serializer@json_abi_v3_11_2@nlohmann@@V?$vector@EV?$allocator@E@std@@@2@X@json_abi_v3_11_2@nlohmann@@@std@@@2@$0A@@std@@@std@@IEBA?AU?$_Tree_find_result@PEAU?$_Tree_node@U?$pair@$$CBV?$basic_string@DU?$char_traits@D@std@@V?$allocator@D@2@@std@@V?$basic_json@Vmap@std@@Vvector@2@V?$basic_string@DU?$char_traits@D@std@@V?$allocator@D@2@@2@_N_J_KNVallocator@2@Uadl_serializer@json_abi_v3_11_2@nlohmann@@V?$vector@EV?$allocator@E@std@@@2@X@json_abi_v3_11_2@nlohmann@@@std@@PEAX@std@@@1@AEAY03$$CBD@Z 00000001400553f0 f i main.obj
 0001:00054500       ?skip_whitespace@?$lexer@V?$basic_json@Vmap@std@@Vvector@2@V?$basic_string@DU?$char_traits@D@std@@V?$allocator@D@2@@2@_N_J_KNVallocator@2@Uadl_serializer@json_abi_v3_11_2@nlohmann@@V?$vector@EV?$allocator@E@std@@@2@X@json_abi_v3_11_2@nlohmann@@Vinput_stream_adapter@detail@23@@detail@json_abi_v3_11_2@nlohmann@@QEAAXXZ 0000000140055500 f i main.obj
 0001:00054550       ??$_Find_lower_bound@$$BY04D@?$_Tree@V?$_Tmap_traits@V?$basic_string@DU?$char_traits@D@std@@V?$allocator@D@2@@std@@V?$basic_json@Vmap@std@@Vvector@2@V?$basic_string@DU?$char_traits@D@std@@V?$allocator@D@2@@2@_N_J_KNVallocator@2@Uadl_serializer@json_abi_v3_11_2@nlohmann@@V?$vector@EV?$allocator@E@std@@@2@X@json_abi_v3_11_2@nlohmann@@U?$less@X@2@V?$allocator@U?$pair@$$CBV?$basic_string@DU?$char_traits@D@std@@V?$allocator@D@2@@std@@V?$basic_json@Vmap@std@@Vvector@2@V?$basic_string@DU?$char_traits@D@std@@V?$allocator@D@2@@2@_N_J_KNVallocator@2@Uadl_serializer@json_abi_v3_11_2@nlohmann@@V?$vector@EV?$allocator@E@std@@@2@X@json_abi_v3_11_2@nlohmann@@@std@@@2@$0A@@std@@@std@@IEBA?AU?$_Tree_find_result@PEAU?$_Tree_node@U?$pair@$$CBV?$basic_string@DU?$char_traits@D@std@@V?$allocator@D@2@@std@@V?$basic_json@Vmap@std@@Vvector@2@V?$basic_string@DU?$char_traits@D@std@@V?$allocator@D@2@@2@_N_J_KNVallocator@2@Uadl_serializer@json_abi_v3_11_2@nlohmann@@V?$vector@EV?$allocator@E@std@@@2@X@json_abi_v3_11_2@nlohmann@@@std@@PEAX@std@@@1@AEAY04$$CBD@Z 0000000140055550 f i main.obj
 0001:00054660       ?to_string@std@@YA?AV?$basic_string@DU?$char_traits@D@std@@V?$allocator@D@2@@1@_K@Z 0000000140055660 f i main.obj
 0001:000546b0       ??$_Find_lower_bound@$$BY05D@?$_Tree@V?$_Tmap_traits@V?$basic_string@DU?$char_traits@D@std@@V?$allocator@D@2@@std@@V?$basic_json@Vmap@std@@Vvector@2@V?$basic_string@DU?$char_traits@D@std@@V?$allocator@D@2@@2@_N_J_KNVallocator@2@Uadl_serializer@json_abi_v3_11_2@nlohmann@@V?$vector@EV?$allocator@E@std@@@2@X@json_abi_v3_11_2@nlohmann@@U?$less@X@2@V?$allocator@U?$pair@$$CBV?$basic_string@DU?$char_traits@D@std@@V?$allocator@D@2@@std@@V?$basic_json@Vmap@std@@Vvector@2@V?$basic_string@DU?$char_traits@D@std@@V?$allocator@D@2@@2@_N_J_KNVallocator@2@Uadl_serializer@json_abi_v3_11_2@nlohmann@@V?$vector@EV?$allocator@E@std@@@2@X@json_abi_v3_11_2@nlohmann@@@std@@@2@$0A@@std@@@std@@IEBA?AU?$_Tree_find_result@PEAU?$_Tree_node@U?$pair@$$CBV?$basic_string@DU?$char_traits@D@std@@V?$allocator@D@2@@std@@V?$basic_json@Vmap@std@@Vvector@2@V?$basic_string@DU?$char_traits@D@std@@V?$allocator@D@2@@2@_N_J_KNVallocator@2@Uadl_serializer@json_abi_v3_11_2@nlohmann@@V?$vector@EV?$allocator@E@std@@@2@X@json_abi_v3_11_2@nlohmann@@@std@@PEAX@std@@@1@AEAY05$$CBD@Z 00000001400556b0 f i main.obj
 0001:000547c0       ?what@exception@detail@json_abi_v3_11_2@nlohmann@@UEBAPEBDXZ 00000001400557c0 f i main.obj
 0001:00054810       ??$_Find_lower_bound@$$BY06D@?$_Tree@V?$_Tmap_traits@V?$basic_string@DU?$char_traits@D@std@@V?$allocator@D@2@@std@@V?$basic_json@Vmap@std@@Vvector@2@V?$basic_string@DU?$char_traits@D@std@@V?$allocator@D@2@@2@_N_J_KNVallocator@2@Uadl_serializer@json_abi_v3_11_2@nlohmann@@V?$vector@EV?$allocator@E@std@@@2@X@json_abi_v3_11_2@nlohmann@@U?$less@X@2@V?$allocator@U?$pair@$$CBV?$basic_string@DU?$char_traits@D@std@@V?$allocator@D@2@@std@@V?$basic_json@Vmap@std@@Vvector@2@V?$basic_string@DU?$char_traits@D@std@@V?$allocator@D@2@@2@_N_J_KNVallocator@2@Uadl_serializer@json_abi_v3_11_2@nlohmann@@V?$vector@EV?$allocator@E@std@@@2@X@json_abi_v3_11_2@nlohmann@@@std@@@2@$0A@@std@@@std@@IEBA?AU?$_Tree_find_result@PEAU?$_Tree_node@U?$pair@$$CBV?$basic_string@DU?$char_traits@D@std@@V?$allocator@D@2@@std@@V?$basic_json@Vmap@std@@Vvector@2@V?$basic_string@DU?$char_traits@D@std@@V?$allocator@D@2@@2@_N_J_KNVallocator@2@Uadl_serializer@json_abi_v3_11_2@nlohmann@@V?$vector@EV?$allocator@E@std@@@2@X@json_abi_v3_11_2@nlohmann@@@std@@PEAX@std@@@1@AEAY06$$CBD@Z 0000000140055810 f i main.obj
 0001:00054920       ?what@exception@std@@UEBAPEBDXZ 0000000140055920 f i main.obj
 0001:00054970       ??$_Find_lower_bound@$$BY07D@?$_Tree@V?$_Tmap_traits@V?$basic_string@DU?$char_traits@D@std@@V?$allocator@D@2@@std@@V?$basic_json@Vmap@std@@Vvector@2@V?$basic_string@DU?$char_traits@D@std@@V?$allocator@D@2@@2@_N_J_KNVallocator@2@Uadl_serializer@json_abi_v3_11_2@nlohmann@@V?$vector@EV?$allocator@E@std@@@2@X@json_abi_v3_11_2@nlohmann@@U?$less@X@2@V?$allocator@U?$pair@$$CBV?$basic_string@DU?$char_traits@D@std@@V?$allocator@D@2@@std@@V?$basic_json@Vmap@std@@Vvector@2@V?$basic_string@DU?$char_traits@D@std@@V?$allocator@D@2@@2@_N_J_KNVallocator@2@Uadl_serializer@json_abi_v3_11_2@nlohmann@@V?$vector@EV?$allocator@E@std@@@2@X@json_abi_v3_11_2@nlohmann@@@std@@@2@$0A@@std@@@std@@IEBA?AU?$_Tree_find_result@PEAU?$_Tree_node@U?$pair@$$CBV?$basic_string@DU?$char_traits@D@std@@V?$allocator@D@2@@std@@V?$basic_json@Vmap@std@@Vvector@2@V?$basic_string@DU?$char_traits@D@std@@V?$allocator@D@2@@2@_N_J_KNVallocator@2@Uadl_serializer@json_abi_v3_11_2@nlohmann@@V?$vector@EV?$allocator@E@std@@@2@X@json_abi_v3_11_2@nlohmann@@@std@@PEAX@std@@@1@AEAY07$$CBD@Z 0000000140055970 f i main.obj
 0001:00054a80       wmemcpy                    0000000140055a80 f i main.obj
 0001:00054ad0       ??$_Find_lower_bound@$$BY08D@?$_Tree@V?$_Tmap_traits@V?$basic_string@DU?$char_traits@D@std@@V?$allocator@D@2@@std@@V?$basic_json@Vmap@std@@Vvector@2@V?$basic_string@DU?$char_traits@D@std@@V?$allocator@D@2@@2@_N_J_KNVallocator@2@Uadl_serializer@json_abi_v3_11_2@nlohmann@@V?$vector@EV?$allocator@E@std@@@2@X@json_abi_v3_11_2@nlohmann@@U?$less@X@2@V?$allocator@U?$pair@$$CBV?$basic_string@DU?$char_traits@D@std@@V?$allocator@D@2@@std@@V?$basic_json@Vmap@std@@Vvector@2@V?$basic_string@DU?$char_traits@D@std@@V?$allocator@D@2@@2@_N_J_KNVallocator@2@Uadl_serializer@json_abi_v3_11_2@nlohmann@@V?$vector@EV?$allocator@E@std@@@2@X@json_abi_v3_11_2@nlohmann@@@std@@@2@$0A@@std@@@std@@IEBA?AU?$_Tree_find_result@PEAU?$_Tree_node@U?$pair@$$CBV?$basic_string@DU?$char_traits@D@std@@V?$allocator@D@2@@std@@V?$basic_json@Vmap@std@@Vvector@2@V?$basic_string@DU?$char_traits@D@std@@V?$allocator@D@2@@2@_N_J_KNVallocator@2@Uadl_serializer@json_abi_v3_11_2@nlohmann@@V?$vector@EV?$allocator@E@std@@@2@X@json_abi_v3_11_2@nlohmann@@@std@@PEAX@std@@@1@AEAY08$$CBD@Z 0000000140055ad0 f i main.obj
 0001:00054c30       ??$_Find_lower_bound@$$BY09D@?$_Tree@V?$_Tmap_traits@V?$basic_string@DU?$char_traits@D@std@@V?$allocator@D@2@@std@@V?$basic_json@Vmap@std@@Vvector@2@V?$basic_string@DU?$char_traits@D@std@@V?$allocator@D@2@@2@_N_J_KNVallocator@2@Uadl_serializer@json_abi_v3_11_2@nlohmann@@V?$vector@EV?$allocator@E@std@@@2@X@json_abi_v3_11_2@nlohmann@@U?$less@X@2@V?$allocator@U?$pair@$$CBV?$basic_string@DU?$char_traits@D@std@@V?$allocator@D@2@@std@@V?$basic_json@Vmap@std@@Vvector@2@V?$basic_string@DU?$char_traits@D@std@@V?$allocator@D@2@@2@_N_J_KNVallocator@2@Uadl_serializer@json_abi_v3_11_2@nlohmann@@V?$vector@EV?$allocator@E@std@@@2@X@json_abi_v3_11_2@nlohmann@@@std@@@2@$0A@@std@@@std@@IEBA?AU?$_Tree_find_result@PEAU?$_Tree_node@U?$pair@$$CBV?$basic_string@DU?$char_traits@D@std@@V?$allocator@D@2@@std@@V?$basic_json@Vmap@std@@Vvector@2@V?$basic_string@DU?$char_traits@D@std@@V?$allocator@D@2@@2@_N_J_KNVallocator@2@Uadl_serializer@json_abi_v3_11_2@nlohmann@@V?$vector@EV?$allocator@E@std@@@2@X@json_abi_v3_11_2@nlohmann@@@std@@PEAX@std@@@1@AEAY09$$CBD@Z 0000000140055c30 f i main.obj
 0001:00054d90       ??$_Find_lower_bound@$$BY0BA@D@?$_Tree@V?$_Tmap_traits@V?$basic_string@DU?$char_traits@D@std@@V?$allocator@D@2@@std@@V?$basic_json@Vmap@std@@Vvector@2@V?$basic_string@DU?$char_traits@D@std@@V?$allocator@D@2@@2@_N_J_KNVallocator@2@Uadl_serializer@json_abi_v3_11_2@nlohmann@@V?$vector@EV?$allocator@E@std@@@2@X@json_abi_v3_11_2@nlohmann@@U?$less@X@2@V?$allocator@U?$pair@$$CBV?$basic_string@DU?$char_traits@D@std@@V?$allocator@D@2@@std@@V?$basic_json@Vmap@std@@Vvector@2@V?$basic_string@DU?$char_traits@D@std@@V?$allocator@D@2@@2@_N_J_KNVallocator@2@Uadl_serializer@json_abi_v3_11_2@nlohmann@@V?$vector@EV?$allocator@E@std@@@2@X@json_abi_v3_11_2@nlohmann@@@std@@@2@$0A@@std@@@std@@IEBA?AU?$_Tree_find_result@PEAU?$_Tree_node@U?$pair@$$CBV?$basic_string@DU?$char_traits@D@std@@V?$allocator@D@2@@std@@V?$basic_json@Vmap@std@@Vvector@2@V?$basic_string@DU?$char_traits@D@std@@V?$allocator@D@2@@2@_N_J_KNVallocator@2@Uadl_serializer@json_abi_v3_11_2@nlohmann@@V?$vector@EV?$allocator@E@std@@@2@X@json_abi_v3_11_2@nlohmann@@@std@@PEAX@std@@@1@AEAY0BA@$$CBD@Z 0000000140055d90 f i main.obj
 0001:00054ef0       ??$_Find_lower_bound@$$BY0BB@D@?$_Tree@V?$_Tmap_traits@V?$basic_string@DU?$char_traits@D@std@@V?$allocator@D@2@@std@@V?$basic_json@Vmap@std@@Vvector@2@V?$basic_string@DU?$char_traits@D@std@@V?$allocator@D@2@@2@_N_J_KNVallocator@2@Uadl_serializer@json_abi_v3_11_2@nlohmann@@V?$vector@EV?$allocator@E@std@@@2@X@json_abi_v3_11_2@nlohmann@@U?$less@X@2@V?$allocator@U?$pair@$$CBV?$basic_string@DU?$char_traits@D@std@@V?$allocator@D@2@@std@@V?$basic_json@Vmap@std@@Vvector@2@V?$basic_string@DU?$char_traits@D@std@@V?$allocator@D@2@@2@_N_J_KNVallocator@2@Uadl_serializer@json_abi_v3_11_2@nlohmann@@V?$vector@EV?$allocator@E@std@@@2@X@json_abi_v3_11_2@nlohmann@@@std@@@2@$0A@@std@@@std@@IEBA?AU?$_Tree_find_result@PEAU?$_Tree_node@U?$pair@$$CBV?$basic_string@DU?$char_traits@D@std@@V?$allocator@D@2@@std@@V?$basic_json@Vmap@std@@Vvector@2@V?$basic_string@DU?$char_traits@D@std@@V?$allocator@D@2@@2@_N_J_KNVallocator@2@Uadl_serializer@json_abi_v3_11_2@nlohmann@@V?$vector@EV?$allocator@E@std@@@2@X@json_abi_v3_11_2@nlohmann@@@std@@PEAX@std@@@1@AEAY0BB@$$CBD@Z 0000000140055ef0 f i main.obj
 0001:00055050       ??$_Find_lower_bound@$$BY0BE@D@?$_Tree@V?$_Tmap_traits@V?$basic_string@DU?$char_traits@D@std@@V?$allocator@D@2@@std@@V?$basic_json@Vmap@std@@Vvector@2@V?$basic_string@DU?$char_traits@D@std@@V?$allocator@D@2@@2@_N_J_KNVallocator@2@Uadl_serializer@json_abi_v3_11_2@nlohmann@@V?$vector@EV?$allocator@E@std@@@2@X@json_abi_v3_11_2@nlohmann@@U?$less@X@2@V?$allocator@U?$pair@$$CBV?$basic_string@DU?$char_traits@D@std@@V?$allocator@D@2@@std@@V?$basic_json@Vmap@std@@Vvector@2@V?$basic_string@DU?$char_traits@D@std@@V?$allocator@D@2@@2@_N_J_KNVallocator@2@Uadl_serializer@json_abi_v3_11_2@nlohmann@@V?$vector@EV?$allocator@E@std@@@2@X@json_abi_v3_11_2@nlohmann@@@std@@@2@$0A@@std@@@std@@IEBA?AU?$_Tree_find_result@PEAU?$_Tree_node@U?$pair@$$CBV?$basic_string@DU?$char_traits@D@std@@V?$allocator@D@2@@std@@V?$basic_json@Vmap@std@@Vvector@2@V?$basic_string@DU?$char_traits@D@std@@V?$allocator@D@2@@2@_N_J_KNVallocator@2@Uadl_serializer@json_abi_v3_11_2@nlohmann@@V?$vector@EV?$allocator@E@std@@@2@X@json_abi_v3_11_2@nlohmann@@@std@@PEAX@std@@@1@AEAY0BE@$$CBD@Z 0000000140056050 f i main.obj
 0001:000551b0       ??$_Find_lower_bound@$$BY0BF@D@?$_Tree@V?$_Tmap_traits@V?$basic_string@DU?$char_traits@D@std@@V?$allocator@D@2@@std@@V?$basic_json@Vmap@std@@Vvector@2@V?$basic_string@DU?$char_traits@D@std@@V?$allocator@D@2@@2@_N_J_KNVallocator@2@Uadl_serializer@json_abi_v3_11_2@nlohmann@@V?$vector@EV?$allocator@E@std@@@2@X@json_abi_v3_11_2@nlohmann@@U?$less@X@2@V?$allocator@U?$pair@$$CBV?$basic_string@DU?$char_traits@D@std@@V?$allocator@D@2@@std@@V?$basic_json@Vmap@std@@Vvector@2@V?$basic_string@DU?$char_traits@D@std@@V?$allocator@D@2@@2@_N_J_KNVallocator@2@Uadl_serializer@json_abi_v3_11_2@nlohmann@@V?$vector@EV?$allocator@E@std@@@2@X@json_abi_v3_11_2@nlohmann@@@std@@@2@$0A@@std@@@std@@IEBA?AU?$_Tree_find_result@PEAU?$_Tree_node@U?$pair@$$CBV?$basic_string@DU?$char_traits@D@std@@V?$allocator@D@2@@std@@V?$basic_json@Vmap@std@@Vvector@2@V?$basic_string@DU?$char_traits@D@std@@V?$allocator@D@2@@2@_N_J_KNVallocator@2@Uadl_serializer@json_abi_v3_11_2@nlohmann@@V?$vector@EV?$allocator@E@std@@@2@X@json_abi_v3_11_2@nlohmann@@@std@@PEAX@std@@@1@AEAY0BF@$$CBD@Z 00000001400561b0 f i main.obj
 0001:00055310       ??$_Find_lower_bound@$$BY0BJ@D@?$_Tree@V?$_Tmap_traits@V?$basic_string@DU?$char_traits@D@std@@V?$allocator@D@2@@std@@V?$basic_json@Vmap@std@@Vvector@2@V?$basic_string@DU?$char_traits@D@std@@V?$allocator@D@2@@2@_N_J_KNVallocator@2@Uadl_serializer@json_abi_v3_11_2@nlohmann@@V?$vector@EV?$allocator@E@std@@@2@X@json_abi_v3_11_2@nlohmann@@U?$less@X@2@V?$allocator@U?$pair@$$CBV?$basic_string@DU?$char_traits@D@std@@V?$allocator@D@2@@std@@V?$basic_json@Vmap@std@@Vvector@2@V?$basic_string@DU?$char_traits@D@std@@V?$allocator@D@2@@2@_N_J_KNVallocator@2@Uadl_serializer@json_abi_v3_11_2@nlohmann@@V?$vector@EV?$allocator@E@std@@@2@X@json_abi_v3_11_2@nlohmann@@@std@@@2@$0A@@std@@@std@@IEBA?AU?$_Tree_find_result@PEAU?$_Tree_node@U?$pair@$$CBV?$basic_string@DU?$char_traits@D@std@@V?$allocator@D@2@@std@@V?$basic_json@Vmap@std@@Vvector@2@V?$basic_string@DU?$char_traits@D@std@@V?$allocator@D@2@@2@_N_J_KNVallocator@2@Uadl_serializer@json_abi_v3_11_2@nlohmann@@V?$vector@EV?$allocator@E@std@@@2@X@json_abi_v3_11_2@nlohmann@@@std@@PEAX@std@@@1@AEAY0BJ@$$CBD@Z 0000000140056310 f i main.obj
 0001:00055470       ??$_Find_lower_bound@$$BY0L@D@?$_Tree@V?$_Tmap_traits@V?$basic_string@DU?$char_traits@D@std@@V?$allocator@D@2@@std@@V?$basic_json@Vmap@std@@Vvector@2@V?$basic_string@DU?$char_traits@D@std@@V?$allocator@D@2@@2@_N_J_KNVallocator@2@Uadl_serializer@json_abi_v3_11_2@nlohmann@@V?$vector@EV?$allocator@E@std@@@2@X@json_abi_v3_11_2@nlohmann@@U?$less@X@2@V?$allocator@U?$pair@$$CBV?$basic_string@DU?$char_traits@D@std@@V?$allocator@D@2@@std@@V?$basic_json@Vmap@std@@Vvector@2@V?$basic_string@DU?$char_traits@D@std@@V?$allocator@D@2@@2@_N_J_KNVallocator@2@Uadl_serializer@json_abi_v3_11_2@nlohmann@@V?$vector@EV?$allocator@E@std@@@2@X@json_abi_v3_11_2@nlohmann@@@std@@@2@$0A@@std@@@std@@IEBA?AU?$_Tree_find_result@PEAU?$_Tree_node@U?$pair@$$CBV?$basic_string@DU?$char_traits@D@std@@V?$allocator@D@2@@std@@V?$basic_json@Vmap@std@@Vvector@2@V?$basic_string@DU?$char_traits@D@std@@V?$allocator@D@2@@2@_N_J_KNVallocator@2@Uadl_serializer@json_abi_v3_11_2@nlohmann@@V?$vector@EV?$allocator@E@std@@@2@X@json_abi_v3_11_2@nlohmann@@@std@@PEAX@std@@@1@AEAY0L@$$CBD@Z 0000000140056470 f i main.obj
 0001:000555d0       ??$_Find_lower_bound@$$BY0M@D@?$_Tree@V?$_Tmap_traits@V?$basic_string@DU?$char_traits@D@std@@V?$allocator@D@2@@std@@V?$basic_json@Vmap@std@@Vvector@2@V?$basic_string@DU?$char_traits@D@std@@V?$allocator@D@2@@2@_N_J_KNVallocator@2@Uadl_serializer@json_abi_v3_11_2@nlohmann@@V?$vector@EV?$allocator@E@std@@@2@X@json_abi_v3_11_2@nlohmann@@U?$less@X@2@V?$allocator@U?$pair@$$CBV?$basic_string@DU?$char_traits@D@std@@V?$allocator@D@2@@std@@V?$basic_json@Vmap@std@@Vvector@2@V?$basic_string@DU?$char_traits@D@std@@V?$allocator@D@2@@2@_N_J_KNVallocator@2@Uadl_serializer@json_abi_v3_11_2@nlohmann@@V?$vector@EV?$allocator@E@std@@@2@X@json_abi_v3_11_2@nlohmann@@@std@@@2@$0A@@std@@@std@@IEBA?AU?$_Tree_find_result@PEAU?$_Tree_node@U?$pair@$$CBV?$basic_string@DU?$char_traits@D@std@@V?$allocator@D@2@@std@@V?$basic_json@Vmap@std@@Vvector@2@V?$basic_string@DU?$char_traits@D@std@@V?$allocator@D@2@@2@_N_J_KNVallocator@2@Uadl_serializer@json_abi_v3_11_2@nlohmann@@V?$vector@EV?$allocator@E@std@@@2@X@json_abi_v3_11_2@nlohmann@@@std@@PEAX@std@@@1@AEAY0M@$$CBD@Z 00000001400565d0 f i main.obj
 0001:00055730       ??$_Find_lower_bound@$$BY0O@D@?$_Tree@V?$_Tmap_traits@V?$basic_string@DU?$char_traits@D@std@@V?$allocator@D@2@@std@@V?$basic_json@Vmap@std@@Vvector@2@V?$basic_string@DU?$char_traits@D@std@@V?$allocator@D@2@@2@_N_J_KNVallocator@2@Uadl_serializer@json_abi_v3_11_2@nlohmann@@V?$vector@EV?$allocator@E@std@@@2@X@json_abi_v3_11_2@nlohmann@@U?$less@X@2@V?$allocator@U?$pair@$$CBV?$basic_string@DU?$char_traits@D@std@@V?$allocator@D@2@@std@@V?$basic_json@Vmap@std@@Vvector@2@V?$basic_string@DU?$char_traits@D@std@@V?$allocator@D@2@@2@_N_J_KNVallocator@2@Uadl_serializer@json_abi_v3_11_2@nlohmann@@V?$vector@EV?$allocator@E@std@@@2@X@json_abi_v3_11_2@nlohmann@@@std@@@2@$0A@@std@@@std@@IEBA?AU?$_Tree_find_result@PEAU?$_Tree_node@U?$pair@$$CBV?$basic_string@DU?$char_traits@D@std@@V?$allocator@D@2@@std@@V?$basic_json@Vmap@std@@Vvector@2@V?$basic_string@DU?$char_traits@D@std@@V?$allocator@D@2@@2@_N_J_KNVallocator@2@Uadl_serializer@json_abi_v3_11_2@nlohmann@@V?$vector@EV?$allocator@E@std@@@2@X@json_abi_v3_11_2@nlohmann@@@std@@PEAX@std@@@1@AEAY0O@$$CBD@Z 0000000140056730 f i main.obj
 0001:00055890       ??$_Find_lower_bound@$$BY0P@D@?$_Tree@V?$_Tmap_traits@V?$basic_string@DU?$char_traits@D@std@@V?$allocator@D@2@@std@@V?$basic_json@Vmap@std@@Vvector@2@V?$basic_string@DU?$char_traits@D@std@@V?$allocator@D@2@@2@_N_J_KNVallocator@2@Uadl_serializer@json_abi_v3_11_2@nlohmann@@V?$vector@EV?$allocator@E@std@@@2@X@json_abi_v3_11_2@nlohmann@@U?$less@X@2@V?$allocator@U?$pair@$$CBV?$basic_string@DU?$char_traits@D@std@@V?$allocator@D@2@@std@@V?$basic_json@Vmap@std@@Vvector@2@V?$basic_string@DU?$char_traits@D@std@@V?$allocator@D@2@@2@_N_J_KNVallocator@2@Uadl_serializer@json_abi_v3_11_2@nlohmann@@V?$vector@EV?$allocator@E@std@@@2@X@json_abi_v3_11_2@nlohmann@@@std@@@2@$0A@@std@@@std@@IEBA?AU?$_Tree_find_result@PEAU?$_Tree_node@U?$pair@$$CBV?$basic_string@DU?$char_traits@D@std@@V?$allocator@D@2@@std@@V?$basic_json@Vmap@std@@Vvector@2@V?$basic_string@DU?$char_traits@D@std@@V?$allocator@D@2@@2@_N_J_KNVallocator@2@Uadl_serializer@json_abi_v3_11_2@nlohmann@@V?$vector@EV?$allocator@E@std@@@2@X@json_abi_v3_11_2@nlohmann@@@std@@PEAX@std@@@1@AEAY0P@$$CBD@Z 0000000140056890 f i main.obj
 0001:000559f0       ??$_Find_lower_bound@V?$basic_string@DU?$char_traits@D@std@@V?$allocator@D@2@@std@@@?$_Tree@V?$_Tmap_traits@V?$basic_string@DU?$char_traits@D@std@@V?$allocator@D@2@@std@@PEAUmat4@@U?$less@V?$basic_string@DU?$char_traits@D@std@@V?$allocator@D@2@@std@@@2@V?$allocator@U?$pair@$$CBV?$basic_string@DU?$char_traits@D@std@@V?$allocator@D@2@@std@@PEAUmat4@@@std@@@2@$0A@@std@@@std@@IEBA?AU?$_Tree_find_result@PEAU?$_Tree_node@U?$pair@$$CBV?$basic_string@DU?$char_traits@D@std@@V?$allocator@D@2@@std@@PEAUmat4@@@std@@PEAX@std@@@1@AEBV?$basic_string@DU?$char_traits@D@std@@V?$allocator@D@2@@1@@Z 00000001400569f0 f i main.obj
 0001:00055b50       ??$_Find_lower_bound@V?$basic_string@DU?$char_traits@D@std@@V?$allocator@D@2@@std@@@?$_Tree@V?$_Tmap_traits@V?$basic_string@DU?$char_traits@D@std@@V?$allocator@D@2@@std@@V?$basic_json@Vmap@std@@Vvector@2@V?$basic_string@DU?$char_traits@D@std@@V?$allocator@D@2@@2@_N_J_KNVallocator@2@Uadl_serializer@json_abi_v3_11_2@nlohmann@@V?$vector@EV?$allocator@E@std@@@2@X@json_abi_v3_11_2@nlohmann@@U?$less@X@2@V?$allocator@U?$pair@$$CBV?$basic_string@DU?$char_traits@D@std@@V?$allocator@D@2@@std@@V?$basic_json@Vmap@std@@Vvector@2@V?$basic_string@DU?$char_traits@D@std@@V?$allocator@D@2@@2@_N_J_KNVallocator@2@Uadl_serializer@json_abi_v3_11_2@nlohmann@@V?$vector@EV?$allocator@E@std@@@2@X@json_abi_v3_11_2@nlohmann@@@std@@@2@$0A@@std@@@std@@IEBA?AU?$_Tree_find_result@PEAU?$_Tree_node@U?$pair@$$CBV?$basic_string@DU?$char_traits@D@std@@V?$allocator@D@2@@std@@V?$basic_json@Vmap@std@@Vvector@2@V?$basic_string@DU?$char_traits@D@std@@V?$allocator@D@2@@2@_N_J_KNVallocator@2@Uadl_serializer@json_abi_v3_11_2@nlohmann@@V?$vector@EV?$allocator@E@std@@@2@X@json_abi_v3_11_2@nlohmann@@@std@@PEAX@std@@@1@AEBV?$basic_string@DU?$char_traits@D@std@@V?$allocator@D@2@@1@@Z 0000000140056b50 f i main.obj
 0001:00055cb0       ??$_Find_lower_bound@V?$basic_string@DU?$char_traits@D@std@@V?$allocator@D@2@@std@@@?$_Tree@V?$_Tmap_traits@V?$basic_string@DU?$char_traits@D@std@@V?$allocator@D@2@@std@@V?$weak_ptr@VImage@@@2@U?$less@V?$basic_string@DU?$char_traits@D@std@@V?$allocator@D@2@@std@@@2@V?$allocator@U?$pair@$$CBV?$basic_string@DU?$char_traits@D@std@@V?$allocator@D@2@@std@@V?$weak_ptr@VImage@@@2@@std@@@2@$0A@@std@@@std@@IEBA?AU?$_Tree_find_result@PEAU?$_Tree_node@U?$pair@$$CBV?$basic_string@DU?$char_traits@D@std@@V?$allocator@D@2@@std@@V?$weak_ptr@VImage@@@2@@std@@PEAX@std@@@1@AEBV?$basic_string@DU?$char_traits@D@std@@V?$allocator@D@2@@1@@Z 0000000140056cb0 f i main.obj
 0001:00055e10       ??$_Find_lower_bound@V?$basic_string@DU?$char_traits@D@std@@V?$allocator@D@2@@std@@@?$_Tree@V?$_Tmap_traits@V?$basic_string@DU?$char_traits@D@std@@V?$allocator@D@2@@std@@V?$weak_ptr@VScenes@@@2@U?$less@V?$basic_string@DU?$char_traits@D@std@@V?$allocator@D@2@@std@@@2@V?$allocator@U?$pair@$$CBV?$basic_string@DU?$char_traits@D@std@@V?$allocator@D@2@@std@@V?$weak_ptr@VScenes@@@2@@std@@@2@$0A@@std@@@std@@IEBA?AU?$_Tree_find_result@PEAU?$_Tree_node@U?$pair@$$CBV?$basic_string@DU?$char_traits@D@std@@V?$allocator@D@2@@std@@V?$weak_ptr@VScenes@@@2@@std@@PEAX@std@@@1@AEBV?$basic_string@DU?$char_traits@D@std@@V?$allocator@D@2@@1@@Z 0000000140056e10 f i main.obj
 0001:00055f70       ??$_Find_lower_bound@V?$basic_string@DU?$char_traits@D@std@@V?$allocator@D@2@@std@@@?$_Tree@V?$_Tmap_traits@V?$basic_string@DU?$char_traits@D@std@@V?$allocator@D@2@@std@@V?$weak_ptr@VShader@@@2@U?$less@V?$basic_string@DU?$char_traits@D@std@@V?$allocator@D@2@@std@@@2@V?$allocator@U?$pair@$$CBV?$basic_string@DU?$char_traits@D@std@@V?$allocator@D@2@@std@@V?$weak_ptr@VShader@@@2@@std@@@2@$0A@@std@@@std@@IEBA?AU?$_Tree_find_result@PEAU?$_Tree_node@U?$pair@$$CBV?$basic_string@DU?$char_traits@D@std@@V?$allocator@D@2@@std@@V?$weak_ptr@VShader@@@2@@std@@PEAX@std@@@1@AEBV?$basic_string@DU?$char_traits@D@std@@V?$allocator@D@2@@1@@Z 0000000140056f70 f i main.obj
 0001:000560d0       ??$_Find_lower_bound@V?$basic_string@DU?$char_traits@D@std@@V?$allocator@D@2@@std@@@?$_Tree@V?$_Tmap_traits@V?$basic_string@DU?$char_traits@D@std@@V?$allocator@D@2@@std@@V?$weak_ptr@VTexture2D@@@2@U?$less@V?$basic_string@DU?$char_traits@D@std@@V?$allocator@D@2@@std@@@2@V?$allocator@U?$pair@$$CBV?$basic_string@DU?$char_traits@D@std@@V?$allocator@D@2@@std@@V?$weak_ptr@VTexture2D@@@2@@std@@@2@$0A@@std@@@std@@IEBA?AU?$_Tree_find_result@PEAU?$_Tree_node@U?$pair@$$CBV?$basic_string@DU?$char_traits@D@std@@V?$allocator@D@2@@std@@V?$weak_ptr@VTexture2D@@@2@@std@@PEAX@std@@@1@AEBV?$basic_string@DU?$char_traits@D@std@@V?$allocator@D@2@@1@@Z 00000001400570d0 f i main.obj
 0001:00056230       ??$_Fputc@D@std@@YA_NDPEAU_iobuf@@@Z 0000000140057230 f i main.obj
 0001:00056280       ??$_Freenode0@V?$allocator@U?$_Tree_node@U?$pair@$$CBV?$basic_string@DU?$char_traits@D@std@@V?$allocator@D@2@@std@@PEAUmat4@@@std@@PEAX@std@@@std@@@?$_Tree_node@U?$pair@$$CBV?$basic_string@DU?$char_traits@D@std@@V?$allocator@D@2@@std@@PEAUmat4@@@std@@PEAX@std@@SAXAEAV?$allocator@U?$_Tree_node@U?$pair@$$CBV?$basic_string@DU?$char_traits@D@std@@V?$allocator@D@2@@std@@PEAUmat4@@@std@@PEAX@std@@@1@PEAU01@@Z 0000000140057280 f i main.obj
 0001:000562f0       ??$_Freenode0@V?$allocator@U?$_Tree_node@U?$pair@$$CBV?$basic_string@DU?$char_traits@D@std@@V?$allocator@D@2@@std@@V?$basic_json@Vmap@std@@Vvector@2@V?$basic_string@DU?$char_traits@D@std@@V?$allocator@D@2@@2@_N_J_KNVallocator@2@Uadl_serializer@json_abi_v3_11_2@nlohmann@@V?$vector@EV?$allocator@E@std@@@2@X@json_abi_v3_11_2@nlohmann@@@std@@PEAX@std@@@std@@@?$_Tree_node@U?$pair@$$CBV?$basic_string@DU?$char_traits@D@std@@V?$allocator@D@2@@std@@V?$basic_json@Vmap@std@@Vvector@2@V?$basic_string@DU?$char_traits@D@std@@V?$allocator@D@2@@2@_N_J_KNVallocator@2@Uadl_serializer@json_abi_v3_11_2@nlohmann@@V?$vector@EV?$allocator@E@std@@@2@X@json_abi_v3_11_2@nlohmann@@@std@@PEAX@std@@SAXAEAV?$allocator@U?$_Tree_node@U?$pair@$$CBV?$basic_string@DU?$char_traits@D@std@@V?$allocator@D@2@@std@@V?$basic_json@Vmap@std@@Vvector@2@V?$basic_string@DU?$char_traits@D@std@@V?$allocator@D@2@@2@_N_J_KNVallocator@2@Uadl_serializer@json_abi_v3_11_2@nlohmann@@V?$vector@EV?$allocator@E@std@@@2@X@json_abi_v3_11_2@nlohmann@@@std@@PEAX@std@@@1@PEAU01@@Z 00000001400572f0 f i main.obj
 0001:00056360       ??$_Freenode0@V?$allocator@U?$_Tree_node@U?$pair@$$CBV?$basic_string@DU?$char_traits@D@std@@V?$allocator@D@2@@std@@V?$weak_ptr@VImage@@@2@@std@@PEAX@std@@@std@@@?$_Tree_node@U?$pair@$$CBV?$basic_string@DU?$char_traits@D@std@@V?$allocator@D@2@@std@@V?$weak_ptr@VImage@@@2@@std@@PEAX@std@@SAXAEAV?$allocator@U?$_Tree_node@U?$pair@$$CBV?$basic_string@DU?$char_traits@D@std@@V?$allocator@D@2@@std@@V?$weak_ptr@VImage@@@2@@std@@PEAX@std@@@1@PEAU01@@Z 0000000140057360 f i main.obj
 0001:000563d0       ??$_Freenode0@V?$allocator@U?$_Tree_node@U?$pair@$$CBV?$basic_string@DU?$char_traits@D@std@@V?$allocator@D@2@@std@@V?$weak_ptr@VScenes@@@2@@std@@PEAX@std@@@std@@@?$_Tree_node@U?$pair@$$CBV?$basic_string@DU?$char_traits@D@std@@V?$allocator@D@2@@std@@V?$weak_ptr@VScenes@@@2@@std@@PEAX@std@@SAXAEAV?$allocator@U?$_Tree_node@U?$pair@$$CBV?$basic_string@DU?$char_traits@D@std@@V?$allocator@D@2@@std@@V?$weak_ptr@VScenes@@@2@@std@@PEAX@std@@@1@PEAU01@@Z 00000001400573d0 f i main.obj
 0001:00056440       ??$_Freenode0@V?$allocator@U?$_Tree_node@U?$pair@$$CBV?$basic_string@DU?$char_traits@D@std@@V?$allocator@D@2@@std@@V?$weak_ptr@VShader@@@2@@std@@PEAX@std@@@std@@@?$_Tree_node@U?$pair@$$CBV?$basic_string@DU?$char_traits@D@std@@V?$allocator@D@2@@std@@V?$weak_ptr@VShader@@@2@@std@@PEAX@std@@SAXAEAV?$allocator@U?$_Tree_node@U?$pair@$$CBV?$basic_string@DU?$char_traits@D@std@@V?$allocator@D@2@@std@@V?$weak_ptr@VShader@@@2@@std@@PEAX@std@@@1@PEAU01@@Z 0000000140057440 f i main.obj
 0001:000564b0       ??$_Freenode0@V?$allocator@U?$_Tree_node@U?$pair@$$CBV?$basic_string@DU?$char_traits@D@std@@V?$allocator@D@2@@std@@V?$weak_ptr@VTexture2D@@@2@@std@@PEAX@std@@@std@@@?$_Tree_node@U?$pair@$$CBV?$basic_string@DU?$char_traits@D@std@@V?$allocator@D@2@@std@@V?$weak_ptr@VTexture2D@@@2@@std@@PEAX@std@@SAXAEAV?$allocator@U?$_Tree_node@U?$pair@$$CBV?$basic_string@DU?$char_traits@D@std@@V?$allocator@D@2@@std@@V?$weak_ptr@VTexture2D@@@2@@std@@PEAX@std@@@1@PEAU01@@Z 00000001400574b0 f i main.obj
 0001:00056520       ??$_Freenode@V?$allocator@U?$_Tree_node@U?$pair@$$CBV?$basic_string@DU?$char_traits@D@std@@V?$allocator@D@2@@std@@PEAUmat4@@@std@@PEAX@std@@@std@@@?$_Tree_node@U?$pair@$$CBV?$basic_string@DU?$char_traits@D@std@@V?$allocator@D@2@@std@@PEAUmat4@@@std@@PEAX@std@@SAXAEAV?$allocator@U?$_Tree_node@U?$pair@$$CBV?$basic_string@DU?$char_traits@D@std@@V?$allocator@D@2@@std@@PEAUmat4@@@std@@PEAX@std@@@1@PEAU01@@Z 0000000140057520 f i main.obj
 0001:00056580       ??$_Freenode@V?$allocator@U?$_Tree_node@U?$pair@$$CBV?$basic_string@DU?$char_traits@D@std@@V?$allocator@D@2@@std@@V?$basic_json@Vmap@std@@Vvector@2@V?$basic_string@DU?$char_traits@D@std@@V?$allocator@D@2@@2@_N_J_KNVallocator@2@Uadl_serializer@json_abi_v3_11_2@nlohmann@@V?$vector@EV?$allocator@E@std@@@2@X@json_abi_v3_11_2@nlohmann@@@std@@PEAX@std@@@std@@@?$_Tree_node@U?$pair@$$CBV?$basic_string@DU?$char_traits@D@std@@V?$allocator@D@2@@std@@V?$basic_json@Vmap@std@@Vvector@2@V?$basic_string@DU?$char_traits@D@std@@V?$allocator@D@2@@2@_N_J_KNVallocator@2@Uadl_serializer@json_abi_v3_11_2@nlohmann@@V?$vector@EV?$allocator@E@std@@@2@X@json_abi_v3_11_2@nlohmann@@@std@@PEAX@std@@SAXAEAV?$allocator@U?$_Tree_node@U?$pair@$$CBV?$basic_string@DU?$char_traits@D@std@@V?$allocator@D@2@@std@@V?$basic_json@Vmap@std@@Vvector@2@V?$basic_string@DU?$char_traits@D@std@@V?$allocator@D@2@@2@_N_J_KNVallocator@2@Uadl_serializer@json_abi_v3_11_2@nlohmann@@V?$vector@EV?$allocator@E@std@@@2@X@json_abi_v3_11_2@nlohmann@@@std@@PEAX@std@@@1@PEAU01@@Z 0000000140057580 f i main.obj
 0001:000565e0       ??$_Freenode@V?$allocator@U?$_Tree_node@U?$pair@$$CBV?$basic_string@DU?$char_traits@D@std@@V?$allocator@D@2@@std@@V?$weak_ptr@VImage@@@2@@std@@PEAX@std@@@std@@@?$_Tree_node@U?$pair@$$CBV?$basic_string@DU?$char_traits@D@std@@V?$allocator@D@2@@std@@V?$weak_ptr@VImage@@@2@@std@@PEAX@std@@SAXAEAV?$allocator@U?$_Tree_node@U?$pair@$$CBV?$basic_string@DU?$char_traits@D@std@@V?$allocator@D@2@@std@@V?$weak_ptr@VImage@@@2@@std@@PEAX@std@@@1@PEAU01@@Z 00000001400575e0 f i main.obj
 0001:00056640       ??$_Freenode@V?$allocator@U?$_Tree_node@U?$pair@$$CBV?$basic_string@DU?$char_traits@D@std@@V?$allocator@D@2@@std@@V?$weak_ptr@VScenes@@@2@@std@@PEAX@std@@@std@@@?$_Tree_node@U?$pair@$$CBV?$basic_string@DU?$char_traits@D@std@@V?$allocator@D@2@@std@@V?$weak_ptr@VScenes@@@2@@std@@PEAX@std@@SAXAEAV?$allocator@U?$_Tree_node@U?$pair@$$CBV?$basic_string@DU?$char_traits@D@std@@V?$allocator@D@2@@std@@V?$weak_ptr@VScenes@@@2@@std@@PEAX@std@@@1@PEAU01@@Z 0000000140057640 f i main.obj
 0001:000566a0       ??$_Freenode@V?$allocator@U?$_Tree_node@U?$pair@$$CBV?$basic_string@DU?$char_traits@D@std@@V?$allocator@D@2@@std@@V?$weak_ptr@VShader@@@2@@std@@PEAX@std@@@std@@@?$_Tree_node@U?$pair@$$CBV?$basic_string@DU?$char_traits@D@std@@V?$allocator@D@2@@std@@V?$weak_ptr@VShader@@@2@@std@@PEAX@std@@SAXAEAV?$allocator@U?$_Tree_node@U?$pair@$$CBV?$basic_string@DU?$char_traits@D@std@@V?$allocator@D@2@@std@@V?$weak_ptr@VShader@@@2@@std@@PEAX@std@@@1@PEAU01@@Z 00000001400576a0 f i main.obj
 0001:00056700       ??$_Freenode@V?$allocator@U?$_Tree_node@U?$pair@$$CBV?$basic_string@DU?$char_traits@D@std@@V?$allocator@D@2@@std@@V?$weak_ptr@VTexture2D@@@2@@std@@PEAX@std@@@std@@@?$_Tree_node@U?$pair@$$CBV?$basic_string@DU?$char_traits@D@std@@V?$allocator@D@2@@std@@V?$weak_ptr@VTexture2D@@@2@@std@@PEAX@std@@SAXAEAV?$allocator@U?$_Tree_node@U?$pair@$$CBV?$basic_string@DU?$char_traits@D@std@@V?$allocator@D@2@@std@@V?$weak_ptr@VTexture2D@@@2@@std@@PEAX@std@@@1@PEAU01@@Z 0000000140057700 f i main.obj
 0001:00056760       ??$_Get_size_of_n@$00@std@@YA_K_K@Z 0000000140057760 f i main.obj
 0001:00056780       ??$_Get_size_of_n@$01@std@@YA_K_K@Z 0000000140057780 f i main.obj
 0001:000567d0       ??$_Get_size_of_n@$03@std@@YA_K_K@Z 00000001400577d0 f i main.obj
 0001:00056830       ??$_Get_size_of_n@$07@std@@YA_K_K@Z 0000000140057830 f i main.obj
 0001:00056890       ??$_Get_size_of_n@$0BA@@std@@YA_K_K@Z 0000000140057890 f i main.obj
 0001:000568e0       ??$_Get_size_of_n@$0BCI@@std@@YA_K_K@Z 00000001400578e0 f i main.obj
 0001:00056940       ??$_Get_size_of_n@$0BI@@std@@YA_K_K@Z 0000000140057940 f i main.obj
 0001:00056990       ??$_Get_size_of_n@$0CA@@std@@YA_K_K@Z 0000000140057990 f i main.obj
 0001:000569e0       ??$_Get_size_of_n@$0CI@@std@@YA_K_K@Z 00000001400579e0 f i main.obj
 0001:00056a30       ??$_Get_size_of_n@$0DA@@std@@YA_K_K@Z 0000000140057a30 f i main.obj
 0001:00056a80       ??$_Get_size_of_n@$0DI@@std@@YA_K_K@Z 0000000140057a80 f i main.obj
 0001:00056ad0       ??$_Get_size_of_n@$0EA@@std@@YA_K_K@Z 0000000140057ad0 f i main.obj
 0001:00056b20       ??$_Get_size_of_n@$0EI@@std@@YA_K_K@Z 0000000140057b20 f i main.obj
 0001:00056b70       ??$_Get_size_of_n@$0FA@@std@@YA_K_K@Z 0000000140057b70 f i main.obj
 0001:00056bc0       ??$_Get_size_of_n@$0GI@@std@@YA_K_K@Z 0000000140057bc0 f i main.obj
 0001:00056c10       ??$_Get_size_of_n@$0HA@@std@@YA_K_K@Z 0000000140057c10 f i main.obj
 0001:00056c60       ??$_Get_size_of_n@$0KA@@std@@YA_K_K@Z 0000000140057c60 f i main.obj
 0001:00056cc0       ??$_Get_size_of_n@$0M@@std@@YA_K_K@Z 0000000140057cc0 f i main.obj
 0001:00056d10       ??$_Get_size_of_n@$0MI@@std@@YA_K_K@Z 0000000140057d10 f i main.obj
 0001:00056d70       ??$_Get_unwrapped@AEAPEAD@std@@YA?A_TAEAPEAD@Z 0000000140057d70 f i main.obj
 0001:00056d90       ??$_Get_unwrapped@AEAV?$_Vb_iterator@U?$_Wrap_alloc@V?$allocator@I@std@@@std@@@std@@@std@@YA?A_TAEAV?$_Vb_iterator@U?$_Wrap_alloc@V?$allocator@I@std@@@std@@@0@@Z 0000000140057d90 f i main.obj
 0001:00056da0       ??$_Get_unwrapped@AEAV?$_Vector_const_iterator@V?$_Vector_val@U?$_Simple_types@U?$pair@V?$basic_string@DU?$char_traits@D@std@@V?$allocator@D@2@@std@@H@std@@@std@@@std@@@std@@@std@@YA?A_TAEAV?$_Vector_const_iterator@V?$_Vector_val@U?$_Simple_types@U?$pair@V?$basic_string@DU?$char_traits@D@std@@V?$allocator@D@2@@std@@H@std@@@std@@@std@@@0@@Z 0000000140057da0 f i main.obj
 0001:00056dc0       ??$_Get_unwrapped@AEAV?$_Vector_iterator@V?$_Vector_val@U?$_Simple_types@G@std@@@std@@@std@@@std@@YA?A_TAEAV?$_Vector_iterator@V?$_Vector_val@U?$_Simple_types@G@std@@@std@@@0@@Z 0000000140057dc0 f i main.obj
 0001:00056de0       ??$_Get_unwrapped@AEAV?$_Vector_iterator@V?$_Vector_val@U?$_Simple_types@V?$basic_json@Vmap@std@@Vvector@2@V?$basic_string@DU?$char_traits@D@std@@V?$allocator@D@2@@2@_N_J_KNVallocator@2@Uadl_serializer@json_abi_v3_11_2@nlohmann@@V?$vector@EV?$allocator@E@std@@@2@X@json_abi_v3_11_2@nlohmann@@@std@@@std@@@std@@@std@@YA?A_TAEAV?$_Vector_iterator@V?$_Vector_val@U?$_Simple_types@V?$basic_json@Vmap@std@@Vvector@2@V?$basic_string@DU?$char_traits@D@std@@V?$allocator@D@2@@2@_N_J_KNVallocator@2@Uadl_serializer@json_abi_v3_11_2@nlohmann@@V?$vector@EV?$allocator@E@std@@@2@X@json_abi_v3_11_2@nlohmann@@@std@@@std@@@0@@Z 0000000140057de0 f i main.obj
 0001:00056e00       ??$_Get_unwrapped@AEBQEAD@std@@YA?A_TAEBQEAD@Z 0000000140057e00 f i main.obj
 0001:00056e20       ??$_Get_unwrapped@AEBQEAG@std@@YA?A_TAEBQEAG@Z 0000000140057e20 f i main.obj
 0001:00056e40       ??$_Get_unwrapped@AEBQEAH@std@@YA?A_TAEBQEAH@Z 0000000140057e40 f i main.obj
 0001:00056e60       ??$_Get_unwrapped@AEBQEAI@std@@YA?A_TAEBQEAI@Z 0000000140057e60 f i main.obj
 0001:00056e80       ??$_Get_unwrapped@AEBQEAM@std@@YA?A_TAEBQEAM@Z 0000000140057e80 f i main.obj
 0001:00056ea0       ??$_Get_unwrapped@AEBQEAPEAV?$basic_json@Vmap@std@@Vvector@2@V?$basic_string@DU?$char_traits@D@std@@V?$allocator@D@2@@2@_N_J_KNVallocator@2@Uadl_serializer@json_abi_v3_11_2@nlohmann@@V?$vector@EV?$allocator@E@std@@@2@X@json_abi_v3_11_2@nlohmann@@@std@@YA?A_TAEBQEAPEAV?$basic_json@Vmap@std@@Vvector@2@V?$basic_string@DU?$char_traits@D@std@@V?$allocator@D@2@@2@_N_J_KNVallocator@2@Uadl_serializer@json_abi_v3_11_2@nlohmann@@V?$vector@EV?$allocator@E@std@@@2@X@json_abi_v3_11_2@nlohmann@@@Z 0000000140057ea0 f i main.obj
 0001:00056ec0       ??$_Get_unwrapped@AEBQEAPEAVActor@@@std@@YA?A_TAEBQEAPEAVActor@@@Z 0000000140057ec0 f i main.obj
 0001:00056ee0       ??$_Get_unwrapped@AEBQEAPEAVAnimationChannel@@@std@@YA?A_TAEBQEAPEAVAnimationChannel@@@Z 0000000140057ee0 f i main.obj
 0001:00056f00       ??$_Get_unwrapped@AEBQEAPEAVComponent@@@std@@YA?A_TAEBQEAPEAVComponent@@@Z 0000000140057f00 f i main.obj
 0001:00056f20       ??$_Get_unwrapped@AEBQEAPEAVNode@@@std@@YA?A_TAEBQEAPEAVNode@@@Z 0000000140057f20 f i main.obj
 0001:00056f40       ??$_Get_unwrapped@AEBQEAPEAVSkinInstance@@@std@@YA?A_TAEBQEAPEAVSkinInstance@@@Z 0000000140057f40 f i main.obj
 0001:00056f60       ??$_Get_unwrapped@AEBQEAU?$pair@V?$basic_string@DU?$char_traits@D@std@@V?$allocator@D@2@@std@@H@std@@@std@@YA?A_TAEBQEAU?$pair@V?$basic_string@DU?$char_traits@D@std@@V?$allocator@D@2@@std@@H@0@@Z 0000000140057f60 f i main.obj
 0001:00056f80       ??$_Get_unwrapped@AEBQEAU?$pair@V?$basic_string@DU?$char_traits@D@std@@V?$allocator@D@2@@std@@V?$shared_ptr@VTexture2D@@@2@@std@@@std@@YA?A_TAEBQEAU?$pair@V?$basic_string@DU?$char_traits@D@std@@V?$allocator@D@2@@std@@V?$shared_ptr@VTexture2D@@@2@@0@@Z 0000000140057f80 f i main.obj
 0001:00056fa0       ??$_Get_unwrapped@AEBQEAU?$quatt@M@@@std@@YA?A_TAEBQEAU?$quatt@M@@@Z 0000000140057fa0 f i main.obj
 0001:00056fc0       ??$_Get_unwrapped@AEBQEAUAccessor@gltf@@@std@@YA?A_TAEBQEAUAccessor@gltf@@@Z 0000000140057fc0 f i main.obj
 0001:00056fe0       ??$_Get_unwrapped@AEBQEAUAnimation@gltf@@@std@@YA?A_TAEBQEAUAnimation@gltf@@@Z 0000000140057fe0 f i main.obj
 0001:00057000       ??$_Get_unwrapped@AEBQEAUAnimationChannel@gltf@@@std@@YA?A_TAEBQEAUAnimationChannel@gltf@@@Z 0000000140058000 f i main.obj
 0001:00057020       ??$_Get_unwrapped@AEBQEAUAnimationSampler@gltf@@@std@@YA?A_TAEBQEAUAnimationSampler@gltf@@@Z 0000000140058020 f i main.obj
 0001:00057040       ??$_Get_unwrapped@AEBQEAUBuffer@gltf@@@std@@YA?A_TAEBQEAUBuffer@gltf@@@Z 0000000140058040 f i main.obj
 0001:00057060       ??$_Get_unwrapped@AEBQEAUBufferView@gltf@@@std@@YA?A_TAEBQEAUBufferView@gltf@@@Z 0000000140058060 f i main.obj
 0001:00057080       ??$_Get_unwrapped@AEBQEAUImage@gltf@@@std@@YA?A_TAEBQEAUImage@gltf@@@Z 0000000140058080 f i main.obj
 0001:000570a0       ??$_Get_unwrapped@AEBQEAUMaterial@gltf@@@std@@YA?A_TAEBQEAUMaterial@gltf@@@Z 00000001400580a0 f i main.obj
 0001:000570c0       ??$_Get_unwrapped@AEBQEAUMesh@gltf@@@std@@YA?A_TAEBQEAUMesh@gltf@@@Z 00000001400580c0 f i main.obj
 0001:000570e0       ??$_Get_unwrapped@AEBQEAUMeshPrimitive@gltf@@@std@@YA?A_TAEBQEAUMeshPrimitive@gltf@@@Z 00000001400580e0 f i main.obj
 0001:00057100       ??$_Get_unwrapped@AEBQEAUNode@gltf@@@std@@YA?A_TAEBQEAUNode@gltf@@@Z 0000000140058100 f i main.obj
 0001:00057120       ??$_Get_unwrapped@AEBQEAUSampler@gltf@@@std@@YA?A_TAEBQEAUSampler@gltf@@@Z 0000000140058120 f i main.obj
 0001:00057140       ??$_Get_unwrapped@AEBQEAUScene@gltf@@@std@@YA?A_TAEBQEAUScene@gltf@@@Z 0000000140058140 f i main.obj
 0001:00057160       ??$_Get_unwrapped@AEBQEAUSkin@gltf@@@std@@YA?A_TAEBQEAUSkin@gltf@@@Z 0000000140058160 f i main.obj
 0001:00057180       ??$_Get_unwrapped@AEBQEAUTexture@gltf@@@std@@YA?A_TAEBQEAUTexture@gltf@@@Z 0000000140058180 f i main.obj
 0001:000571a0       ??$_Get_unwrapped@AEBQEAV?$basic_json@Vmap@std@@Vvector@2@V?$basic_string@DU?$char_traits@D@std@@V?$allocator@D@2@@2@_N_J_KNVallocator@2@Uadl_serializer@json_abi_v3_11_2@nlohmann@@V?$vector@EV?$allocator@E@std@@@2@X@json_abi_v3_11_2@nlohmann@@@std@@YA?A_TAEBQEAV?$basic_json@Vmap@std@@Vvector@2@V?$basic_string@DU?$char_traits@D@std@@V?$allocator@D@2@@2@_N_J_KNVallocator@2@Uadl_serializer@json_abi_v3_11_2@nlohmann@@V?$vector@EV?$allocator@E@std@@@2@X@json_abi_v3_11_2@nlohmann@@@Z 00000001400581a0 f i main.obj
 0001:000571c0       ??$_Get_unwrapped@AEBQEAV?$basic_string@DU?$char_traits@D@std@@V?$allocator@D@2@@std@@@std@@YA?A_TAEBQEAV?$basic_string@DU?$char_traits@D@std@@V?$allocator@D@2@@0@@Z 00000001400581c0 f i main.obj
 0001:000571e0       ??$_Get_unwrapped@AEBQEAV?$shared_ptr@VAnimation@@@std@@@std@@YA?A_TAEBQEAV?$shared_ptr@VAnimation@@@0@@Z 00000001400581e0 f i main.obj
 0001:00057200       ??$_Get_unwrapped@AEBQEAV?$shared_ptr@VMaterial@@@std@@@std@@YA?A_TAEBQEAV?$shared_ptr@VMaterial@@@0@@Z 0000000140058200 f i main.obj
 0001:00057220       ??$_Get_unwrapped@AEBQEAV?$shared_ptr@VMesh@@@std@@@std@@YA?A_TAEBQEAV?$shared_ptr@VMesh@@@0@@Z 0000000140058220 f i main.obj
 0001:00057240       ??$_Get_unwrapped@AEBQEAV?$shared_ptr@VSkin@@@std@@@std@@YA?A_TAEBQEAV?$shared_ptr@VSkin@@@0@@Z 0000000140058240 f i main.obj
 0001:00057260       ??$_Get_unwrapped@AEBQEAV?$shared_ptr@VTexture2D@@@std@@@std@@YA?A_TAEBQEAV?$shared_ptr@VTexture2D@@@0@@Z 0000000140058260 f i main.obj
 0001:00057280       ??$_Get_unwrapped@AEBQEAVAnimationChannel@@@std@@YA?A_TAEBQEAVAnimationChannel@@@Z 0000000140058280 f i main.obj
 0001:000572a0       ??$_Get_unwrapped@AEBQEAVAnimationInstance@@@std@@YA?A_TAEBQEAVAnimationInstance@@@Z 00000001400582a0 f i main.obj
 0001:000572c0       ??$_Get_unwrapped@AEBQEAVAnimationInstanceView@@@std@@YA?A_TAEBQEAVAnimationInstanceView@@@Z 00000001400582c0 f i main.obj
 0001:000572e0       ??$_Get_unwrapped@AEBQEAVAnimationSampler@@@std@@YA?A_TAEBQEAVAnimationSampler@@@Z 00000001400582e0 f i main.obj
 0001:00057300       ??$_Get_unwrapped@AEBQEAVScene@@@std@@YA?A_TAEBQEAVScene@@@Z 0000000140058300 f i main.obj
 0001:00057320       ??$_Get_unwrapped@AEBV?$_Vector_const_iterator@V?$_Vector_val@U?$_Simple_types@U?$pair@V?$basic_string@DU?$char_traits@D@std@@V?$allocator@D@2@@std@@H@std@@@std@@@std@@@std@@@std@@YA?A_TAEBV?$_Vector_const_iterator@V?$_Vector_val@U?$_Simple_types@U?$pair@V?$basic_string@DU?$char_traits@D@std@@V?$allocator@D@2@@std@@H@std@@@std@@@std@@@0@@Z 0000000140058320 f i main.obj
 0001:00057340       ??$_Get_unwrapped@PEAH@std@@YA?A_T$$QEAPEAH@Z 0000000140058340 f i main.obj
 0001:00057360       ??$_Get_unwrapped@PEBU?$vec2t@M@@@std@@YA?A_T$$QEAPEBU?$vec2t@M@@@Z 0000000140058360 f i main.obj
 0001:00057380       ??$_Get_unwrapped@PEBU?$vec3t@M@@@std@@YA?A_T$$QEAPEBU?$vec3t@M@@@Z 0000000140058380 f i main.obj
 0001:000573a0       ??$_Get_unwrapped_n@AEAV?$_Vb_iterator@U?$_Wrap_alloc@V?$allocator@I@std@@@std@@@std@@_J@std@@YA?A_TAEAV?$_Vb_iterator@U?$_Wrap_alloc@V?$allocator@I@std@@@std@@@0@_J@Z 00000001400583a0 f i main.obj
 0001:000573c0       ??$_Get_unwrapped_n@AEAV?$back_insert_iterator@V?$vector@V?$basic_json@Vmap@std@@Vvector@2@V?$basic_string@DU?$char_traits@D@std@@V?$allocator@D@2@@2@_N_J_KNVallocator@2@Uadl_serializer@json_abi_v3_11_2@nlohmann@@V?$vector@EV?$allocator@E@std@@@2@X@json_abi_v3_11_2@nlohmann@@V?$allocator@V?$basic_json@Vmap@std@@Vvector@2@V?$basic_string@DU?$char_traits@D@std@@V?$allocator@D@2@@2@_N_J_KNVallocator@2@Uadl_serializer@json_abi_v3_11_2@nlohmann@@V?$vector@EV?$allocator@E@std@@@2@X@json_abi_v3_11_2@nlohmann@@@std@@@std@@@std@@_J@std@@YA?A_TAEAV?$back_insert_iterator@V?$vector@V?$basic_json@Vmap@std@@Vvector@2@V?$basic_string@DU?$char_traits@D@std@@V?$allocator@D@2@@2@_N_J_KNVallocator@2@Uadl_serializer@json_abi_v3_11_2@nlohmann@@V?$vector@EV?$allocator@E@std@@@2@X@json_abi_v3_11_2@nlohmann@@V?$allocator@V?$basic_json@Vmap@std@@Vvector@2@V?$basic_string@DU?$char_traits@D@std@@V?$allocator@D@2@@2@_N_J_KNVallocator@2@Uadl_serializer@json_abi_v3_11_2@nlohmann@@V?$vector@EV?$allocator@E@std@@@2@X@json_abi_v3_11_2@nlohmann@@@std@@@std@@@0@_J@Z 00000001400583c0 f i main.obj
 0001:000573e0       ??$_Get_unwrapped_n@V?$_Tree_iterator@V?$_Tree_val@U?$_Tree_simple_types@U?$pair@$$CBV?$basic_string@DU?$char_traits@D@std@@V?$allocator@D@2@@std@@V?$basic_json@Vmap@std@@Vvector@2@V?$basic_string@DU?$char_traits@D@std@@V?$allocator@D@2@@2@_N_J_KNVallocator@2@Uadl_serializer@json_abi_v3_11_2@nlohmann@@V?$vector@EV?$allocator@E@std@@@2@X@json_abi_v3_11_2@nlohmann@@@std@@@std@@@std@@@std@@H@std@@YA?A_T$$QEAV?$_Tree_iterator@V?$_Tree_val@U?$_Tree_simple_types@U?$pair@$$CBV?$basic_string@DU?$char_traits@D@std@@V?$allocator@D@2@@std@@V?$basic_json@Vmap@std@@Vvector@2@V?$basic_string@DU?$char_traits@D@std@@V?$allocator@D@2@@2@_N_J_KNVallocator@2@Uadl_serializer@json_abi_v3_11_2@nlohmann@@V?$vector@EV?$allocator@E@std@@@2@X@json_abi_v3_11_2@nlohmann@@@std@@@std@@@std@@@0@H@Z 00000001400583e0 f i main.obj
 0001:00057420       ??$_Get_unwrapped_unverified@AEAY06$$CBD@std@@YA?A_TAEAY06$$CBD@Z 0000000140058420 f i main.obj
 0001:00057430       ??$_Getvals@_W@?$time_get@DV?$istreambuf_iterator@DU?$char_traits@D@std@@@std@@@std@@IEAAX_WAEBV_Locinfo@1@@Z 0000000140058430 f i main.obj
 0001:000575a0       ?substr@?$basic_string@DU?$char_traits@D@std@@V?$allocator@D@2@@std@@QEBA?AV12@_K0@Z 00000001400585a0 f i main.obj
 0001:00057600       ??$_Getvals@_W@?$time_get@_WV?$istreambuf_iterator@_WU?$char_traits@_W@std@@@std@@@std@@IEAAX_WAEBV_Locinfo@1@@Z 0000000140058600 f i main.obj
 0001:00057770       snprintf                   0000000140058770 f i main.obj
 0001:000577d0       ??$_Idl_distance@V?$_Vb_iterator@U?$_Wrap_alloc@V?$allocator@I@std@@@std@@@std@@V12@@std@@YA?A_PAEBV?$_Vb_iterator@U?$_Wrap_alloc@V?$allocator@I@std@@@std@@@0@0@Z 00000001400587d0 f i main.obj
 0001:00057800       ??$_Idl_distance@V?$_Vector_iterator@V?$_Vector_val@U?$_Simple_types@V?$basic_json@Vmap@std@@Vvector@2@V?$basic_string@DU?$char_traits@D@std@@V?$allocator@D@2@@2@_N_J_KNVallocator@2@Uadl_serializer@json_abi_v3_11_2@nlohmann@@V?$vector@EV?$allocator@E@std@@@2@X@json_abi_v3_11_2@nlohmann@@@std@@@std@@@std@@PEAV?$basic_json@Vmap@std@@Vvector@2@V?$basic_string@DU?$char_traits@D@std@@V?$allocator@D@2@@2@_N_J_KNVallocator@2@Uadl_serializer@json_abi_v3_11_2@nlohmann@@V?$vector@EV?$allocator@E@std@@@2@X@json_abi_v3_11_2@nlohmann@@@std@@YA?A_PAEBQEAV?$basic_json@Vmap@std@@Vvector@2@V?$basic_string@DU?$char_traits@D@std@@V?$allocator@D@2@@2@_N_J_KNVallocator@2@Uadl_serializer@json_abi_v3_11_2@nlohmann@@V?$vector@EV?$allocator@E@std@@@2@X@json_abi_v3_11_2@nlohmann@@0@Z 0000000140058800 f i main.obj
 0001:00057830       ??$_Immortalize_memcpy_image@V_Generic_error_category@std@@@std@@YAAEBV_Generic_error_category@0@XZ 0000000140058830 f i main.obj
 0001:00057840       ??$_Immortalize_memcpy_image@V_System_error_category@std@@@std@@YAAEBV_System_error_category@0@XZ 0000000140058840 f i main.obj
 0001:00057850       ??$_Insert_string@DU?$char_traits@D@std@@_K@std@@YAAEAV?$basic_ostream@DU?$char_traits@D@std@@@0@AEAV10@QEBD_K@Z 0000000140058850 f i main.obj
 0001:00057c40       ?_Erase_noexcept@?$basic_string@DU?$char_traits@D@std@@V?$allocator@D@2@@std@@AEAAAEAV12@_K_K@Z 0000000140058c40 f i main.obj
 0001:00057d40       ??$_Integral_to_string@DH@std@@YA?AV?$basic_string@DU?$char_traits@D@std@@V?$allocator@D@2@@0@H@Z 0000000140058d40 f i main.obj
 0001:00057e50       ??$_Is_all_bits_zero@I@std@@YA_NAEBI@Z 0000000140058e50 f i main.obj
 0001:00057eb0       ??$_Kfn@$$CBV?$basic_string@DU?$char_traits@D@std@@V?$allocator@D@2@@std@@PEAUmat4@@@?$_Tmap_traits@V?$basic_string@DU?$char_traits@D@std@@V?$allocator@D@2@@std@@PEAUmat4@@U?$less@V?$basic_string@DU?$char_traits@D@std@@V?$allocator@D@2@@std@@@2@V?$allocator@U?$pair@$$CBV?$basic_string@DU?$char_traits@D@std@@V?$allocator@D@2@@std@@PEAUmat4@@@std@@@2@$0A@@std@@SAAEBV?$basic_string@DU?$char_traits@D@std@@V?$allocator@D@2@@1@AEBU?$pair@$$CBV?$basic_string@DU?$char_traits@D@std@@V?$allocator@D@2@@std@@PEAUmat4@@@1@@Z 0000000140058eb0 f i main.obj
 0001:00057ec0       ??$_Kfn@$$CBV?$basic_string@DU?$char_traits@D@std@@V?$allocator@D@2@@std@@V?$basic_json@Vmap@std@@Vvector@2@V?$basic_string@DU?$char_traits@D@std@@V?$allocator@D@2@@2@_N_J_KNVallocator@2@Uadl_serializer@json_abi_v3_11_2@nlohmann@@V?$vector@EV?$allocator@E@std@@@2@X@json_abi_v3_11_2@nlohmann@@@?$_Tmap_traits@V?$basic_string@DU?$char_traits@D@std@@V?$allocator@D@2@@std@@V?$basic_json@Vmap@std@@Vvector@2@V?$basic_string@DU?$char_traits@D@std@@V?$allocator@D@2@@2@_N_J_KNVallocator@2@Uadl_serializer@json_abi_v3_11_2@nlohmann@@V?$vector@EV?$allocator@E@std@@@2@X@json_abi_v3_11_2@nlohmann@@U?$less@X@2@V?$allocator@U?$pair@$$CBV?$basic_string@DU?$char_traits@D@std@@V?$allocator@D@2@@std@@V?$basic_json@Vmap@std@@Vvector@2@V?$basic_string@DU?$char_traits@D@std@@V?$allocator@D@2@@2@_N_J_KNVallocator@2@Uadl_serializer@json_abi_v3_11_2@nlohmann@@V?$vector@EV?$allocator@E@std@@@2@X@json_abi_v3_11_2@nlohmann@@@std@@@2@$0A@@std@@SAAEBV?$basic_string@DU?$char_traits@D@std@@V?$allocator@D@2@@1@AEBU?$pair@$$CBV?$basic_string@DU?$char_traits@D@std@@V?$allocator@D@2@@std@@V?$basic_json@Vmap@std@@Vvector@2@V?$basic_string@DU?$char_traits@D@std@@V?$allocator@D@2@@2@_N_J_KNVallocator@2@Uadl_serializer@json_abi_v3_11_2@nlohmann@@V?$vector@EV?$allocator@E@std@@@2@X@json_abi_v3_11_2@nlohmann@@@1@@Z 0000000140058ec0 f i main.obj
 0001:00057ed0       ??$_Kfn@$$CBV?$basic_string@DU?$char_traits@D@std@@V?$allocator@D@2@@std@@V?$weak_ptr@VImage@@@2@@?$_Tmap_traits@V?$basic_string@DU?$char_traits@D@std@@V?$allocator@D@2@@std@@V?$weak_ptr@VImage@@@2@U?$less@V?$basic_string@DU?$char_traits@D@std@@V?$allocator@D@2@@std@@@2@V?$allocator@U?$pair@$$CBV?$basic_string@DU?$char_traits@D@std@@V?$allocator@D@2@@std@@V?$weak_ptr@VImage@@@2@@std@@@2@$0A@@std@@SAAEBV?$basic_string@DU?$char_traits@D@std@@V?$allocator@D@2@@1@AEBU?$pair@$$CBV?$basic_string@DU?$char_traits@D@std@@V?$allocator@D@2@@std@@V?$weak_ptr@VImage@@@2@@1@@Z 0000000140058ed0 f i main.obj
 0001:00057ee0       ??$_Kfn@$$CBV?$basic_string@DU?$char_traits@D@std@@V?$allocator@D@2@@std@@V?$weak_ptr@VScenes@@@2@@?$_Tmap_traits@V?$basic_string@DU?$char_traits@D@std@@V?$allocator@D@2@@std@@V?$weak_ptr@VScenes@@@2@U?$less@V?$basic_string@DU?$char_traits@D@std@@V?$allocator@D@2@@std@@@2@V?$allocator@U?$pair@$$CBV?$basic_string@DU?$char_traits@D@std@@V?$allocator@D@2@@std@@V?$weak_ptr@VScenes@@@2@@std@@@2@$0A@@std@@SAAEBV?$basic_string@DU?$char_traits@D@std@@V?$allocator@D@2@@1@AEBU?$pair@$$CBV?$basic_string@DU?$char_traits@D@std@@V?$allocator@D@2@@std@@V?$weak_ptr@VScenes@@@2@@1@@Z 0000000140058ee0 f i main.obj
 0001:00057ef0       ??$_Kfn@$$CBV?$basic_string@DU?$char_traits@D@std@@V?$allocator@D@2@@std@@V?$weak_ptr@VShader@@@2@@?$_Tmap_traits@V?$basic_string@DU?$char_traits@D@std@@V?$allocator@D@2@@std@@V?$weak_ptr@VShader@@@2@U?$less@V?$basic_string@DU?$char_traits@D@std@@V?$allocator@D@2@@std@@@2@V?$allocator@U?$pair@$$CBV?$basic_string@DU?$char_traits@D@std@@V?$allocator@D@2@@std@@V?$weak_ptr@VShader@@@2@@std@@@2@$0A@@std@@SAAEBV?$basic_string@DU?$char_traits@D@std@@V?$allocator@D@2@@1@AEBU?$pair@$$CBV?$basic_string@DU?$char_traits@D@std@@V?$allocator@D@2@@std@@V?$weak_ptr@VShader@@@2@@1@@Z 0000000140058ef0 f i main.obj
 0001:00057f00       ??$_Kfn@$$CBV?$basic_string@DU?$char_traits@D@std@@V?$allocator@D@2@@std@@V?$weak_ptr@VTexture2D@@@2@@?$_Tmap_traits@V?$basic_string@DU?$char_traits@D@std@@V?$allocator@D@2@@std@@V?$weak_ptr@VTexture2D@@@2@U?$less@V?$basic_string@DU?$char_traits@D@std@@V?$allocator@D@2@@std@@@2@V?$allocator@U?$pair@$$CBV?$basic_string@DU?$char_traits@D@std@@V?$allocator@D@2@@std@@V?$weak_ptr@VTexture2D@@@2@@std@@@2@$0A@@std@@SAAEBV?$basic_string@DU?$char_traits@D@std@@V?$allocator@D@2@@1@AEBU?$pair@$$CBV?$basic_string@DU?$char_traits@D@std@@V?$allocator@D@2@@std@@V?$weak_ptr@VTexture2D@@@2@@1@@Z 0000000140058f00 f i main.obj
 0001:00057f10       ??$_Lower_bound_duplicate@$$BY03D@?$_Tree@V?$_Tmap_traits@V?$basic_string@DU?$char_traits@D@std@@V?$allocator@D@2@@std@@V?$basic_json@Vmap@std@@Vvector@2@V?$basic_string@DU?$char_traits@D@std@@V?$allocator@D@2@@2@_N_J_KNVallocator@2@Uadl_serializer@json_abi_v3_11_2@nlohmann@@V?$vector@EV?$allocator@E@std@@@2@X@json_abi_v3_11_2@nlohmann@@U?$less@X@2@V?$allocator@U?$pair@$$CBV?$basic_string@DU?$char_traits@D@std@@V?$allocator@D@2@@std@@V?$basic_json@Vmap@std@@Vvector@2@V?$basic_string@DU?$char_traits@D@std@@V?$allocator@D@2@@2@_N_J_KNVallocator@2@Uadl_serializer@json_abi_v3_11_2@nlohmann@@V?$vector@EV?$allocator@E@std@@@2@X@json_abi_v3_11_2@nlohmann@@@std@@@2@$0A@@std@@@std@@IEBA_NQEAU?$_Tree_node@U?$pair@$$CBV?$basic_string@DU?$char_traits@D@std@@V?$allocator@D@2@@std@@V?$basic_json@Vmap@std@@Vvector@2@V?$basic_string@DU?$char_traits@D@std@@V?$allocator@D@2@@2@_N_J_KNVallocator@2@Uadl_serializer@json_abi_v3_11_2@nlohmann@@V?$vector@EV?$allocator@E@std@@@2@X@json_abi_v3_11_2@nlohmann@@@std@@PEAX@1@AEAY03$$CBD@Z 0000000140058f10 f i main.obj
 0001:00057fb0       ??$_Lower_bound_duplicate@$$BY04D@?$_Tree@V?$_Tmap_traits@V?$basic_string@DU?$char_traits@D@std@@V?$allocator@D@2@@std@@V?$basic_json@Vmap@std@@Vvector@2@V?$basic_string@DU?$char_traits@D@std@@V?$allocator@D@2@@2@_N_J_KNVallocator@2@Uadl_serializer@json_abi_v3_11_2@nlohmann@@V?$vector@EV?$allocator@E@std@@@2@X@json_abi_v3_11_2@nlohmann@@U?$less@X@2@V?$allocator@U?$pair@$$CBV?$basic_string@DU?$char_traits@D@std@@V?$allocator@D@2@@std@@V?$basic_json@Vmap@std@@Vvector@2@V?$basic_string@DU?$char_traits@D@std@@V?$allocator@D@2@@2@_N_J_KNVallocator@2@Uadl_serializer@json_abi_v3_11_2@nlohmann@@V?$vector@EV?$allocator@E@std@@@2@X@json_abi_v3_11_2@nlohmann@@@std@@@2@$0A@@std@@@std@@IEBA_NQEAU?$_Tree_node@U?$pair@$$CBV?$basic_string@DU?$char_traits@D@std@@V?$allocator@D@2@@std@@V?$basic_json@Vmap@std@@Vvector@2@V?$basic_string@DU?$char_traits@D@std@@V?$allocator@D@2@@2@_N_J_KNVallocator@2@Uadl_serializer@json_abi_v3_11_2@nlohmann@@V?$vector@EV?$allocator@E@std@@@2@X@json_abi_v3_11_2@nlohmann@@@std@@PEAX@1@AEAY04$$CBD@Z 0000000140058fb0 f i main.obj
 0001:00058050       ??$_Lower_bound_duplicate@$$BY05D@?$_Tree@V?$_Tmap_traits@V?$basic_string@DU?$char_traits@D@std@@V?$allocator@D@2@@std@@V?$basic_json@Vmap@std@@Vvector@2@V?$basic_string@DU?$char_traits@D@std@@V?$allocator@D@2@@2@_N_J_KNVallocator@2@Uadl_serializer@json_abi_v3_11_2@nlohmann@@V?$vector@EV?$allocator@E@std@@@2@X@json_abi_v3_11_2@nlohmann@@U?$less@X@2@V?$allocator@U?$pair@$$CBV?$basic_string@DU?$char_traits@D@std@@V?$allocator@D@2@@std@@V?$basic_json@Vmap@std@@Vvector@2@V?$basic_string@DU?$char_traits@D@std@@V?$allocator@D@2@@2@_N_J_KNVallocator@2@Uadl_serializer@json_abi_v3_11_2@nlohmann@@V?$vector@EV?$allocator@E@std@@@2@X@json_abi_v3_11_2@nlohmann@@@std@@@2@$0A@@std@@@std@@IEBA_NQEAU?$_Tree_node@U?$pair@$$CBV?$basic_string@DU?$char_traits@D@std@@V?$allocator@D@2@@std@@V?$basic_json@Vmap@std@@Vvector@2@V?$basic_string@DU?$char_traits@D@std@@V?$allocator@D@2@@2@_N_J_KNVallocator@2@Uadl_serializer@json_abi_v3_11_2@nlohmann@@V?$vector@EV?$allocator@E@std@@@2@X@json_abi_v3_11_2@nlohmann@@@std@@PEAX@1@AEAY05$$CBD@Z 0000000140059050 f i main.obj
 0001:000580f0       ??$_Lower_bound_duplicate@$$BY06D@?$_Tree@V?$_Tmap_traits@V?$basic_string@DU?$char_traits@D@std@@V?$allocator@D@2@@std@@V?$basic_json@Vmap@std@@Vvector@2@V?$basic_string@DU?$char_traits@D@std@@V?$allocator@D@2@@2@_N_J_KNVallocator@2@Uadl_serializer@json_abi_v3_11_2@nlohmann@@V?$vector@EV?$allocator@E@std@@@2@X@json_abi_v3_11_2@nlohmann@@U?$less@X@2@V?$allocator@U?$pair@$$CBV?$basic_string@DU?$char_traits@D@std@@V?$allocator@D@2@@std@@V?$basic_json@Vmap@std@@Vvector@2@V?$basic_string@DU?$char_traits@D@std@@V?$allocator@D@2@@2@_N_J_KNVallocator@2@Uadl_serializer@json_abi_v3_11_2@nlohmann@@V?$vector@EV?$allocator@E@std@@@2@X@json_abi_v3_11_2@nlohmann@@@std@@@2@$0A@@std@@@std@@IEBA_NQEAU?$_Tree_node@U?$pair@$$CBV?$basic_string@DU?$char_traits@D@std@@V?$allocator@D@2@@std@@V?$basic_json@Vmap@std@@Vvector@2@V?$basic_string@DU?$char_traits@D@std@@V?$allocator@D@2@@2@_N_J_KNVallocator@2@Uadl_serializer@json_abi_v3_11_2@nlohmann@@V?$vector@EV?$allocator@E@std@@@2@X@json_abi_v3_11_2@nlohmann@@@std@@PEAX@1@AEAY06$$CBD@Z 00000001400590f0 f i main.obj
 0001:00058190       ??$_Lower_bound_duplicate@$$BY07D@?$_Tree@V?$_Tmap_traits@V?$basic_string@DU?$char_traits@D@std@@V?$allocator@D@2@@std@@V?$basic_json@Vmap@std@@Vvector@2@V?$basic_string@DU?$char_traits@D@std@@V?$allocator@D@2@@2@_N_J_KNVallocator@2@Uadl_serializer@json_abi_v3_11_2@nlohmann@@V?$vector@EV?$allocator@E@std@@@2@X@json_abi_v3_11_2@nlohmann@@U?$less@X@2@V?$allocator@U?$pair@$$CBV?$basic_string@DU?$char_traits@D@std@@V?$allocator@D@2@@std@@V?$basic_json@Vmap@std@@Vvector@2@V?$basic_string@DU?$char_traits@D@std@@V?$allocator@D@2@@2@_N_J_KNVallocator@2@Uadl_serializer@json_abi_v3_11_2@nlohmann@@V?$vector@EV?$allocator@E@std@@@2@X@json_abi_v3_11_2@nlohmann@@@std@@@2@$0A@@std@@@std@@IEBA_NQEAU?$_Tree_node@U?$pair@$$CBV?$basic_string@DU?$char_traits@D@std@@V?$allocator@D@2@@std@@V?$basic_json@Vmap@std@@Vvector@2@V?$basic_string@DU?$char_traits@D@std@@V?$allocator@D@2@@2@_N_J_KNVallocator@2@Uadl_serializer@json_abi_v3_11_2@nlohmann@@V?$vector@EV?$allocator@E@std@@@2@X@json_abi_v3_11_2@nlohmann@@@std@@PEAX@1@AEAY07$$CBD@Z 0000000140059190 f i main.obj
 0001:00058230       ??$_Lower_bound_duplicate@$$BY08D@?$_Tree@V?$_Tmap_traits@V?$basic_string@DU?$char_traits@D@std@@V?$allocator@D@2@@std@@V?$basic_json@Vmap@std@@Vvector@2@V?$basic_string@DU?$char_traits@D@std@@V?$allocator@D@2@@2@_N_J_KNVallocator@2@Uadl_serializer@json_abi_v3_11_2@nlohmann@@V?$vector@EV?$allocator@E@std@@@2@X@json_abi_v3_11_2@nlohmann@@U?$less@X@2@V?$allocator@U?$pair@$$CBV?$basic_string@DU?$char_traits@D@std@@V?$allocator@D@2@@std@@V?$basic_json@Vmap@std@@Vvector@2@V?$basic_string@DU?$char_traits@D@std@@V?$allocator@D@2@@2@_N_J_KNVallocator@2@Uadl_serializer@json_abi_v3_11_2@nlohmann@@V?$vector@EV?$allocator@E@std@@@2@X@json_abi_v3_11_2@nlohmann@@@std@@@2@$0A@@std@@@std@@IEBA_NQEAU?$_Tree_node@U?$pair@$$CBV?$basic_string@DU?$char_traits@D@std@@V?$allocator@D@2@@std@@V?$basic_json@Vmap@std@@Vvector@2@V?$basic_string@DU?$char_traits@D@std@@V?$allocator@D@2@@2@_N_J_KNVallocator@2@Uadl_serializer@json_abi_v3_11_2@nlohmann@@V?$vector@EV?$allocator@E@std@@@2@X@json_abi_v3_11_2@nlohmann@@@std@@PEAX@1@AEAY08$$CBD@Z 0000000140059230 f i main.obj
 0001:000582d0       ??$_Lower_bound_duplicate@$$BY09D@?$_Tree@V?$_Tmap_traits@V?$basic_string@DU?$char_traits@D@std@@V?$allocator@D@2@@std@@V?$basic_json@Vmap@std@@Vvector@2@V?$basic_string@DU?$char_traits@D@std@@V?$allocator@D@2@@2@_N_J_KNVallocator@2@Uadl_serializer@json_abi_v3_11_2@nlohmann@@V?$vector@EV?$allocator@E@std@@@2@X@json_abi_v3_11_2@nlohmann@@U?$less@X@2@V?$allocator@U?$pair@$$CBV?$basic_string@DU?$char_traits@D@std@@V?$allocator@D@2@@std@@V?$basic_json@Vmap@std@@Vvector@2@V?$basic_string@DU?$char_traits@D@std@@V?$allocator@D@2@@2@_N_J_KNVallocator@2@Uadl_serializer@json_abi_v3_11_2@nlohmann@@V?$vector@EV?$allocator@E@std@@@2@X@json_abi_v3_11_2@nlohmann@@@std@@@2@$0A@@std@@@std@@IEBA_NQEAU?$_Tree_node@U?$pair@$$CBV?$basic_string@DU?$char_traits@D@std@@V?$allocator@D@2@@std@@V?$basic_json@Vmap@std@@Vvector@2@V?$basic_string@DU?$char_traits@D@std@@V?$allocator@D@2@@2@_N_J_KNVallocator@2@Uadl_serializer@json_abi_v3_11_2@nlohmann@@V?$vector@EV?$allocator@E@std@@@2@X@json_abi_v3_11_2@nlohmann@@@std@@PEAX@1@AEAY09$$CBD@Z 00000001400592d0 f i main.obj
 0001:00058370       ??$_Lower_bound_duplicate@$$BY0BA@D@?$_Tree@V?$_Tmap_traits@V?$basic_string@DU?$char_traits@D@std@@V?$allocator@D@2@@std@@V?$basic_json@Vmap@std@@Vvector@2@V?$basic_string@DU?$char_traits@D@std@@V?$allocator@D@2@@2@_N_J_KNVallocator@2@Uadl_serializer@json_abi_v3_11_2@nlohmann@@V?$vector@EV?$allocator@E@std@@@2@X@json_abi_v3_11_2@nlohmann@@U?$less@X@2@V?$allocator@U?$pair@$$CBV?$basic_string@DU?$char_traits@D@std@@V?$allocator@D@2@@std@@V?$basic_json@Vmap@std@@Vvector@2@V?$basic_string@DU?$char_traits@D@std@@V?$allocator@D@2@@2@_N_J_KNVallocator@2@Uadl_serializer@json_abi_v3_11_2@nlohmann@@V?$vector@EV?$allocator@E@std@@@2@X@json_abi_v3_11_2@nlohmann@@@std@@@2@$0A@@std@@@std@@IEBA_NQEAU?$_Tree_node@U?$pair@$$CBV?$basic_string@DU?$char_traits@D@std@@V?$allocator@D@2@@std@@V?$basic_json@Vmap@std@@Vvector@2@V?$basic_string@DU?$char_traits@D@std@@V?$allocator@D@2@@2@_N_J_KNVallocator@2@Uadl_serializer@json_abi_v3_11_2@nlohmann@@V?$vector@EV?$allocator@E@std@@@2@X@json_abi_v3_11_2@nlohmann@@@std@@PEAX@1@AEAY0BA@$$CBD@Z 0000000140059370 f i main.obj
 0001:00058410       ??$_Lower_bound_duplicate@$$BY0BB@D@?$_Tree@V?$_Tmap_traits@V?$basic_string@DU?$char_traits@D@std@@V?$allocator@D@2@@std@@V?$basic_json@Vmap@std@@Vvector@2@V?$basic_string@DU?$char_traits@D@std@@V?$allocator@D@2@@2@_N_J_KNVallocator@2@Uadl_serializer@json_abi_v3_11_2@nlohmann@@V?$vector@EV?$allocator@E@std@@@2@X@json_abi_v3_11_2@nlohmann@@U?$less@X@2@V?$allocator@U?$pair@$$CBV?$basic_string@DU?$char_traits@D@std@@V?$allocator@D@2@@std@@V?$basic_json@Vmap@std@@Vvector@2@V?$basic_string@DU?$char_traits@D@std@@V?$allocator@D@2@@2@_N_J_KNVallocator@2@Uadl_serializer@json_abi_v3_11_2@nlohmann@@V?$vector@EV?$allocator@E@std@@@2@X@json_abi_v3_11_2@nlohmann@@@std@@@2@$0A@@std@@@std@@IEBA_NQEAU?$_Tree_node@U?$pair@$$CBV?$basic_string@DU?$char_traits@D@std@@V?$allocator@D@2@@std@@V?$basic_json@Vmap@std@@Vvector@2@V?$basic_string@DU?$char_traits@D@std@@V?$allocator@D@2@@2@_N_J_KNVallocator@2@Uadl_serializer@json_abi_v3_11_2@nlohmann@@V?$vector@EV?$allocator@E@std@@@2@X@json_abi_v3_11_2@nlohmann@@@std@@PEAX@1@AEAY0BB@$$CBD@Z 0000000140059410 f i main.obj
 0001:000584b0       ??$_Lower_bound_duplicate@$$BY0BE@D@?$_Tree@V?$_Tmap_traits@V?$basic_string@DU?$char_traits@D@std@@V?$allocator@D@2@@std@@V?$basic_json@Vmap@std@@Vvector@2@V?$basic_string@DU?$char_traits@D@std@@V?$allocator@D@2@@2@_N_J_KNVallocator@2@Uadl_serializer@json_abi_v3_11_2@nlohmann@@V?$vector@EV?$allocator@E@std@@@2@X@json_abi_v3_11_2@nlohmann@@U?$less@X@2@V?$allocator@U?$pair@$$CBV?$basic_string@DU?$char_traits@D@std@@V?$allocator@D@2@@std@@V?$basic_json@Vmap@std@@Vvector@2@V?$basic_string@DU?$char_traits@D@std@@V?$allocator@D@2@@2@_N_J_KNVallocator@2@Uadl_serializer@json_abi_v3_11_2@nlohmann@@V?$vector@EV?$allocator@E@std@@@2@X@json_abi_v3_11_2@nlohmann@@@std@@@2@$0A@@std@@@std@@IEBA_NQEAU?$_Tree_node@U?$pair@$$CBV?$basic_string@DU?$char_traits@D@std@@V?$allocator@D@2@@std@@V?$basic_json@Vmap@std@@Vvector@2@V?$basic_string@DU?$char_traits@D@std@@V?$allocator@D@2@@2@_N_J_KNVallocator@2@Uadl_serializer@json_abi_v3_11_2@nlohmann@@V?$vector@EV?$allocator@E@std@@@2@X@json_abi_v3_11_2@nlohmann@@@std@@PEAX@1@AEAY0BE@$$CBD@Z 00000001400594b0 f i main.obj
 0001:00058550       ??$_Lower_bound_duplicate@$$BY0BF@D@?$_Tree@V?$_Tmap_traits@V?$basic_string@DU?$char_traits@D@std@@V?$allocator@D@2@@std@@V?$basic_json@Vmap@std@@Vvector@2@V?$basic_string@DU?$char_traits@D@std@@V?$allocator@D@2@@2@_N_J_KNVallocator@2@Uadl_serializer@json_abi_v3_11_2@nlohmann@@V?$vector@EV?$allocator@E@std@@@2@X@json_abi_v3_11_2@nlohmann@@U?$less@X@2@V?$allocator@U?$pair@$$CBV?$basic_string@DU?$char_traits@D@std@@V?$allocator@D@2@@std@@V?$basic_json@Vmap@std@@Vvector@2@V?$basic_string@DU?$char_traits@D@std@@V?$allocator@D@2@@2@_N_J_KNVallocator@2@Uadl_serializer@json_abi_v3_11_2@nlohmann@@V?$vector@EV?$allocator@E@std@@@2@X@json_abi_v3_11_2@nlohmann@@@std@@@2@$0A@@std@@@std@@IEBA_NQEAU?$_Tree_node@U?$pair@$$CBV?$basic_string@DU?$char_traits@D@std@@V?$allocator@D@2@@std@@V?$basic_json@Vmap@std@@Vvector@2@V?$basic_string@DU?$char_traits@D@std@@V?$allocator@D@2@@2@_N_J_KNVallocator@2@Uadl_serializer@json_abi_v3_11_2@nlohmann@@V?$vector@EV?$allocator@E@std@@@2@X@json_abi_v3_11_2@nlohmann@@@std@@PEAX@1@AEAY0BF@$$CBD@Z 0000000140059550 f i main.obj
 0001:000585f0       ??$_Lower_bound_duplicate@$$BY0BJ@D@?$_Tree@V?$_Tmap_traits@V?$basic_string@DU?$char_traits@D@std@@V?$allocator@D@2@@std@@V?$basic_json@Vmap@std@@Vvector@2@V?$basic_string@DU?$char_traits@D@std@@V?$allocator@D@2@@2@_N_J_KNVallocator@2@Uadl_serializer@json_abi_v3_11_2@nlohmann@@V?$vector@EV?$allocator@E@std@@@2@X@json_abi_v3_11_2@nlohmann@@U?$less@X@2@V?$allocator@U?$pair@$$CBV?$basic_string@DU?$char_traits@D@std@@V?$allocator@D@2@@std@@V?$basic_json@Vmap@std@@Vvector@2@V?$basic_string@DU?$char_traits@D@std@@V?$allocator@D@2@@2@_N_J_KNVallocator@2@Uadl_serializer@json_abi_v3_11_2@nlohmann@@V?$vector@EV?$allocator@E@std@@@2@X@json_abi_v3_11_2@nlohmann@@@std@@@2@$0A@@std@@@std@@IEBA_NQEAU?$_Tree_node@U?$pair@$$CBV?$basic_string@DU?$char_traits@D@std@@V?$allocator@D@2@@std@@V?$basic_json@Vmap@std@@Vvector@2@V?$basic_string@DU?$char_traits@D@std@@V?$allocator@D@2@@2@_N_J_KNVallocator@2@Uadl_serializer@json_abi_v3_11_2@nlohmann@@V?$vector@EV?$allocator@E@std@@@2@X@json_abi_v3_11_2@nlohmann@@@std@@PEAX@1@AEAY0BJ@$$CBD@Z 00000001400595f0 f i main.obj
 0001:00058690       ??$_Lower_bound_duplicate@$$BY0L@D@?$_Tree@V?$_Tmap_traits@V?$basic_string@DU?$char_traits@D@std@@V?$allocator@D@2@@std@@V?$basic_json@Vmap@std@@Vvector@2@V?$basic_string@DU?$char_traits@D@std@@V?$allocator@D@2@@2@_N_J_KNVallocator@2@Uadl_serializer@json_abi_v3_11_2@nlohmann@@V?$vector@EV?$allocator@E@std@@@2@X@json_abi_v3_11_2@nlohmann@@U?$less@X@2@V?$allocator@U?$pair@$$CBV?$basic_string@DU?$char_traits@D@std@@V?$allocator@D@2@@std@@V?$basic_json@Vmap@std@@Vvector@2@V?$basic_string@DU?$char_traits@D@std@@V?$allocator@D@2@@2@_N_J_KNVallocator@2@Uadl_serializer@json_abi_v3_11_2@nlohmann@@V?$vector@EV?$allocator@E@std@@@2@X@json_abi_v3_11_2@nlohmann@@@std@@@2@$0A@@std@@@std@@IEBA_NQEAU?$_Tree_node@U?$pair@$$CBV?$basic_string@DU?$char_traits@D@std@@V?$allocator@D@2@@std@@V?$basic_json@Vmap@std@@Vvector@2@V?$basic_string@DU?$char_traits@D@std@@V?$allocator@D@2@@2@_N_J_KNVallocator@2@Uadl_serializer@json_abi_v3_11_2@nlohmann@@V?$vector@EV?$allocator@E@std@@@2@X@json_abi_v3_11_2@nlohmann@@@std@@PEAX@1@AEAY0L@$$CBD@Z 0000000140059690 f i main.obj
 0001:00058730       ??$_Lower_bound_duplicate@$$BY0M@D@?$_Tree@V?$_Tmap_traits@V?$basic_string@DU?$char_traits@D@std@@V?$allocator@D@2@@std@@V?$basic_json@Vmap@std@@Vvector@2@V?$basic_string@DU?$char_traits@D@std@@V?$allocator@D@2@@2@_N_J_KNVallocator@2@Uadl_serializer@json_abi_v3_11_2@nlohmann@@V?$vector@EV?$allocator@E@std@@@2@X@json_abi_v3_11_2@nlohmann@@U?$less@X@2@V?$allocator@U?$pair@$$CBV?$basic_string@DU?$char_traits@D@std@@V?$allocator@D@2@@std@@V?$basic_json@Vmap@std@@Vvector@2@V?$basic_string@DU?$char_traits@D@std@@V?$allocator@D@2@@2@_N_J_KNVallocator@2@Uadl_serializer@json_abi_v3_11_2@nlohmann@@V?$vector@EV?$allocator@E@std@@@2@X@json_abi_v3_11_2@nlohmann@@@std@@@2@$0A@@std@@@std@@IEBA_NQEAU?$_Tree_node@U?$pair@$$CBV?$basic_string@DU?$char_traits@D@std@@V?$allocator@D@2@@std@@V?$basic_json@Vmap@std@@Vvector@2@V?$basic_string@DU?$char_traits@D@std@@V?$allocator@D@2@@2@_N_J_KNVallocator@2@Uadl_serializer@json_abi_v3_11_2@nlohmann@@V?$vector@EV?$allocator@E@std@@@2@X@json_abi_v3_11_2@nlohmann@@@std@@PEAX@1@AEAY0M@$$CBD@Z 0000000140059730 f i main.obj
 0001:000587d0       ??$_Lower_bound_duplicate@$$BY0O@D@?$_Tree@V?$_Tmap_traits@V?$basic_string@DU?$char_traits@D@std@@V?$allocator@D@2@@std@@V?$basic_json@Vmap@std@@Vvector@2@V?$basic_string@DU?$char_traits@D@std@@V?$allocator@D@2@@2@_N_J_KNVallocator@2@Uadl_serializer@json_abi_v3_11_2@nlohmann@@V?$vector@EV?$allocator@E@std@@@2@X@json_abi_v3_11_2@nlohmann@@U?$less@X@2@V?$allocator@U?$pair@$$CBV?$basic_string@DU?$char_traits@D@std@@V?$allocator@D@2@@std@@V?$basic_json@Vmap@std@@Vvector@2@V?$basic_string@DU?$char_traits@D@std@@V?$allocator@D@2@@2@_N_J_KNVallocator@2@Uadl_serializer@json_abi_v3_11_2@nlohmann@@V?$vector@EV?$allocator@E@std@@@2@X@json_abi_v3_11_2@nlohmann@@@std@@@2@$0A@@std@@@std@@IEBA_NQEAU?$_Tree_node@U?$pair@$$CBV?$basic_string@DU?$char_traits@D@std@@V?$allocator@D@2@@std@@V?$basic_json@Vmap@std@@Vvector@2@V?$basic_string@DU?$char_traits@D@std@@V?$allocator@D@2@@2@_N_J_KNVallocator@2@Uadl_serializer@json_abi_v3_11_2@nlohmann@@V?$vector@EV?$allocator@E@std@@@2@X@json_abi_v3_11_2@nlohmann@@@std@@PEAX@1@AEAY0O@$$CBD@Z 00000001400597d0 f i main.obj
 0001:00058870       ??$_Lower_bound_duplicate@$$BY0P@D@?$_Tree@V?$_Tmap_traits@V?$basic_string@DU?$char_traits@D@std@@V?$allocator@D@2@@std@@V?$basic_json@Vmap@std@@Vvector@2@V?$basic_string@DU?$char_traits@D@std@@V?$allocator@D@2@@2@_N_J_KNVallocator@2@Uadl_serializer@json_abi_v3_11_2@nlohmann@@V?$vector@EV?$allocator@E@std@@@2@X@json_abi_v3_11_2@nlohmann@@U?$less@X@2@V?$allocator@U?$pair@$$CBV?$basic_string@DU?$char_traits@D@std@@V?$allocator@D@2@@std@@V?$basic_json@Vmap@std@@Vvector@2@V?$basic_string@DU?$char_traits@D@std@@V?$allocator@D@2@@2@_N_J_KNVallocator@2@Uadl_serializer@json_abi_v3_11_2@nlohmann@@V?$vector@EV?$allocator@E@std@@@2@X@json_abi_v3_11_2@nlohmann@@@std@@@2@$0A@@std@@@std@@IEBA_NQEAU?$_Tree_node@U?$pair@$$CBV?$basic_string@DU?$char_traits@D@std@@V?$allocator@D@2@@std@@V?$basic_json@Vmap@std@@Vvector@2@V?$basic_string@DU?$char_traits@D@std@@V?$allocator@D@2@@2@_N_J_KNVallocator@2@Uadl_serializer@json_abi_v3_11_2@nlohmann@@V?$vector@EV?$allocator@E@std@@@2@X@json_abi_v3_11_2@nlohmann@@@std@@PEAX@1@AEAY0P@$$CBD@Z 0000000140059870 f i main.obj
 0001:00058910       ??$_Lower_bound_duplicate@V?$basic_string@DU?$char_traits@D@std@@V?$allocator@D@2@@std@@@?$_Tree@V?$_Tmap_traits@V?$basic_string@DU?$char_traits@D@std@@V?$allocator@D@2@@std@@PEAUmat4@@U?$less@V?$basic_string@DU?$char_traits@D@std@@V?$allocator@D@2@@std@@@2@V?$allocator@U?$pair@$$CBV?$basic_string@DU?$char_traits@D@std@@V?$allocator@D@2@@std@@PEAUmat4@@@std@@@2@$0A@@std@@@std@@IEBA_NQEAU?$_Tree_node@U?$pair@$$CBV?$basic_string@DU?$char_traits@D@std@@V?$allocator@D@2@@std@@PEAUmat4@@@std@@PEAX@1@AEBV?$basic_string@DU?$char_traits@D@std@@V?$allocator@D@2@@1@@Z 0000000140059910 f i main.obj
 0001:000589b0       ??$_Lower_bound_duplicate@V?$basic_string@DU?$char_traits@D@std@@V?$allocator@D@2@@std@@@?$_Tree@V?$_Tmap_traits@V?$basic_string@DU?$char_traits@D@std@@V?$allocator@D@2@@std@@V?$basic_json@Vmap@std@@Vvector@2@V?$basic_string@DU?$char_traits@D@std@@V?$allocator@D@2@@2@_N_J_KNVallocator@2@Uadl_serializer@json_abi_v3_11_2@nlohmann@@V?$vector@EV?$allocator@E@std@@@2@X@json_abi_v3_11_2@nlohmann@@U?$less@X@2@V?$allocator@U?$pair@$$CBV?$basic_string@DU?$char_traits@D@std@@V?$allocator@D@2@@std@@V?$basic_json@Vmap@std@@Vvector@2@V?$basic_string@DU?$char_traits@D@std@@V?$allocator@D@2@@2@_N_J_KNVallocator@2@Uadl_serializer@json_abi_v3_11_2@nlohmann@@V?$vector@EV?$allocator@E@std@@@2@X@json_abi_v3_11_2@nlohmann@@@std@@@2@$0A@@std@@@std@@IEBA_NQEAU?$_Tree_node@U?$pair@$$CBV?$basic_string@DU?$char_traits@D@std@@V?$allocator@D@2@@std@@V?$basic_json@Vmap@std@@Vvector@2@V?$basic_string@DU?$char_traits@D@std@@V?$allocator@D@2@@2@_N_J_KNVallocator@2@Uadl_serializer@json_abi_v3_11_2@nlohmann@@V?$vector@EV?$allocator@E@std@@@2@X@json_abi_v3_11_2@nlohmann@@@std@@PEAX@1@AEBV?$basic_string@DU?$char_traits@D@std@@V?$allocator@D@2@@1@@Z 00000001400599b0 f i main.obj
 0001:00058a50       ??$_Lower_bound_duplicate@V?$basic_string@DU?$char_traits@D@std@@V?$allocator@D@2@@std@@@?$_Tree@V?$_Tmap_traits@V?$basic_string@DU?$char_traits@D@std@@V?$allocator@D@2@@std@@V?$weak_ptr@VImage@@@2@U?$less@V?$basic_string@DU?$char_traits@D@std@@V?$allocator@D@2@@std@@@2@V?$allocator@U?$pair@$$CBV?$basic_string@DU?$char_traits@D@std@@V?$allocator@D@2@@std@@V?$weak_ptr@VImage@@@2@@std@@@2@$0A@@std@@@std@@IEBA_NQEAU?$_Tree_node@U?$pair@$$CBV?$basic_string@DU?$char_traits@D@std@@V?$allocator@D@2@@std@@V?$weak_ptr@VImage@@@2@@std@@PEAX@1@AEBV?$basic_string@DU?$char_traits@D@std@@V?$allocator@D@2@@1@@Z 0000000140059a50 f i main.obj
 0001:00058af0       ??$_Lower_bound_duplicate@V?$basic_string@DU?$char_traits@D@std@@V?$allocator@D@2@@std@@@?$_Tree@V?$_Tmap_traits@V?$basic_string@DU?$char_traits@D@std@@V?$allocator@D@2@@std@@V?$weak_ptr@VScenes@@@2@U?$less@V?$basic_string@DU?$char_traits@D@std@@V?$allocator@D@2@@std@@@2@V?$allocator@U?$pair@$$CBV?$basic_string@DU?$char_traits@D@std@@V?$allocator@D@2@@std@@V?$weak_ptr@VScenes@@@2@@std@@@2@$0A@@std@@@std@@IEBA_NQEAU?$_Tree_node@U?$pair@$$CBV?$basic_string@DU?$char_traits@D@std@@V?$allocator@D@2@@std@@V?$weak_ptr@VScenes@@@2@@std@@PEAX@1@AEBV?$basic_string@DU?$char_traits@D@std@@V?$allocator@D@2@@1@@Z 0000000140059af0 f i main.obj
 0001:00058b90       ??$_Lower_bound_duplicate@V?$basic_string@DU?$char_traits@D@std@@V?$allocator@D@2@@std@@@?$_Tree@V?$_Tmap_traits@V?$basic_string@DU?$char_traits@D@std@@V?$allocator@D@2@@std@@V?$weak_ptr@VShader@@@2@U?$less@V?$basic_string@DU?$char_traits@D@std@@V?$allocator@D@2@@std@@@2@V?$allocator@U?$pair@$$CBV?$basic_string@DU?$char_traits@D@std@@V?$allocator@D@2@@std@@V?$weak_ptr@VShader@@@2@@std@@@2@$0A@@std@@@std@@IEBA_NQEAU?$_Tree_node@U?$pair@$$CBV?$basic_string@DU?$char_traits@D@std@@V?$allocator@D@2@@std@@V?$weak_ptr@VShader@@@2@@std@@PEAX@1@AEBV?$basic_string@DU?$char_traits@D@std@@V?$allocator@D@2@@1@@Z 0000000140059b90 f i main.obj
 0001:00058c30       ??$_Lower_bound_duplicate@V?$basic_string@DU?$char_traits@D@std@@V?$allocator@D@2@@std@@@?$_Tree@V?$_Tmap_traits@V?$basic_string@DU?$char_traits@D@std@@V?$allocator@D@2@@std@@V?$weak_ptr@VTexture2D@@@2@U?$less@V?$basic_string@DU?$char_traits@D@std@@V?$allocator@D@2@@std@@@2@V?$allocator@U?$pair@$$CBV?$basic_string@DU?$char_traits@D@std@@V?$allocator@D@2@@std@@V?$weak_ptr@VTexture2D@@@2@@std@@@2@$0A@@std@@@std@@IEBA_NQEAU?$_Tree_node@U?$pair@$$CBV?$basic_string@DU?$char_traits@D@std@@V?$allocator@D@2@@std@@V?$weak_ptr@VTexture2D@@@2@@std@@PEAX@1@AEBV?$basic_string@DU?$char_traits@D@std@@V?$allocator@D@2@@1@@Z 0000000140059c30 f i main.obj
 0001:00058cd0       ??$_Maklocstr@D@std@@YAPEADPEBDPEADAEBU_Cvtvec@@@Z 0000000140059cd0 f i main.obj
 0001:00058da0       ??$_Maklocstr@_W@std@@YAPEA_WPEBDPEA_WAEBU_Cvtvec@@@Z 0000000140059da0 f i main.obj
 0001:00058f70       ?skip_bom@?$lexer@V?$basic_json@Vmap@std@@Vvector@2@V?$basic_string@DU?$char_traits@D@std@@V?$allocator@D@2@@2@_N_J_KNVallocator@2@Uadl_serializer@json_abi_v3_11_2@nlohmann@@V?$vector@EV?$allocator@E@std@@@2@X@json_abi_v3_11_2@nlohmann@@Vinput_stream_adapter@detail@23@@detail@json_abi_v3_11_2@nlohmann@@QEAA_NXZ 0000000140059f70 f i main.obj
 0001:00058fe0       ??$_Move_construct_from@VAnimation@@@?$_Ptr_base@VAnimation@@@std@@IEAAX$$QEAV01@@Z 0000000140059fe0 f i main.obj
 0001:00059040       ??$_Move_construct_from@VImage@@@?$_Ptr_base@VImage@@@std@@IEAAX$$QEAV01@@Z 000000014005a040 f i main.obj
 0001:000590a0       ??$_Move_construct_from@VMaterial@@@?$_Ptr_base@VMaterial@@@std@@IEAAX$$QEAV01@@Z 000000014005a0a0 f i main.obj
 0001:00059100       ??$_Move_construct_from@VMesh@@@?$_Ptr_base@VMesh@@@std@@IEAAX$$QEAV01@@Z 000000014005a100 f i main.obj
 0001:00059160       ??$_Move_construct_from@VScenes@@@?$_Ptr_base@VScenes@@@std@@IEAAX$$QEAV01@@Z 000000014005a160 f i main.obj
 0001:000591c0       ??$_Move_construct_from@VShader@@@?$_Ptr_base@VShader@@@std@@IEAAX$$QEAV01@@Z 000000014005a1c0 f i main.obj
 0001:00059220       ??$_Move_construct_from@VSkin@@@?$_Ptr_base@VSkin@@@std@@IEAAX$$QEAV01@@Z 000000014005a220 f i main.obj
 0001:00059280       ??$_Move_construct_from@VTexture2D@@@?$_Ptr_base@VTexture2D@@@std@@IEAAX$$QEAV01@@Z 000000014005a280 f i main.obj
 0001:000592e0       ??$_Move_unchecked@PEAIPEAI@std@@YAPEAIPEAI00@Z 000000014005a2e0 f i main.obj
 0001:00059380       ??$_Move_unchecked@PEAV?$basic_json@Vmap@std@@Vvector@2@V?$basic_string@DU?$char_traits@D@std@@V?$allocator@D@2@@2@_N_J_KNVallocator@2@Uadl_serializer@json_abi_v3_11_2@nlohmann@@V?$vector@EV?$allocator@E@std@@@2@X@json_abi_v3_11_2@nlohmann@@PEAV123@@std@@YAPEAV?$basic_json@Vmap@std@@Vvector@2@V?$basic_string@DU?$char_traits@D@std@@V?$allocator@D@2@@2@_N_J_KNVallocator@2@Uadl_serializer@json_abi_v3_11_2@nlohmann@@V?$vector@EV?$allocator@E@std@@@2@X@json_abi_v3_11_2@nlohmann@@PEAV123@00@Z 000000014005a380 f i main.obj
 0001:00059420       ??$_Move_unchecked@PEAV?$basic_json@Vmap@std@@Vvector@2@V?$basic_string@DU?$char_traits@D@std@@V?$allocator@D@2@@2@_N_J_KNVallocator@2@Uadl_serializer@json_abi_v3_11_2@nlohmann@@V?$vector@EV?$allocator@E@std@@@2@X@json_abi_v3_11_2@nlohmann@@V?$back_insert_iterator@V?$vector@V?$basic_json@Vmap@std@@Vvector@2@V?$basic_string@DU?$char_traits@D@std@@V?$allocator@D@2@@2@_N_J_KNVallocator@2@Uadl_serializer@json_abi_v3_11_2@nlohmann@@V?$vector@EV?$allocator@E@std@@@2@X@json_abi_v3_11_2@nlohmann@@V?$allocator@V?$basic_json@Vmap@std@@Vvector@2@V?$basic_string@DU?$char_traits@D@std@@V?$allocator@D@2@@2@_N_J_KNVallocator@2@Uadl_serializer@json_abi_v3_11_2@nlohmann@@V?$vector@EV?$allocator@E@std@@@2@X@json_abi_v3_11_2@nlohmann@@@std@@@std@@@std@@@std@@YA?AV?$back_insert_iterator@V?$vector@V?$basic_json@Vmap@std@@Vvector@2@V?$basic_string@DU?$char_traits@D@std@@V?$allocator@D@2@@2@_N_J_KNVallocator@2@Uadl_serializer@json_abi_v3_11_2@nlohmann@@V?$vector@EV?$allocator@E@std@@@2@X@json_abi_v3_11_2@nlohmann@@V?$allocator@V?$basic_json@Vmap@std@@Vvector@2@V?$basic_string@DU?$char_traits@D@std@@V?$allocator@D@2@@2@_N_J_KNVallocator@2@Uadl_serializer@json_abi_v3_11_2@nlohmann@@V?$vector@EV?$allocator@E@std@@@2@X@json_abi_v3_11_2@nlohmann@@@std@@@std@@@0@PEAV?$basic_json@Vmap@std@@Vvector@2@V?$basic_string@DU?$char_traits@D@std@@V?$allocator@D@2@@2@_N_J_KNVallocator@2@Uadl_serializer@json_abi_v3_11_2@nlohmann@@V?$vector@EV?$allocator@E@std@@@2@X@json_abi_v3_11_2@nlohmann@@0V10@@Z 000000014005a420 f i main.obj
 0001:000594b0       ??$_Next_iter@V?$_Vb_iterator@U?$_Wrap_alloc@V?$allocator@I@std@@@std@@@std@@@std@@YA?AV?$_Vb_iterator@U?$_Wrap_alloc@V?$allocator@I@std@@@std@@@0@V10@@Z 000000014005a4b0 f i main.obj
 0001:00059500       ??$_Pocca@V?$allocator@D@std@@@std@@YAXAEAV?$allocator@D@0@AEBV10@@Z 000000014005a500 f i main.obj
 0001:00059510       ??$_Pocca@V?$allocator@H@std@@@std@@YAXAEAV?$allocator@H@0@AEBV10@@Z 000000014005a510 f i main.obj
 0001:00059520       ??$_Pocma@V?$allocator@D@std@@@std@@YAXAEAV?$allocator@D@0@0@Z 000000014005a520 f i main.obj
 0001:00059530       ??$_Pocma@V?$allocator@I@std@@@std@@YAXAEAV?$allocator@I@0@0@Z 000000014005a530 f i main.obj
 0001:00059540       ??$_Reallocate_for@V<lambda_1>@?1??assign@?$basic_string@DU?$char_traits@D@std@@V?$allocator@D@2@@std@@QEAAAEAV34@QEBD_K@Z@PEBD@?$basic_string@DU?$char_traits@D@std@@V?$allocator@D@2@@std@@AEAAAEAV01@_KV<lambda_1>@?1??assign@01@QEAAAEAV01@QEBD0@Z@PEBD@Z 000000014005a540 f i main.obj
 0001:000596e0       ??$_Reallocate_grow_by@V<lambda_1>@?1??append@?$basic_string@DU?$char_traits@D@std@@V?$allocator@D@2@@std@@QEAAAEAV34@QEBD_K@Z@PEBD_K@?$basic_string@DU?$char_traits@D@std@@V?$allocator@D@2@@std@@AEAAAEAV01@_KV<lambda_1>@?1??append@01@QEAAAEAV01@QEBD0@Z@PEBD_K@Z 000000014005a6e0 f i main.obj
 0001:000598f0       vsnprintf                  000000014005a8f0 f i main.obj
 0001:00059970       ??$_Reallocate_grow_by@V<lambda_1>@?1??append@?$basic_string@DU?$char_traits@D@std@@V?$allocator@D@2@@std@@QEAAAEAV34@_KD@Z@_KD@?$basic_string@DU?$char_traits@D@std@@V?$allocator@D@2@@std@@AEAAAEAV01@_KV<lambda_1>@?1??append@01@QEAAAEAV01@0D@Z@_KD@Z 000000014005a970 f i main.obj
 0001:00059bf0       ??$_Reallocate_grow_by@V<lambda_1>@?1??append@?$basic_string@_WU?$char_traits@_W@std@@V?$allocator@_W@2@@std@@QEAAAEAV34@_K_W@Z@_K_W@?$basic_string@_WU?$char_traits@_W@std@@V?$allocator@_W@2@@std@@AEAAAEAV01@_KV<lambda_1>@?1??append@01@QEAAAEAV01@0_W@Z@_K_W@Z 000000014005abf0 f i main.obj
 0001:00059e80       ??$_Reallocate_grow_by@V<lambda_1>@?1??push_back@?$basic_string@DU?$char_traits@D@std@@V?$allocator@D@2@@std@@QEAAXD@Z@D@?$basic_string@DU?$char_traits@D@std@@V?$allocator@D@2@@std@@AEAAAEAV01@_KV<lambda_1>@?1??push_back@01@QEAAXD@Z@D@Z 000000014005ae80 f i main.obj
 0001:0005a0e0       ??$_Reallocate_grow_by@V<lambda_1>@?1??reserve@?$basic_string@DU?$char_traits@D@std@@V?$allocator@D@2@@std@@QEAAX_K@Z@$$V@?$basic_string@DU?$char_traits@D@std@@V?$allocator@D@2@@std@@AEAAAEAV01@_KV<lambda_1>@?1??reserve@01@QEAAX0@Z@@Z 000000014005b0e0 f i main.obj
 0001:0005a320       ??$_Refancy@PEAU?$pair@V?$basic_string@DU?$char_traits@D@std@@V?$allocator@D@2@@std@@H@std@@$0A@@std@@YAPEAU?$pair@V?$basic_string@DU?$char_traits@D@std@@V?$allocator@D@2@@std@@H@0@PEAU10@@Z 000000014005b320 f i main.obj
 0001:0005a330       ??$_Resize@I@?$vector@IV?$allocator@I@std@@@std@@AEAAX_KAEBI@Z 000000014005b330 f i main.obj
 0001:0005a500       ??$_Resize@U_Value_init_tag@std@@@?$vector@GV?$allocator@G@std@@@std@@AEAAX_KAEBU_Value_init_tag@1@@Z 000000014005b500 f i main.obj
 0001:0005a6c0       ??$_Resize@U_Value_init_tag@std@@@?$vector@HV?$allocator@H@std@@@std@@AEAAX_KAEBU_Value_init_tag@1@@Z 000000014005b6c0 f i main.obj
 0001:0005a880       ??$_Resize@U_Value_init_tag@std@@@?$vector@IV?$allocator@I@std@@@std@@AEAAX_KAEBU_Value_init_tag@1@@Z 000000014005b880 f i main.obj
 0001:0005aa40       ??$_Resize@U_Value_init_tag@std@@@?$vector@MV?$allocator@M@std@@@std@@AEAAX_KAEBU_Value_init_tag@1@@Z 000000014005ba40 f i main.obj
 0001:0005ac00       ??$_Resize@U_Value_init_tag@std@@@?$vector@PEAVActor@@V?$allocator@PEAVActor@@@std@@@std@@AEAAX_KAEBU_Value_init_tag@1@@Z 000000014005bc00 f i main.obj
 0001:0005adc0       ??$_Resize@U_Value_init_tag@std@@@?$vector@PEAVSkinInstance@@V?$allocator@PEAVSkinInstance@@@std@@@std@@AEAAX_KAEBU_Value_init_tag@1@@Z 000000014005bdc0 f i main.obj
 0001:0005af80       ??$_Resize@U_Value_init_tag@std@@@?$vector@U?$quatt@M@@V?$allocator@U?$quatt@M@@@std@@@std@@AEAAX_KAEBU_Value_init_tag@1@@Z 000000014005bf80 f i main.obj
 0001:0005b140       ??$_Resize@U_Value_init_tag@std@@@?$vector@U?$vec2t@M@@V?$allocator@U?$vec2t@M@@@std@@@std@@AEAAX_KAEBU_Value_init_tag@1@@Z 000000014005c140 f i main.obj
 0001:0005b300       ??$_Resize@U_Value_init_tag@std@@@?$vector@U?$vec3t@M@@V?$allocator@U?$vec3t@M@@@std@@@std@@AEAAX_KAEBU_Value_init_tag@1@@Z 000000014005c300 f i main.obj
 0001:0005b4d0       ??$_Resize@U_Value_init_tag@std@@@?$vector@Umat4@@V?$allocator@Umat4@@@std@@@std@@AEAAX_KAEBU_Value_init_tag@1@@Z 000000014005c4d0 f i main.obj
 0001:0005b690       ??$_Resize@U_Value_init_tag@std@@@?$vector@V?$shared_ptr@VAnimation@@@std@@V?$allocator@V?$shared_ptr@VAnimation@@@std@@@2@@std@@AEAAX_KAEBU_Value_init_tag@1@@Z 000000014005c690 f i main.obj
 0001:0005b850       ??$_Resize@U_Value_init_tag@std@@@?$vector@V?$shared_ptr@VMaterial@@@std@@V?$allocator@V?$shared_ptr@VMaterial@@@std@@@2@@std@@AEAAX_KAEBU_Value_init_tag@1@@Z 000000014005c850 f i main.obj
 0001:0005ba10       ??$_Resize@U_Value_init_tag@std@@@?$vector@V?$shared_ptr@VMesh@@@std@@V?$allocator@V?$shared_ptr@VMesh@@@std@@@2@@std@@AEAAX_KAEBU_Value_init_tag@1@@Z 000000014005ca10 f i main.obj
 0001:0005bbd0       ??$_Resize@U_Value_init_tag@std@@@?$vector@V?$shared_ptr@VSkin@@@std@@V?$allocator@V?$shared_ptr@VSkin@@@std@@@2@@std@@AEAAX_KAEBU_Value_init_tag@1@@Z 000000014005cbd0 f i main.obj
 0001:0005bd90       ??$_Resize@U_Value_init_tag@std@@@?$vector@V?$shared_ptr@VTexture2D@@@std@@V?$allocator@V?$shared_ptr@VTexture2D@@@std@@@2@@std@@AEAAX_KAEBU_Value_init_tag@1@@Z 000000014005cd90 f i main.obj
 0001:0005bf50       ??$_Resize@U_Value_init_tag@std@@@?$vector@VAnimationChannel@@V?$allocator@VAnimationChannel@@@std@@@std@@AEAAX_KAEBU_Value_init_tag@1@@Z 000000014005cf50 f i main.obj
 0001:0005c110       ??$_Resize@U_Value_init_tag@std@@@?$vector@VAnimationInstance@@V?$allocator@VAnimationInstance@@@std@@@std@@AEAAX_KAEBU_Value_init_tag@1@@Z 000000014005d110 f i main.obj
 0001:0005c2d0       ??$_Resize@U_Value_init_tag@std@@@?$vector@VAnimationSampler@@V?$allocator@VAnimationSampler@@@std@@@std@@AEAAX_KAEBU_Value_init_tag@1@@Z 000000014005d2d0 f i main.obj
 0001:0005c4a0       ??$_Resize@U_Value_init_tag@std@@@?$vector@VMeshPrimitive@@V?$allocator@VMeshPrimitive@@@std@@@std@@AEAAX_KAEBU_Value_init_tag@1@@Z 000000014005d4a0 f i main.obj
 0001:0005c670       ??$_Resize@U_Value_init_tag@std@@@?$vector@VScene@@V?$allocator@VScene@@@std@@@std@@AEAAX_KAEBU_Value_init_tag@1@@Z 000000014005d670 f i main.obj
 0001:0005c840       ??$_Resize@U_Value_init_tag@std@@@?$vector@VSceneNode@@V?$allocator@VSceneNode@@@std@@@std@@AEAAX_KAEBU_Value_init_tag@1@@Z 000000014005d840 f i main.obj
 0001:0005ca10       ??$_Resize_reallocate@I@?$vector@IV?$allocator@I@std@@@std@@AEAAX_KAEBI@Z 000000014005da10 f i main.obj
 0001:0005cbc0       ??$_Resize_reallocate@U_Value_init_tag@std@@@?$vector@GV?$allocator@G@std@@@std@@AEAAX_KAEBU_Value_init_tag@1@@Z 000000014005dbc0 f i main.obj
 0001:0005cd60       ??$_Resize_reallocate@U_Value_init_tag@std@@@?$vector@HV?$allocator@H@std@@@std@@AEAAX_KAEBU_Value_init_tag@1@@Z 000000014005dd60 f i main.obj
 0001:0005cf00       ??$_Resize_reallocate@U_Value_init_tag@std@@@?$vector@IV?$allocator@I@std@@@std@@AEAAX_KAEBU_Value_init_tag@1@@Z 000000014005df00 f i main.obj
 0001:0005d0a0       ??$_Resize_reallocate@U_Value_init_tag@std@@@?$vector@MV?$allocator@M@std@@@std@@AEAAX_KAEBU_Value_init_tag@1@@Z 000000014005e0a0 f i main.obj
 0001:0005d240       ??$_Resize_reallocate@U_Value_init_tag@std@@@?$vector@PEAVActor@@V?$allocator@PEAVActor@@@std@@@std@@AEAAX_KAEBU_Value_init_tag@1@@Z 000000014005e240 f i main.obj
 0001:0005d3e0       ??$_Resize_reallocate@U_Value_init_tag@std@@@?$vector@PEAVSkinInstance@@V?$allocator@PEAVSkinInstance@@@std@@@std@@AEAAX_KAEBU_Value_init_tag@1@@Z 000000014005e3e0 f i main.obj
 0001:0005d580       ??$_Resize_reallocate@U_Value_init_tag@std@@@?$vector@U?$quatt@M@@V?$allocator@U?$quatt@M@@@std@@@std@@AEAAX_KAEBU_Value_init_tag@1@@Z 000000014005e580 f i main.obj
 0001:0005d720       ??$_Resize_reallocate@U_Value_init_tag@std@@@?$vector@U?$vec2t@M@@V?$allocator@U?$vec2t@M@@@std@@@std@@AEAAX_KAEBU_Value_init_tag@1@@Z 000000014005e720 f i main.obj
 0001:0005d8c0       ??$_Resize_reallocate@U_Value_init_tag@std@@@?$vector@U?$vec3t@M@@V?$allocator@U?$vec3t@M@@@std@@@std@@AEAAX_KAEBU_Value_init_tag@1@@Z 000000014005e8c0 f i main.obj
 0001:0005da70       ??$_Resize_reallocate@U_Value_init_tag@std@@@?$vector@Umat4@@V?$allocator@Umat4@@@std@@@std@@AEAAX_KAEBU_Value_init_tag@1@@Z 000000014005ea70 f i main.obj
 0001:0005dc10       ??$_Resize_reallocate@U_Value_init_tag@std@@@?$vector@V?$shared_ptr@VAnimation@@@std@@V?$allocator@V?$shared_ptr@VAnimation@@@std@@@2@@std@@AEAAX_KAEBU_Value_init_tag@1@@Z 000000014005ec10 f i main.obj
 0001:0005ddb0       ??$_Resize_reallocate@U_Value_init_tag@std@@@?$vector@V?$shared_ptr@VMaterial@@@std@@V?$allocator@V?$shared_ptr@VMaterial@@@std@@@2@@std@@AEAAX_KAEBU_Value_init_tag@1@@Z 000000014005edb0 f i main.obj
 0001:0005df50       ??$_Resize_reallocate@U_Value_init_tag@std@@@?$vector@V?$shared_ptr@VMesh@@@std@@V?$allocator@V?$shared_ptr@VMesh@@@std@@@2@@std@@AEAAX_KAEBU_Value_init_tag@1@@Z 000000014005ef50 f i main.obj
 0001:0005e0f0       ??$_Resize_reallocate@U_Value_init_tag@std@@@?$vector@V?$shared_ptr@VSkin@@@std@@V?$allocator@V?$shared_ptr@VSkin@@@std@@@2@@std@@AEAAX_KAEBU_Value_init_tag@1@@Z 000000014005f0f0 f i main.obj
 0001:0005e290       ??$_Resize_reallocate@U_Value_init_tag@std@@@?$vector@V?$shared_ptr@VTexture2D@@@std@@V?$allocator@V?$shared_ptr@VTexture2D@@@std@@@2@@std@@AEAAX_KAEBU_Value_init_tag@1@@Z 000000014005f290 f i main.obj
 0001:0005e430       ??$_Resize_reallocate@U_Value_init_tag@std@@@?$vector@VAnimationChannel@@V?$allocator@VAnimationChannel@@@std@@@std@@AEAAX_KAEBU_Value_init_tag@1@@Z 000000014005f430 f i main.obj
 0001:0005e5d0       ??$_Resize_reallocate@U_Value_init_tag@std@@@?$vector@VAnimationInstance@@V?$allocator@VAnimationInstance@@@std@@@std@@AEAAX_KAEBU_Value_init_tag@1@@Z 000000014005f5d0 f i main.obj
 0001:0005e770       ??$_Resize_reallocate@U_Value_init_tag@std@@@?$vector@VAnimationSampler@@V?$allocator@VAnimationSampler@@@std@@@std@@AEAAX_KAEBU_Value_init_tag@1@@Z 000000014005f770 f i main.obj
 0001:0005e920       ??$_Resize_reallocate@U_Value_init_tag@std@@@?$vector@VMeshPrimitive@@V?$allocator@VMeshPrimitive@@@std@@@std@@AEAAX_KAEBU_Value_init_tag@1@@Z 000000014005f920 f i main.obj
 0001:0005ead0       ??$_Resize_reallocate@U_Value_init_tag@std@@@?$vector@VScene@@V?$allocator@VScene@@@std@@@std@@AEAAX_KAEBU_Value_init_tag@1@@Z 000000014005fad0 f i main.obj
 0001:0005ec80       ??$_Resize_reallocate@U_Value_init_tag@std@@@?$vector@VSceneNode@@V?$allocator@VSceneNode@@@std@@@std@@AEAAX_KAEBU_Value_init_tag@1@@Z 000000014005fc80 f i main.obj
 0001:0005ee30       ??$_Seek_wrapped@V?$_Tree_iterator@V?$_Tree_val@U?$_Tree_simple_types@U?$pair@$$CBV?$basic_string@DU?$char_traits@D@std@@V?$allocator@D@2@@std@@V?$basic_json@Vmap@std@@Vvector@2@V?$basic_string@DU?$char_traits@D@std@@V?$allocator@D@2@@2@_N_J_KNVallocator@2@Uadl_serializer@json_abi_v3_11_2@nlohmann@@V?$vector@EV?$allocator@E@std@@@2@X@json_abi_v3_11_2@nlohmann@@@std@@@std@@@std@@@std@@V?$_Tree_unchecked_iterator@V?$_Tree_val@U?$_Tree_simple_types@U?$pair@$$CBV?$basic_string@DU?$char_traits@D@std@@V?$allocator@D@2@@std@@V?$basic_json@Vmap@std@@Vvector@2@V?$basic_string@DU?$char_traits@D@std@@V?$allocator@D@2@@2@_N_J_KNVallocator@2@Uadl_serializer@json_abi_v3_11_2@nlohmann@@V?$vector@EV?$allocator@E@std@@@2@X@json_abi_v3_11_2@nlohmann@@@std@@@std@@@std@@@2@@std@@YAXAEAV?$_Tree_iterator@V?$_Tree_val@U?$_Tree_simple_types@U?$pair@$$CBV?$basic_string@DU?$char_traits@D@std@@V?$allocator@D@2@@std@@V?$basic_json@Vmap@std@@Vvector@2@V?$basic_string@DU?$char_traits@D@std@@V?$allocator@D@2@@2@_N_J_KNVallocator@2@Uadl_serializer@json_abi_v3_11_2@nlohmann@@V?$vector@EV?$allocator@E@std@@@2@X@json_abi_v3_11_2@nlohmann@@@std@@@std@@@std@@@0@$$QEAV?$_Tree_unchecked_iterator@V?$_Tree_val@U?$_Tree_simple_types@U?$pair@$$CBV?$basic_string@DU?$char_traits@D@std@@V?$allocator@D@2@@std@@V?$basic_json@Vmap@std@@Vvector@2@V?$basic_string@DU?$char_traits@D@std@@V?$allocator@D@2@@2@_N_J_KNVallocator@2@Uadl_serializer@json_abi_v3_11_2@nlohmann@@V?$vector@EV?$allocator@E@std@@@2@X@json_abi_v3_11_2@nlohmann@@@std@@@std@@@std@@@0@@Z 000000014005fe30 f i main.obj
 0001:0005ee70       ??$_Seek_wrapped@V?$_Vb_iterator@U?$_Wrap_alloc@V?$allocator@I@std@@@std@@@std@@V12@@std@@YAXAEAV?$_Vb_iterator@U?$_Wrap_alloc@V?$allocator@I@std@@@std@@@0@$$QEAV10@@Z 000000014005fe70 f i main.obj
 0001:0005eea0       ??$_Seek_wrapped@V?$_Vector_const_iterator@V?$_Vector_val@U?$_Simple_types@U?$pair@V?$basic_string@DU?$char_traits@D@std@@V?$allocator@D@2@@std@@H@std@@@std@@@std@@@std@@AEAPEBU?$pair@V?$basic_string@DU?$char_traits@D@std@@V?$allocator@D@2@@std@@H@2@@std@@YAXAEAV?$_Vector_const_iterator@V?$_Vector_val@U?$_Simple_types@U?$pair@V?$basic_string@DU?$char_traits@D@std@@V?$allocator@D@2@@std@@H@std@@@std@@@std@@@0@AEAPEBU?$pair@V?$basic_string@DU?$char_traits@D@std@@V?$allocator@D@2@@std@@H@0@@Z 000000014005fea0 f i main.obj
 0001:0005eed0       ??$_Seek_wrapped@V?$back_insert_iterator@V?$vector@V?$basic_json@Vmap@std@@Vvector@2@V?$basic_string@DU?$char_traits@D@std@@V?$allocator@D@2@@2@_N_J_KNVallocator@2@Uadl_serializer@json_abi_v3_11_2@nlohmann@@V?$vector@EV?$allocator@E@std@@@2@X@json_abi_v3_11_2@nlohmann@@V?$allocator@V?$basic_json@Vmap@std@@Vvector@2@V?$basic_string@DU?$char_traits@D@std@@V?$allocator@D@2@@2@_N_J_KNVallocator@2@Uadl_serializer@json_abi_v3_11_2@nlohmann@@V?$vector@EV?$allocator@E@std@@@2@X@json_abi_v3_11_2@nlohmann@@@std@@@std@@@std@@V12@@std@@YAXAEAV?$back_insert_iterator@V?$vector@V?$basic_json@Vmap@std@@Vvector@2@V?$basic_string@DU?$char_traits@D@std@@V?$allocator@D@2@@2@_N_J_KNVallocator@2@Uadl_serializer@json_abi_v3_11_2@nlohmann@@V?$vector@EV?$allocator@E@std@@@2@X@json_abi_v3_11_2@nlohmann@@V?$allocator@V?$basic_json@Vmap@std@@Vvector@2@V?$basic_string@DU?$char_traits@D@std@@V?$allocator@D@2@@2@_N_J_KNVallocator@2@Uadl_serializer@json_abi_v3_11_2@nlohmann@@V?$vector@EV?$allocator@E@std@@@2@X@json_abi_v3_11_2@nlohmann@@@std@@@std@@@0@$$QEAV10@@Z 000000014005fed0 f i main.obj
 0001:0005ef00       ??$_Set_ptr_rep_and_enable_shared@VAnimation@@@?$shared_ptr@VAnimation@@@std@@AEAAXQEAVAnimation@@QEAV_Ref_count_base@1@@Z 000000014005ff00 f i main.obj
 0001:0005ef40       ??$_Set_ptr_rep_and_enable_shared@VImage@@@?$shared_ptr@VImage@@@std@@AEAAXQEAVImage@@QEAV_Ref_count_base@1@@Z 000000014005ff40 f i main.obj
 0001:0005ef80       ??$_Set_ptr_rep_and_enable_shared@VMaterial@@@?$shared_ptr@VMaterial@@@std@@AEAAXQEAVMaterial@@QEAV_Ref_count_base@1@@Z 000000014005ff80 f i main.obj
 0001:0005efc0       ??$_Set_ptr_rep_and_enable_shared@VMesh@@@?$shared_ptr@VMesh@@@std@@AEAAXQEAVMesh@@QEAV_Ref_count_base@1@@Z 000000014005ffc0 f i main.obj
 0001:0005f000       ??$_Set_ptr_rep_and_enable_shared@VScenes@@@?$shared_ptr@VScenes@@@std@@AEAAXQEAVScenes@@QEAV_Ref_count_base@1@@Z 0000000140060000 f i main.obj
 0001:0005f040       ??$_Set_ptr_rep_and_enable_shared@VShader@@@?$shared_ptr@VShader@@@std@@AEAAXQEAVShader@@QEAV_Ref_count_base@1@@Z 0000000140060040 f i main.obj
 0001:0005f080       ??$_Set_ptr_rep_and_enable_shared@VSkin@@@?$shared_ptr@VSkin@@@std@@AEAAXQEAVSkin@@QEAV_Ref_count_base@1@@Z 0000000140060080 f i main.obj
 0001:0005f0c0       ??$_Set_ptr_rep_and_enable_shared@VTexture2D@@@?$shared_ptr@VTexture2D@@@std@@AEAAXQEAVTexture2D@@QEAV_Ref_count_base@1@@Z 00000001400600c0 f i main.obj
 0001:0005f100       ??$_Stringoid_from_Source@$$BY06D@filesystem@std@@YA?A_PAEAY06$$CBD@Z 0000000140060100 f i main.obj
 0001:0005f140       ??$_To_address@PEAD@std@@YA?A_PAEBQEAD@Z 0000000140060140 f i main.obj
 0001:0005f170       ??$_To_address@PEAE@std@@YA?A_PAEBQEAE@Z 0000000140060170 f i main.obj
 0001:0005f1a0       ??$_To_address@PEAG@std@@YA?A_PAEBQEAG@Z 00000001400601a0 f i main.obj
 0001:0005f1d0       ??$_To_address@PEAH@std@@YA?A_PAEBQEAH@Z 00000001400601d0 f i main.obj
 0001:0005f200       ??$_To_address@PEAI@std@@YA?A_PAEBQEAI@Z 0000000140060200 f i main.obj
 0001:0005f230       ??$_To_address@PEAM@std@@YA?A_PAEBQEAM@Z 0000000140060230 f i main.obj
 0001:0005f260       ??$_To_address@PEAPEAV?$basic_json@Vmap@std@@Vvector@2@V?$basic_string@DU?$char_traits@D@std@@V?$allocator@D@2@@2@_N_J_KNVallocator@2@Uadl_serializer@json_abi_v3_11_2@nlohmann@@V?$vector@EV?$allocator@E@std@@@2@X@json_abi_v3_11_2@nlohmann@@@std@@YA?A_PAEBQEAPEAV?$basic_json@Vmap@std@@Vvector@2@V?$basic_string@DU?$char_traits@D@std@@V?$allocator@D@2@@2@_N_J_KNVallocator@2@Uadl_serializer@json_abi_v3_11_2@nlohmann@@V?$vector@EV?$allocator@E@std@@@2@X@json_abi_v3_11_2@nlohmann@@@Z 0000000140060260 f i main.obj
 0001:0005f290       ??$_To_address@PEAPEAVActor@@@std@@YA?A_PAEBQEAPEAVActor@@@Z 0000000140060290 f i main.obj
 0001:0005f2c0       ??$_To_address@PEAPEAVAnimationChannel@@@std@@YA?A_PAEBQEAPEAVAnimationChannel@@@Z 00000001400602c0 f i main.obj
 0001:0005f2f0       ??$_To_address@PEAPEAVComponent@@@std@@YA?A_PAEBQEAPEAVComponent@@@Z 00000001400602f0 f i main.obj
 0001:0005f320       ??$_To_address@PEAPEAVNode@@@std@@YA?A_PAEBQEAPEAVNode@@@Z 0000000140060320 f i main.obj
 0001:0005f350       ??$_To_address@PEAPEAVSkinInstance@@@std@@YA?A_PAEBQEAPEAVSkinInstance@@@Z 0000000140060350 f i main.obj
 0001:0005f380       ??$_To_address@PEAU?$quatt@M@@@std@@YA?A_PAEBQEAU?$quatt@M@@@Z 0000000140060380 f i main.obj
 0001:0005f3b0       ??$_To_address@PEAU?$vec2t@M@@@std@@YA?A_PAEBQEAU?$vec2t@M@@@Z 00000001400603b0 f i main.obj
 0001:0005f3e0       ??$_To_address@PEAU?$vec3t@M@@@std@@YA?A_PAEBQEAU?$vec3t@M@@@Z 00000001400603e0 f i main.obj
 0001:0005f410       ??$_To_address@PEAVAnimationChannel@@@std@@YA?A_PAEBQEAVAnimationChannel@@@Z 0000000140060410 f i main.obj
 0001:0005f440       ??$_To_address@PEAVAnimationInstance@@@std@@YA?A_PAEBQEAVAnimationInstance@@@Z 0000000140060440 f i main.obj
 0001:0005f470       ??$_To_address@PEBU?$vec2t@M@@@std@@YA?A_PAEBQEBU?$vec2t@M@@@Z 0000000140060470 f i main.obj
 0001:0005f4a0       ??$_To_address@PEBU?$vec3t@M@@@std@@YA?A_PAEBQEBU?$vec3t@M@@@Z 00000001400604a0 f i main.obj
 0001:0005f4d0       ??$_Traits_compare@U?$char_traits@D@std@@@std@@YAHQEBD_K01@Z 00000001400604d0 f i main.obj
 0001:0005f570       ??$_Traits_equal@U?$char_traits@D@std@@@std@@YA_NQEBD_K01@Z 0000000140060570 f i main.obj
 0001:0005f5e0       ??$_Traits_rfind_ch@U?$char_traits@D@std@@@std@@YA_KQEBD_K1D@Z 00000001400605e0 f i main.obj
 0001:0005f6b0       ??$_Try_emplace@AEBV?$basic_string@DU?$char_traits@D@std@@V?$allocator@D@2@@std@@$$V@?$map@V?$basic_string@DU?$char_traits@D@std@@V?$allocator@D@2@@std@@V?$basic_json@Vmap@std@@Vvector@2@V?$basic_string@DU?$char_traits@D@std@@V?$allocator@D@2@@2@_N_J_KNVallocator@2@Uadl_serializer@json_abi_v3_11_2@nlohmann@@V?$vector@EV?$allocator@E@std@@@2@X@json_abi_v3_11_2@nlohmann@@U?$less@X@2@V?$allocator@U?$pair@$$CBV?$basic_string@DU?$char_traits@D@std@@V?$allocator@D@2@@std@@V?$basic_json@Vmap@std@@Vvector@2@V?$basic_string@DU?$char_traits@D@std@@V?$allocator@D@2@@2@_N_J_KNVallocator@2@Uadl_serializer@json_abi_v3_11_2@nlohmann@@V?$vector@EV?$allocator@E@std@@@2@X@json_abi_v3_11_2@nlohmann@@@std@@@2@@std@@AEAA?AU?$pair@PEAU?$_Tree_node@U?$pair@$$CBV?$basic_string@DU?$char_traits@D@std@@V?$allocator@D@2@@std@@V?$basic_json@Vmap@std@@Vvector@2@V?$basic_string@DU?$char_traits@D@std@@V?$allocator@D@2@@2@_N_J_KNVallocator@2@Uadl_serializer@json_abi_v3_11_2@nlohmann@@V?$vector@EV?$allocator@E@std@@@2@X@json_abi_v3_11_2@nlohmann@@@std@@PEAX@std@@_N@1@AEBV?$basic_string@DU?$char_traits@D@std@@V?$allocator@D@2@@1@@Z 00000001400606b0 f i main.obj
 0001:0005f8c0       ??$_Try_emplace@AEBV?$basic_string@DU?$char_traits@D@std@@V?$allocator@D@2@@std@@$$V@?$map@V?$basic_string@DU?$char_traits@D@std@@V?$allocator@D@2@@std@@V?$weak_ptr@VImage@@@2@U?$less@V?$basic_string@DU?$char_traits@D@std@@V?$allocator@D@2@@std@@@2@V?$allocator@U?$pair@$$CBV?$basic_string@DU?$char_traits@D@std@@V?$allocator@D@2@@std@@V?$weak_ptr@VImage@@@2@@std@@@2@@std@@AEAA?AU?$pair@PEAU?$_Tree_node@U?$pair@$$CBV?$basic_string@DU?$char_traits@D@std@@V?$allocator@D@2@@std@@V?$weak_ptr@VImage@@@2@@std@@PEAX@std@@_N@1@AEBV?$basic_string@DU?$char_traits@D@std@@V?$allocator@D@2@@1@@Z 00000001400608c0 f i main.obj
 0001:0005fad0       ??$_Try_emplace@AEBV?$basic_string@DU?$char_traits@D@std@@V?$allocator@D@2@@std@@$$V@?$map@V?$basic_string@DU?$char_traits@D@std@@V?$allocator@D@2@@std@@V?$weak_ptr@VScenes@@@2@U?$less@V?$basic_string@DU?$char_traits@D@std@@V?$allocator@D@2@@std@@@2@V?$allocator@U?$pair@$$CBV?$basic_string@DU?$char_traits@D@std@@V?$allocator@D@2@@std@@V?$weak_ptr@VScenes@@@2@@std@@@2@@std@@AEAA?AU?$pair@PEAU?$_Tree_node@U?$pair@$$CBV?$basic_string@DU?$char_traits@D@std@@V?$allocator@D@2@@std@@V?$weak_ptr@VScenes@@@2@@std@@PEAX@std@@_N@1@AEBV?$basic_string@DU?$char_traits@D@std@@V?$allocator@D@2@@1@@Z 0000000140060ad0 f i main.obj
 0001:0005fce0       ??$_Try_emplace@AEBV?$basic_string@DU?$char_traits@D@std@@V?$allocator@D@2@@std@@$$V@?$map@V?$basic_string@DU?$char_traits@D@std@@V?$allocator@D@2@@std@@V?$weak_ptr@VShader@@@2@U?$less@V?$basic_string@DU?$char_traits@D@std@@V?$allocator@D@2@@std@@@2@V?$allocator@U?$pair@$$CBV?$basic_string@DU?$char_traits@D@std@@V?$allocator@D@2@@std@@V?$weak_ptr@VShader@@@2@@std@@@2@@std@@AEAA?AU?$pair@PEAU?$_Tree_node@U?$pair@$$CBV?$basic_string@DU?$char_traits@D@std@@V?$allocator@D@2@@std@@V?$weak_ptr@VShader@@@2@@std@@PEAX@std@@_N@1@AEBV?$basic_string@DU?$char_traits@D@std@@V?$allocator@D@2@@1@@Z 0000000140060ce0 f i main.obj
 0001:0005fef0       ??$_Try_emplace@AEBV?$basic_string@DU?$char_traits@D@std@@V?$allocator@D@2@@std@@$$V@?$map@V?$basic_string@DU?$char_traits@D@std@@V?$allocator@D@2@@std@@V?$weak_ptr@VTexture2D@@@2@U?$less@V?$basic_string@DU?$char_traits@D@std@@V?$allocator@D@2@@std@@@2@V?$allocator@U?$pair@$$CBV?$basic_string@DU?$char_traits@D@std@@V?$allocator@D@2@@std@@V?$weak_ptr@VTexture2D@@@2@@std@@@2@@std@@AEAA?AU?$pair@PEAU?$_Tree_node@U?$pair@$$CBV?$basic_string@DU?$char_traits@D@std@@V?$allocator@D@2@@std@@V?$weak_ptr@VTexture2D@@@2@@std@@PEAX@std@@_N@1@AEBV?$basic_string@DU?$char_traits@D@std@@V?$allocator@D@2@@1@@Z 0000000140060ef0 f i main.obj
 0001:00060100       ??$_Try_emplace@V?$basic_string@DU?$char_traits@D@std@@V?$allocator@D@2@@std@@$$V@?$map@V?$basic_string@DU?$char_traits@D@std@@V?$allocator@D@2@@std@@PEAUmat4@@U?$less@V?$basic_string@DU?$char_traits@D@std@@V?$allocator@D@2@@std@@@2@V?$allocator@U?$pair@$$CBV?$basic_string@DU?$char_traits@D@std@@V?$allocator@D@2@@std@@PEAUmat4@@@std@@@2@@std@@AEAA?AU?$pair@PEAU?$_Tree_node@U?$pair@$$CBV?$basic_string@DU?$char_traits@D@std@@V?$allocator@D@2@@std@@PEAUmat4@@@std@@PEAX@std@@_N@1@$$QEAV?$basic_string@DU?$char_traits@D@std@@V?$allocator@D@2@@1@@Z 0000000140061100 f i main.obj
 0001:00060310       ??$_Tuple_get@$0A@$$QEAV?$basic_string@DU?$char_traits@D@std@@V?$allocator@D@2@@std@@@std@@YA$$QEA_P$$QEAV?$tuple@$$QEAV?$basic_string@DU?$char_traits@D@std@@V?$allocator@D@2@@std@@@0@@Z 0000000140061310 f i main.obj
 0001:00060330       ??$_Tuple_get@$0A@AEBV?$basic_string@DU?$char_traits@D@std@@V?$allocator@D@2@@std@@@std@@YA$$QEA_P$$QEAV?$tuple@AEBV?$basic_string@DU?$char_traits@D@std@@V?$allocator@D@2@@std@@@0@@Z 0000000140061330 f i main.obj
 0001:00060350       ??$_UIntegral_to_buff@DI@std@@YAPEADPEADI@Z 0000000140061350 f i main.obj
 0001:000603c0       ??$_UIntegral_to_buff@D_K@std@@YAPEADPEAD_K@Z 00000001400613c0 f i main.obj
 0001:00060440       ??$_UIntegral_to_string@D_K@std@@YA?AV?$basic_string@DU?$char_traits@D@std@@V?$allocator@D@2@@0@_K@Z 0000000140061440 f i main.obj
 0001:000604f0       ??$_Unfancy@D@std@@YAPEADPEAD@Z 00000001400614f0 f i main.obj
 0001:00060500       ??$_Unfancy@E@std@@YAPEAEPEAE@Z 0000000140061500 f i main.obj
 0001:00060510       ??$_Unfancy@G@std@@YAPEAGPEAG@Z 0000000140061510 f i main.obj
 0001:00060520       ??$_Unfancy@H@std@@YAPEAHPEAH@Z 0000000140061520 f i main.obj
 0001:00060530       ??$_Unfancy@I@std@@YAPEAIPEAI@Z 0000000140061530 f i main.obj
 0001:00060540       ??$_Unfancy@M@std@@YAPEAMPEAM@Z 0000000140061540 f i main.obj
 0001:00060550       ??$_Unfancy@PEAV?$basic_json@Vmap@std@@Vvector@2@V?$basic_string@DU?$char_traits@D@std@@V?$allocator@D@2@@2@_N_J_KNVallocator@2@Uadl_serializer@json_abi_v3_11_2@nlohmann@@V?$vector@EV?$allocator@E@std@@@2@X@json_abi_v3_11_2@nlohmann@@@std@@YAPEAPEAV?$basic_json@Vmap@std@@Vvector@2@V?$basic_string@DU?$char_traits@D@std@@V?$allocator@D@2@@2@_N_J_KNVallocator@2@Uadl_serializer@json_abi_v3_11_2@nlohmann@@V?$vector@EV?$allocator@E@std@@@2@X@json_abi_v3_11_2@nlohmann@@PEAPEAV123@@Z 0000000140061550 f i main.obj
 0001:00060560       ??$_Unfancy@PEAVActor@@@std@@YAPEAPEAVActor@@PEAPEAV1@@Z 0000000140061560 f i main.obj
 0001:00060570       ??$_Unfancy@PEAVAnimationChannel@@@std@@YAPEAPEAVAnimationChannel@@PEAPEAV1@@Z 0000000140061570 f i main.obj
 0001:00060580       ??$_Unfancy@PEAVComponent@@@std@@YAPEAPEAVComponent@@PEAPEAV1@@Z 0000000140061580 f i main.obj
 0001:00060590       ??$_Unfancy@PEAVNode@@@std@@YAPEAPEAVNode@@PEAPEAV1@@Z 0000000140061590 f i main.obj
 0001:000605a0       ??$_Unfancy@PEAVSkinInstance@@@std@@YAPEAPEAVSkinInstance@@PEAPEAV1@@Z 00000001400615a0 f i main.obj
 0001:000605b0       ??$_Unfancy@U?$pair@V?$basic_string@DU?$char_traits@D@std@@V?$allocator@D@2@@std@@H@std@@@std@@YAPEAU?$pair@V?$basic_string@DU?$char_traits@D@std@@V?$allocator@D@2@@std@@H@0@PEAU10@@Z 00000001400615b0 f i main.obj
 0001:000605c0       ??$_Unfancy@U?$pair@V?$basic_string@DU?$char_traits@D@std@@V?$allocator@D@2@@std@@V?$shared_ptr@VTexture2D@@@2@@std@@@std@@YAPEAU?$pair@V?$basic_string@DU?$char_traits@D@std@@V?$allocator@D@2@@std@@V?$shared_ptr@VTexture2D@@@2@@0@PEAU10@@Z 00000001400615c0 f i main.obj
 0001:000605d0       ??$_Unfancy@U?$quatt@M@@@std@@YAPEAU?$quatt@M@@PEAU1@@Z 00000001400615d0 f i main.obj
 0001:000605e0       ??$_Unfancy@U?$vec2t@M@@@std@@YAPEAU?$vec2t@M@@PEAU1@@Z 00000001400615e0 f i main.obj
 0001:000605f0       ??$_Unfancy@U?$vec3t@M@@@std@@YAPEAU?$vec3t@M@@PEAU1@@Z 00000001400615f0 f i main.obj
 0001:00060600       ??$_Unfancy@U?$vec4t@H@@@std@@YAPEAU?$vec4t@H@@PEAU1@@Z 0000000140061600 f i main.obj
 0001:00060610       ??$_Unfancy@U?$vec4t@M@@@std@@YAPEAU?$vec4t@M@@PEAU1@@Z 0000000140061610 f i main.obj
 0001:00060620       ??$_Unfancy@UAccessor@gltf@@@std@@YAPEAUAccessor@gltf@@PEAU12@@Z 0000000140061620 f i main.obj
 0001:00060630       ??$_Unfancy@UAnimation@gltf@@@std@@YAPEAUAnimation@gltf@@PEAU12@@Z 0000000140061630 f i main.obj
 0001:00060640       ??$_Unfancy@UAnimationChannel@gltf@@@std@@YAPEAUAnimationChannel@gltf@@PEAU12@@Z 0000000140061640 f i main.obj
 0001:00060650       ??$_Unfancy@UAnimationSampler@gltf@@@std@@YAPEAUAnimationSampler@gltf@@PEAU12@@Z 0000000140061650 f i main.obj
 0001:00060660       ??$_Unfancy@UBuffer@gltf@@@std@@YAPEAUBuffer@gltf@@PEAU12@@Z 0000000140061660 f i main.obj
 0001:00060670       ??$_Unfancy@UBufferView@gltf@@@std@@YAPEAUBufferView@gltf@@PEAU12@@Z 0000000140061670 f i main.obj
 0001:00060680       ??$_Unfancy@UCamera@gltf@@@std@@YAPEAUCamera@gltf@@PEAU12@@Z 0000000140061680 f i main.obj
 0001:00060690       ??$_Unfancy@UImage@gltf@@@std@@YAPEAUImage@gltf@@PEAU12@@Z 0000000140061690 f i main.obj
 0001:000606a0       ??$_Unfancy@UMaterial@gltf@@@std@@YAPEAUMaterial@gltf@@PEAU12@@Z 00000001400616a0 f i main.obj
 0001:000606b0       ??$_Unfancy@UMesh@gltf@@@std@@YAPEAUMesh@gltf@@PEAU12@@Z 00000001400616b0 f i main.obj
 0001:000606c0       ??$_Unfancy@UMeshPrimitive@gltf@@@std@@YAPEAUMeshPrimitive@gltf@@PEAU12@@Z 00000001400616c0 f i main.obj
 0001:000606d0       ??$_Unfancy@UNode@gltf@@@std@@YAPEAUNode@gltf@@PEAU12@@Z 00000001400616d0 f i main.obj
 0001:000606e0       ??$_Unfancy@USampler@gltf@@@std@@YAPEAUSampler@gltf@@PEAU12@@Z 00000001400616e0 f i main.obj
 0001:000606f0       ??$_Unfancy@UScene@gltf@@@std@@YAPEAUScene@gltf@@PEAU12@@Z 00000001400616f0 f i main.obj
 0001:00060700       ??$_Unfancy@USkin@gltf@@@std@@YAPEAUSkin@gltf@@PEAU12@@Z 0000000140061700 f i main.obj
 0001:00060710       ??$_Unfancy@UTexture@gltf@@@std@@YAPEAUTexture@gltf@@PEAU12@@Z 0000000140061710 f i main.obj
 0001:00060720       ??$_Unfancy@Umat4@@@std@@YAPEAUmat4@@PEAU1@@Z 0000000140061720 f i main.obj
 0001:00060730       ??$_Unfancy@V?$basic_json@Vmap@std@@Vvector@2@V?$basic_string@DU?$char_traits@D@std@@V?$allocator@D@2@@2@_N_J_KNVallocator@2@Uadl_serializer@json_abi_v3_11_2@nlohmann@@V?$vector@EV?$allocator@E@std@@@2@X@json_abi_v3_11_2@nlohmann@@@std@@YAPEAV?$basic_json@Vmap@std@@Vvector@2@V?$basic_string@DU?$char_traits@D@std@@V?$allocator@D@2@@2@_N_J_KNVallocator@2@Uadl_serializer@json_abi_v3_11_2@nlohmann@@V?$vector@EV?$allocator@E@std@@@2@X@json_abi_v3_11_2@nlohmann@@PEAV123@@Z 0000000140061730 f i main.obj
 0001:00060740       ??$_Unfancy@V?$basic_string@DU?$char_traits@D@std@@V?$allocator@D@2@@std@@@std@@YAPEAV?$basic_string@DU?$char_traits@D@std@@V?$allocator@D@2@@0@PEAV10@@Z 0000000140061740 f i main.obj
 0001:00060750       ??$_Unfancy@V?$shared_ptr@VAnimation@@@std@@@std@@YAPEAV?$shared_ptr@VAnimation@@@0@PEAV10@@Z 0000000140061750 f i main.obj
 0001:00060760       ??$_Unfancy@V?$shared_ptr@VMaterial@@@std@@@std@@YAPEAV?$shared_ptr@VMaterial@@@0@PEAV10@@Z 0000000140061760 f i main.obj
 0001:00060770       ??$_Unfancy@V?$shared_ptr@VMesh@@@std@@@std@@YAPEAV?$shared_ptr@VMesh@@@0@PEAV10@@Z 0000000140061770 f i main.obj
 0001:00060780       ??$_Unfancy@V?$shared_ptr@VSkin@@@std@@@std@@YAPEAV?$shared_ptr@VSkin@@@0@PEAV10@@Z 0000000140061780 f i main.obj
 0001:00060790       ??$_Unfancy@V?$shared_ptr@VTexture2D@@@std@@@std@@YAPEAV?$shared_ptr@VTexture2D@@@0@PEAV10@@Z 0000000140061790 f i main.obj
 0001:000607a0       ??$_Unfancy@VAnimationChannel@@@std@@YAPEAVAnimationChannel@@PEAV1@@Z 00000001400617a0 f i main.obj
 0001:000607b0       ??$_Unfancy@VAnimationInstance@@@std@@YAPEAVAnimationInstance@@PEAV1@@Z 00000001400617b0 f i main.obj
 0001:000607c0       ??$_Unfancy@VAnimationInstanceView@@@std@@YAPEAVAnimationInstanceView@@PEAV1@@Z 00000001400617c0 f i main.obj
 0001:000607d0       ??$_Unfancy@VAnimationSampler@@@std@@YAPEAVAnimationSampler@@PEAV1@@Z 00000001400617d0 f i main.obj
 0001:000607e0       ??$_Unfancy@VMeshPrimitive@@@std@@YAPEAVMeshPrimitive@@PEAV1@@Z 00000001400617e0 f i main.obj
 0001:000607f0       ??$_Unfancy@VScene@@@std@@YAPEAVScene@@PEAV1@@Z 00000001400617f0 f i main.obj
 0001:00060800       ??$_Unfancy@VSceneNode@@@std@@YAPEAVSceneNode@@PEAV1@@Z 0000000140061800 f i main.obj
 0001:00060810       ??$_Unfancy@_W@std@@YAPEA_WPEA_W@Z 0000000140061810 f i main.obj
 0001:00060820       ??$_Unfancy_maybe_null@I@std@@YAPEAIPEAI@Z 0000000140061820 f i main.obj
 0001:00060830       ??$_Ungetc@D@std@@YA_NAEBDPEAU_iobuf@@@Z 0000000140061830 f i main.obj
 0001:00060890       ??$_Uninitialized_copy@PEAEPEAEV?$allocator@E@std@@@std@@YAPEAEPEAE00AEAV?$allocator@E@0@@Z 0000000140061890 f i main.obj
 0001:00060a10       ??$_Uninitialized_copy@PEAGPEAGV?$allocator@I@std@@@std@@YAPEAIPEAG0PEAIAEAV?$allocator@I@0@@Z 0000000140061a10 f i main.obj
 0001:00060ae0       ??$_Uninitialized_copy@PEAHPEAHV?$allocator@H@std@@@std@@YAPEAHPEAH00AEAV?$allocator@H@0@@Z 0000000140061ae0 f i main.obj
 0001:00060c60       ??$_Uninitialized_copy@PEAIPEAIV?$allocator@I@std@@@std@@YAPEAIPEAI00AEAV?$allocator@I@0@@Z 0000000140061c60 f i main.obj
 0001:00060de0       ??$_Uninitialized_copy@PEAMPEAMV?$allocator@M@std@@@std@@YAPEAMPEAM00AEAV?$allocator@M@0@@Z 0000000140061de0 f i main.obj
 0001:00060f60       ??$_Uninitialized_copy@PEAU?$pair@V?$basic_string@DU?$char_traits@D@std@@V?$allocator@D@2@@std@@H@std@@PEAU12@V?$allocator@U?$pair@V?$basic_string@DU?$char_traits@D@std@@V?$allocator@D@2@@std@@H@std@@@2@@std@@YAPEAU?$pair@V?$basic_string@DU?$char_traits@D@std@@V?$allocator@D@2@@std@@H@0@PEAU10@00AEAV?$allocator@U?$pair@V?$basic_string@DU?$char_traits@D@std@@V?$allocator@D@2@@std@@H@std@@@0@@Z 0000000140061f60 f i main.obj
 0001:00061030       ??$_Uninitialized_copy@PEAU?$vec2t@M@@PEAU1@V?$allocator@U?$vec2t@M@@@std@@@std@@YAPEAU?$vec2t@M@@PEAU1@00AEAV?$allocator@U?$vec2t@M@@@0@@Z 0000000140062030 f i main.obj
 0001:00061100       ??$_Uninitialized_copy@PEAU?$vec3t@M@@PEAU1@V?$allocator@U?$vec3t@M@@@std@@@std@@YAPEAU?$vec3t@M@@PEAU1@00AEAV?$allocator@U?$vec3t@M@@@0@@Z 0000000140062100 f i main.obj
 0001:000611d0       ??$_Uninitialized_copy@PEAU?$vec4t@H@@PEAU1@V?$allocator@U?$vec4t@H@@@std@@@std@@YAPEAU?$vec4t@H@@PEAU1@00AEAV?$allocator@U?$vec4t@H@@@0@@Z 00000001400621d0 f i main.obj
 0001:000612a0       ??$_Uninitialized_copy@PEAU?$vec4t@M@@PEAU1@V?$allocator@U?$vec4t@M@@@std@@@std@@YAPEAU?$vec4t@M@@PEAU1@00AEAV?$allocator@U?$vec4t@M@@@0@@Z 00000001400622a0 f i main.obj
 0001:00061370       ??$_Uninitialized_copy@PEAUAnimationChannel@gltf@@PEAU12@V?$allocator@UAnimationChannel@gltf@@@std@@@std@@YAPEAUAnimationChannel@gltf@@PEAU12@00AEAV?$allocator@UAnimationChannel@gltf@@@0@@Z 0000000140062370 f i main.obj
 0001:00061440       ??$_Uninitialized_copy@PEAUAnimationSampler@gltf@@PEAU12@V?$allocator@UAnimationSampler@gltf@@@std@@@std@@YAPEAUAnimationSampler@gltf@@PEAU12@00AEAV?$allocator@UAnimationSampler@gltf@@@0@@Z 0000000140062440 f i main.obj
 0001:00061510       ??$_Uninitialized_copy@PEAUMeshPrimitive@gltf@@PEAU12@V?$allocator@UMeshPrimitive@gltf@@@std@@@std@@YAPEAUMeshPrimitive@gltf@@PEAU12@00AEAV?$allocator@UMeshPrimitive@gltf@@@0@@Z 0000000140062510 f i main.obj
 0001:000615e0       ??$_Uninitialized_copy@PEAUmat4@@PEAU1@V?$allocator@Umat4@@@std@@@std@@YAPEAUmat4@@PEAU1@00AEAV?$allocator@Umat4@@@0@@Z 00000001400625e0 f i main.obj
 0001:000616b0       ??$_Uninitialized_copy@PEAV?$basic_json@Vmap@std@@Vvector@2@V?$basic_string@DU?$char_traits@D@std@@V?$allocator@D@2@@2@_N_J_KNVallocator@2@Uadl_serializer@json_abi_v3_11_2@nlohmann@@V?$vector@EV?$allocator@E@std@@@2@X@json_abi_v3_11_2@nlohmann@@PEAV123@V?$allocator@V?$basic_json@Vmap@std@@Vvector@2@V?$basic_string@DU?$char_traits@D@std@@V?$allocator@D@2@@2@_N_J_KNVallocator@2@Uadl_serializer@json_abi_v3_11_2@nlohmann@@V?$vector@EV?$allocator@E@std@@@2@X@json_abi_v3_11_2@nlohmann@@@std@@@std@@YAPEAV?$basic_json@Vmap@std@@Vvector@2@V?$basic_string@DU?$char_traits@D@std@@V?$allocator@D@2@@2@_N_J_KNVallocator@2@Uadl_serializer@json_abi_v3_11_2@nlohmann@@V?$vector@EV?$allocator@E@std@@@2@X@json_abi_v3_11_2@nlohmann@@PEAV123@00AEAV?$allocator@V?$basic_json@Vmap@std@@Vvector@2@V?$basic_string@DU?$char_traits@D@std@@V?$allocator@D@2@@2@_N_J_KNVallocator@2@Uadl_serializer@json_abi_v3_11_2@nlohmann@@V?$vector@EV?$allocator@E@std@@@2@X@json_abi_v3_11_2@nlohmann@@@0@@Z 00000001400626b0 f i main.obj
 0001:00061780       ??$_Uninitialized_copy@PEAVMeshPrimitive@@PEAV1@V?$allocator@VMeshPrimitive@@@std@@@std@@YAPEAVMeshPrimitive@@PEAV1@00AEAV?$allocator@VMeshPrimitive@@@0@@Z 0000000140062780 f i main.obj
 0001:00061860       ??$_Uninitialized_copy@PEAVSceneNode@@PEAV1@V?$allocator@VSceneNode@@@std@@@std@@YAPEAVSceneNode@@PEAV1@00AEAV?$allocator@VSceneNode@@@0@@Z 0000000140062860 f i main.obj
 0001:00061930       ??$_Uninitialized_copy_n@PEAHV?$allocator@H@std@@@std@@YAPEAHPEAH_K0AEAV?$allocator@H@0@@Z 0000000140062930 f i main.obj
 0001:00061a50       ??$_Uninitialized_copy_n@PEBU?$vec2t@M@@V?$allocator@U?$vec2t@M@@@std@@@std@@YAPEAU?$vec2t@M@@PEBU1@_KPEAU1@AEAV?$allocator@U?$vec2t@M@@@0@@Z 0000000140062a50 f i main.obj
 0001:00061b10       ??$_Uninitialized_copy_n@PEBU?$vec3t@M@@V?$allocator@U?$vec3t@M@@@std@@@std@@YAPEAU?$vec3t@M@@PEBU1@_KPEAU1@AEAV?$allocator@U?$vec3t@M@@@0@@Z 0000000140062b10 f i main.obj
 0001:00061bd0       ??$_Uninitialized_fill_n@V?$allocator@I@std@@@std@@YAPEAIPEAI_KAEBIAEAV?$allocator@I@0@@Z 0000000140062bd0 f i main.obj
 0001:00061cc0       ??$_Uninitialized_move@PEADV?$allocator@D@std@@@std@@YAPEADQEAD0PEADAEAV?$allocator@D@0@@Z 0000000140062cc0 f i main.obj
 0001:00061de0       ??$_Uninitialized_move@PEAGV?$allocator@G@std@@@std@@YAPEAGQEAG0PEAGAEAV?$allocator@G@0@@Z 0000000140062de0 f i main.obj
 0001:00061f00       ??$_Uninitialized_move@PEAHV?$allocator@H@std@@@std@@YAPEAHQEAH0PEAHAEAV?$allocator@H@0@@Z 0000000140062f00 f i main.obj
 0001:00062020       ??$_Uninitialized_move@PEAIV?$allocator@I@std@@@std@@YAPEAIQEAI0PEAIAEAV?$allocator@I@0@@Z 0000000140063020 f i main.obj
 0001:00062140       ??$_Uninitialized_move@PEAMV?$allocator@M@std@@@std@@YAPEAMQEAM0PEAMAEAV?$allocator@M@0@@Z 0000000140063140 f i main.obj
 0001:00062260       ??$_Uninitialized_move@PEAPEAV?$basic_json@Vmap@std@@Vvector@2@V?$basic_string@DU?$char_traits@D@std@@V?$allocator@D@2@@2@_N_J_KNVallocator@2@Uadl_serializer@json_abi_v3_11_2@nlohmann@@V?$vector@EV?$allocator@E@std@@@2@X@json_abi_v3_11_2@nlohmann@@V?$allocator@PEAV?$basic_json@Vmap@std@@Vvector@2@V?$basic_string@DU?$char_traits@D@std@@V?$allocator@D@2@@2@_N_J_KNVallocator@2@Uadl_serializer@json_abi_v3_11_2@nlohmann@@V?$vector@EV?$allocator@E@std@@@2@X@json_abi_v3_11_2@nlohmann@@@std@@@std@@YAPEAPEAV?$basic_json@Vmap@std@@Vvector@2@V?$basic_string@DU?$char_traits@D@std@@V?$allocator@D@2@@2@_N_J_KNVallocator@2@Uadl_serializer@json_abi_v3_11_2@nlohmann@@V?$vector@EV?$allocator@E@std@@@2@X@json_abi_v3_11_2@nlohmann@@QEAPEAV123@0PEAPEAV123@AEAV?$allocator@PEAV?$basic_json@Vmap@std@@Vvector@2@V?$basic_string@DU?$char_traits@D@std@@V?$allocator@D@2@@2@_N_J_KNVallocator@2@Uadl_serializer@json_abi_v3_11_2@nlohmann@@V?$vector@EV?$allocator@E@std@@@2@X@json_abi_v3_11_2@nlohmann@@@0@@Z 0000000140063260 f i main.obj
 0001:00062380       ??$_Uninitialized_move@PEAPEAVActor@@V?$allocator@PEAVActor@@@std@@@std@@YAPEAPEAVActor@@QEAPEAV1@0PEAPEAV1@AEAV?$allocator@PEAVActor@@@0@@Z 0000000140063380 f i main.obj
 0001:000624a0       ??$_Uninitialized_move@PEAPEAVAnimationChannel@@V?$allocator@PEAVAnimationChannel@@@std@@@std@@YAPEAPEAVAnimationChannel@@QEAPEAV1@0PEAPEAV1@AEAV?$allocator@PEAVAnimationChannel@@@0@@Z 00000001400634a0 f i main.obj
 0001:000625c0       ??$_Uninitialized_move@PEAPEAVComponent@@V?$allocator@PEAVComponent@@@std@@@std@@YAPEAPEAVComponent@@QEAPEAV1@0PEAPEAV1@AEAV?$allocator@PEAVComponent@@@0@@Z 00000001400635c0 f i main.obj
 0001:000626e0       ??$_Uninitialized_move@PEAPEAVNode@@V?$allocator@PEAVNode@@@std@@@std@@YAPEAPEAVNode@@QEAPEAV1@0PEAPEAV1@AEAV?$allocator@PEAVNode@@@0@@Z 00000001400636e0 f i main.obj
 0001:00062800       ??$_Uninitialized_move@PEAPEAVSkinInstance@@V?$allocator@PEAVSkinInstance@@@std@@@std@@YAPEAPEAVSkinInstance@@QEAPEAV1@0PEAPEAV1@AEAV?$allocator@PEAVSkinInstance@@@0@@Z 0000000140063800 f i main.obj
 0001:00062920       ??$_Uninitialized_move@PEAU?$pair@V?$basic_string@DU?$char_traits@D@std@@V?$allocator@D@2@@std@@H@std@@V?$allocator@U?$pair@V?$basic_string@DU?$char_traits@D@std@@V?$allocator@D@2@@std@@H@std@@@2@@std@@YAPEAU?$pair@V?$basic_string@DU?$char_traits@D@std@@V?$allocator@D@2@@std@@H@0@QEAU10@0PEAU10@AEAV?$allocator@U?$pair@V?$basic_string@DU?$char_traits@D@std@@V?$allocator@D@2@@std@@H@std@@@0@@Z 0000000140063920 f i main.obj
 0001:000629f0       ??$_Uninitialized_move@PEAU?$pair@V?$basic_string@DU?$char_traits@D@std@@V?$allocator@D@2@@std@@V?$shared_ptr@VTexture2D@@@2@@std@@V?$allocator@U?$pair@V?$basic_string@DU?$char_traits@D@std@@V?$allocator@D@2@@std@@V?$shared_ptr@VTexture2D@@@2@@std@@@2@@std@@YAPEAU?$pair@V?$basic_string@DU?$char_traits@D@std@@V?$allocator@D@2@@std@@V?$shared_ptr@VTexture2D@@@2@@0@QEAU10@0PEAU10@AEAV?$allocator@U?$pair@V?$basic_string@DU?$char_traits@D@std@@V?$allocator@D@2@@std@@V?$shared_ptr@VTexture2D@@@2@@std@@@0@@Z 00000001400639f0 f i main.obj
 0001:00062ac0       ??$_Uninitialized_move@PEAU?$quatt@M@@V?$allocator@U?$quatt@M@@@std@@@std@@YAPEAU?$quatt@M@@QEAU1@0PEAU1@AEAV?$allocator@U?$quatt@M@@@0@@Z 0000000140063ac0 f i main.obj
 0001:00062bf0       ??$_Uninitialized_move@PEAUAccessor@gltf@@V?$allocator@UAccessor@gltf@@@std@@@std@@YAPEAUAccessor@gltf@@QEAU12@0PEAU12@AEAV?$allocator@UAccessor@gltf@@@0@@Z 0000000140063bf0 f i main.obj
 0001:00062cc0       ??$_Uninitialized_move@PEAUAnimation@gltf@@V?$allocator@UAnimation@gltf@@@std@@@std@@YAPEAUAnimation@gltf@@QEAU12@0PEAU12@AEAV?$allocator@UAnimation@gltf@@@0@@Z 0000000140063cc0 f i main.obj
 0001:00062d90       ??$_Uninitialized_move@PEAUAnimationChannel@gltf@@V?$allocator@UAnimationChannel@gltf@@@std@@@std@@YAPEAUAnimationChannel@gltf@@QEAU12@0PEAU12@AEAV?$allocator@UAnimationChannel@gltf@@@0@@Z 0000000140063d90 f i main.obj
 0001:00062e60       ??$_Uninitialized_move@PEAUAnimationSampler@gltf@@V?$allocator@UAnimationSampler@gltf@@@std@@@std@@YAPEAUAnimationSampler@gltf@@QEAU12@0PEAU12@AEAV?$allocator@UAnimationSampler@gltf@@@0@@Z 0000000140063e60 f i main.obj
 0001:00062f30       ??$_Uninitialized_move@PEAUBuffer@gltf@@V?$allocator@UBuffer@gltf@@@std@@@std@@YAPEAUBuffer@gltf@@QEAU12@0PEAU12@AEAV?$allocator@UBuffer@gltf@@@0@@Z 0000000140063f30 f i main.obj
 0001:00063000       ??$_Uninitialized_move@PEAUBufferView@gltf@@V?$allocator@UBufferView@gltf@@@std@@@std@@YAPEAUBufferView@gltf@@QEAU12@0PEAU12@AEAV?$allocator@UBufferView@gltf@@@0@@Z 0000000140064000 f i main.obj
 0001:000630d0       ??$_Uninitialized_move@PEAUImage@gltf@@V?$allocator@UImage@gltf@@@std@@@std@@YAPEAUImage@gltf@@QEAU12@0PEAU12@AEAV?$allocator@UImage@gltf@@@0@@Z 00000001400640d0 f i main.obj
 0001:000631a0       ??$_Uninitialized_move@PEAUMaterial@gltf@@V?$allocator@UMaterial@gltf@@@std@@@std@@YAPEAUMaterial@gltf@@QEAU12@0PEAU12@AEAV?$allocator@UMaterial@gltf@@@0@@Z 00000001400641a0 f i main.obj
 0001:00063270       ??$_Uninitialized_move@PEAUMesh@gltf@@V?$allocator@UMesh@gltf@@@std@@@std@@YAPEAUMesh@gltf@@QEAU12@0PEAU12@AEAV?$allocator@UMesh@gltf@@@0@@Z 0000000140064270 f i main.obj
 0001:00063340       ??$_Uninitialized_move@PEAUMeshPrimitive@gltf@@V?$allocator@UMeshPrimitive@gltf@@@std@@@std@@YAPEAUMeshPrimitive@gltf@@QEAU12@0PEAU12@AEAV?$allocator@UMeshPrimitive@gltf@@@0@@Z 0000000140064340 f i main.obj
 0001:00063410       ??$_Uninitialized_move@PEAUNode@gltf@@V?$allocator@UNode@gltf@@@std@@@std@@YAPEAUNode@gltf@@QEAU12@0PEAU12@AEAV?$allocator@UNode@gltf@@@0@@Z 0000000140064410 f i main.obj
 0001:000634e0       ??$_Uninitialized_move@PEAUSampler@gltf@@V?$allocator@USampler@gltf@@@std@@@std@@YAPEAUSampler@gltf@@QEAU12@0PEAU12@AEAV?$allocator@USampler@gltf@@@0@@Z 00000001400644e0 f i main.obj
 0001:000635b0       ??$_Uninitialized_move@PEAUScene@gltf@@V?$allocator@UScene@gltf@@@std@@@std@@YAPEAUScene@gltf@@QEAU12@0PEAU12@AEAV?$allocator@UScene@gltf@@@0@@Z 00000001400645b0 f i main.obj
 0001:00063680       ??$_Uninitialized_move@PEAUSkin@gltf@@V?$allocator@USkin@gltf@@@std@@@std@@YAPEAUSkin@gltf@@QEAU12@0PEAU12@AEAV?$allocator@USkin@gltf@@@0@@Z 0000000140064680 f i main.obj
 0001:00063750       ??$_Uninitialized_move@PEAUTexture@gltf@@V?$allocator@UTexture@gltf@@@std@@@std@@YAPEAUTexture@gltf@@QEAU12@0PEAU12@AEAV?$allocator@UTexture@gltf@@@0@@Z 0000000140064750 f i main.obj
 0001:00063820       ??$_Uninitialized_move@PEAV?$basic_json@Vmap@std@@Vvector@2@V?$basic_string@DU?$char_traits@D@std@@V?$allocator@D@2@@2@_N_J_KNVallocator@2@Uadl_serializer@json_abi_v3_11_2@nlohmann@@V?$vector@EV?$allocator@E@std@@@2@X@json_abi_v3_11_2@nlohmann@@V?$allocator@V?$basic_json@Vmap@std@@Vvector@2@V?$basic_string@DU?$char_traits@D@std@@V?$allocator@D@2@@2@_N_J_KNVallocator@2@Uadl_serializer@json_abi_v3_11_2@nlohmann@@V?$vector@EV?$allocator@E@std@@@2@X@json_abi_v3_11_2@nlohmann@@@std@@@std@@YAPEAV?$basic_json@Vmap@std@@Vvector@2@V?$basic_string@DU?$char_traits@D@std@@V?$allocator@D@2@@2@_N_J_KNVallocator@2@Uadl_serializer@json_abi_v3_11_2@nlohmann@@V?$vector@EV?$allocator@E@std@@@2@X@json_abi_v3_11_2@nlohmann@@QEAV123@0PEAV123@AEAV?$allocator@V?$basic_json@Vmap@std@@Vvector@2@V?$basic_string@DU?$char_traits@D@std@@V?$allocator@D@2@@2@_N_J_KNVallocator@2@Uadl_serializer@json_abi_v3_11_2@nlohmann@@V?$vector@EV?$allocator@E@std@@@2@X@json_abi_v3_11_2@nlohmann@@@0@@Z 0000000140064820 f i main.obj
 0001:000638f0       ??$_Uninitialized_move@PEAV?$basic_string@DU?$char_traits@D@std@@V?$allocator@D@2@@std@@V?$allocator@V?$basic_string@DU?$char_traits@D@std@@V?$allocator@D@2@@std@@@2@@std@@YAPEAV?$basic_string@DU?$char_traits@D@std@@V?$allocator@D@2@@0@QEAV10@0PEAV10@AEAV?$allocator@V?$basic_string@DU?$char_traits@D@std@@V?$allocator@D@2@@std@@@0@@Z 00000001400648f0 f i main.obj
 0001:000639c0       ??$_Uninitialized_move@PEAV?$shared_ptr@VAnimation@@@std@@V?$allocator@V?$shared_ptr@VAnimation@@@std@@@2@@std@@YAPEAV?$shared_ptr@VAnimation@@@0@QEAV10@0PEAV10@AEAV?$allocator@V?$shared_ptr@VAnimation@@@std@@@0@@Z 00000001400649c0 f i main.obj
 0001:00063a90       ??$_Uninitialized_move@PEAV?$shared_ptr@VMaterial@@@std@@V?$allocator@V?$shared_ptr@VMaterial@@@std@@@2@@std@@YAPEAV?$shared_ptr@VMaterial@@@0@QEAV10@0PEAV10@AEAV?$allocator@V?$shared_ptr@VMaterial@@@std@@@0@@Z 0000000140064a90 f i main.obj
 0001:00063b60       ??$_Uninitialized_move@PEAV?$shared_ptr@VMesh@@@std@@V?$allocator@V?$shared_ptr@VMesh@@@std@@@2@@std@@YAPEAV?$shared_ptr@VMesh@@@0@QEAV10@0PEAV10@AEAV?$allocator@V?$shared_ptr@VMesh@@@std@@@0@@Z 0000000140064b60 f i main.obj
 0001:00063c30       ??$_Uninitialized_move@PEAV?$shared_ptr@VSkin@@@std@@V?$allocator@V?$shared_ptr@VSkin@@@std@@@2@@std@@YAPEAV?$shared_ptr@VSkin@@@0@QEAV10@0PEAV10@AEAV?$allocator@V?$shared_ptr@VSkin@@@std@@@0@@Z 0000000140064c30 f i main.obj
 0001:00063d00       ??$_Uninitialized_move@PEAV?$shared_ptr@VTexture2D@@@std@@V?$allocator@V?$shared_ptr@VTexture2D@@@std@@@2@@std@@YAPEAV?$shared_ptr@VTexture2D@@@0@QEAV10@0PEAV10@AEAV?$allocator@V?$shared_ptr@VTexture2D@@@std@@@0@@Z 0000000140064d00 f i main.obj
 0001:00063dd0       ??$_Uninitialized_move@PEAVAnimationChannel@@V?$allocator@VAnimationChannel@@@std@@@std@@YAPEAVAnimationChannel@@QEAV1@0PEAV1@AEAV?$allocator@VAnimationChannel@@@0@@Z 0000000140064dd0 f i main.obj
 0001:00063f00       ??$_Uninitialized_move@PEAVAnimationInstance@@V?$allocator@VAnimationInstance@@@std@@@std@@YAPEAVAnimationInstance@@QEAV1@0PEAV1@AEAV?$allocator@VAnimationInstance@@@0@@Z 0000000140064f00 f i main.obj
 0001:00064030       ??$_Uninitialized_move@PEAVAnimationInstanceView@@V?$allocator@VAnimationInstanceView@@@std@@@std@@YAPEAVAnimationInstanceView@@QEAV1@0PEAV1@AEAV?$allocator@VAnimationInstanceView@@@0@@Z 0000000140065030 f i main.obj
 0001:00064100       ??$_Uninitialized_move@PEAVAnimationSampler@@V?$allocator@VAnimationSampler@@@std@@@std@@YAPEAVAnimationSampler@@QEAV1@0PEAV1@AEAV?$allocator@VAnimationSampler@@@0@@Z 0000000140065100 f i main.obj
 0001:000641d0       ??$_Uninitialized_move@PEAVScene@@V?$allocator@VScene@@@std@@@std@@YAPEAVScene@@QEAV1@0PEAV1@AEAV?$allocator@VScene@@@0@@Z 00000001400651d0 f i main.obj
 0001:000642a0       ??$_Uninitialized_value_construct_n@V?$allocator@G@std@@@std@@YAPEAGPEAG_KAEAV?$allocator@G@0@@Z 00000001400652a0 f i main.obj
 0001:00064390       ??$_Uninitialized_value_construct_n@V?$allocator@H@std@@@std@@YAPEAHPEAH_KAEAV?$allocator@H@0@@Z 0000000140065390 f i main.obj
 0001:00064480       ??$_Uninitialized_value_construct_n@V?$allocator@I@std@@@std@@YAPEAIPEAI_KAEAV?$allocator@I@0@@Z 0000000140065480 f i main.obj
 0001:00064570       ??$_Uninitialized_value_construct_n@V?$allocator@M@std@@@std@@YAPEAMPEAM_KAEAV?$allocator@M@0@@Z 0000000140065570 f i main.obj
 0001:00064660       ??$_Uninitialized_value_construct_n@V?$allocator@PEAVActor@@@std@@@std@@YAPEAPEAVActor@@PEAPEAV1@_KAEAV?$allocator@PEAVActor@@@0@@Z 0000000140065660 f i main.obj
 0001:00064750       ??$_Uninitialized_value_construct_n@V?$allocator@PEAVSkinInstance@@@std@@@std@@YAPEAPEAVSkinInstance@@PEAPEAV1@_KAEAV?$allocator@PEAVSkinInstance@@@0@@Z 0000000140065750 f i main.obj
 0001:00064840       ??$_Uninitialized_value_construct_n@V?$allocator@U?$quatt@M@@@std@@@std@@YAPEAU?$quatt@M@@PEAU1@_KAEAV?$allocator@U?$quatt@M@@@0@@Z 0000000140065840 f i main.obj
 0001:000648d0       ??$_Uninitialized_value_construct_n@V?$allocator@U?$vec2t@M@@@std@@@std@@YAPEAU?$vec2t@M@@PEAU1@_KAEAV?$allocator@U?$vec2t@M@@@0@@Z 00000001400658d0 f i main.obj
 0001:00064960       ??$_Uninitialized_value_construct_n@V?$allocator@U?$vec3t@M@@@std@@@std@@YAPEAU?$vec3t@M@@PEAU1@_KAEAV?$allocator@U?$vec3t@M@@@0@@Z 0000000140065960 f i main.obj
 0001:000649f0       ??$_Uninitialized_value_construct_n@V?$allocator@Umat4@@@std@@@std@@YAPEAUmat4@@PEAU1@_KAEAV?$allocator@Umat4@@@0@@Z 00000001400659f0 f i main.obj
 0001:00064a80       ??$_Uninitialized_value_construct_n@V?$allocator@V?$shared_ptr@VAnimation@@@std@@@std@@@std@@YAPEAV?$shared_ptr@VAnimation@@@0@PEAV10@_KAEAV?$allocator@V?$shared_ptr@VAnimation@@@std@@@0@@Z 0000000140065a80 f i main.obj
 0001:00064b10       ??$_Uninitialized_value_construct_n@V?$allocator@V?$shared_ptr@VMaterial@@@std@@@std@@@std@@YAPEAV?$shared_ptr@VMaterial@@@0@PEAV10@_KAEAV?$allocator@V?$shared_ptr@VMaterial@@@std@@@0@@Z 0000000140065b10 f i main.obj
 0001:00064ba0       ??$_Uninitialized_value_construct_n@V?$allocator@V?$shared_ptr@VMesh@@@std@@@std@@@std@@YAPEAV?$shared_ptr@VMesh@@@0@PEAV10@_KAEAV?$allocator@V?$shared_ptr@VMesh@@@std@@@0@@Z 0000000140065ba0 f i main.obj
 0001:00064c30       ??$_Uninitialized_value_construct_n@V?$allocator@V?$shared_ptr@VSkin@@@std@@@std@@@std@@YAPEAV?$shared_ptr@VSkin@@@0@PEAV10@_KAEAV?$allocator@V?$shared_ptr@VSkin@@@std@@@0@@Z 0000000140065c30 f i main.obj
 0001:00064cc0       ??$_Uninitialized_value_construct_n@V?$allocator@V?$shared_ptr@VTexture2D@@@std@@@std@@@std@@YAPEAV?$shared_ptr@VTexture2D@@@0@PEAV10@_KAEAV?$allocator@V?$shared_ptr@VTexture2D@@@std@@@0@@Z 0000000140065cc0 f i main.obj
 0001:00064d50       ??$_Uninitialized_value_construct_n@V?$allocator@VAnimationChannel@@@std@@@std@@YAPEAVAnimationChannel@@PEAV1@_KAEAV?$allocator@VAnimationChannel@@@0@@Z 0000000140065d50 f i main.obj
 0001:00064de0       ??$_Uninitialized_value_construct_n@V?$allocator@VAnimationInstance@@@std@@@std@@YAPEAVAnimationInstance@@PEAV1@_KAEAV?$allocator@VAnimationInstance@@@0@@Z 0000000140065de0 f i main.obj
 0001:00064e70       ??$_Uninitialized_value_construct_n@V?$allocator@VAnimationSampler@@@std@@@std@@YAPEAVAnimationSampler@@PEAV1@_KAEAV?$allocator@VAnimationSampler@@@0@@Z 0000000140065e70 f i main.obj
 0001:00064f00       ??$_Uninitialized_value_construct_n@V?$allocator@VMeshPrimitive@@@std@@@std@@YAPEAVMeshPrimitive@@PEAV1@_KAEAV?$allocator@VMeshPrimitive@@@0@@Z 0000000140065f00 f i main.obj
 0001:00064f90       ??$_Uninitialized_value_construct_n@V?$allocator@VScene@@@std@@@std@@YAPEAVScene@@PEAV1@_KAEAV?$allocator@VScene@@@0@@Z 0000000140065f90 f i main.obj
 0001:00065020       ??$_Uninitialized_value_construct_n@V?$allocator@VSceneNode@@@std@@@std@@YAPEAVSceneNode@@PEAV1@_KAEAV?$allocator@VSceneNode@@@0@@Z 0000000140066020 f i main.obj
 0001:000650b0       ??$_Unwrap_iter@PEAEPEAE@ranges@std@@YA?A_T$$QEAPEAE@Z 00000001400660b0 f i main.obj
 0001:000650d0       ??$_Unwrap_iter@PEAGPEAG@ranges@std@@YA?A_T$$QEAPEAG@Z 00000001400660d0 f i main.obj
 0001:000650f0       ??$_Unwrap_iter@PEAHPEAH@ranges@std@@YA?A_T$$QEAPEAH@Z 00000001400660f0 f i main.obj
 0001:00065110       ??$_Unwrap_iter@PEAIPEAI@ranges@std@@YA?A_T$$QEAPEAI@Z 0000000140066110 f i main.obj
 0001:00065130       ??$_Unwrap_iter@PEAMPEAM@ranges@std@@YA?A_T$$QEAPEAM@Z 0000000140066130 f i main.obj
 0001:00065150       ??$_Unwrap_iter@PEAU?$pair@V?$basic_string@DU?$char_traits@D@std@@V?$allocator@D@2@@std@@H@std@@PEAU12@@ranges@std@@YA?A_T$$QEAPEAU?$pair@V?$basic_string@DU?$char_traits@D@std@@V?$allocator@D@2@@std@@H@1@@Z 0000000140066150 f i main.obj
 0001:00065170       ??$_Unwrap_iter@PEAU?$vec2t@M@@PEAU1@@ranges@std@@YA?A_T$$QEAPEAU?$vec2t@M@@@Z 0000000140066170 f i main.obj
 0001:00065190       ??$_Unwrap_iter@PEAU?$vec3t@M@@PEAU1@@ranges@std@@YA?A_T$$QEAPEAU?$vec3t@M@@@Z 0000000140066190 f i main.obj
 0001:000651b0       ??$_Unwrap_iter@PEAU?$vec4t@H@@PEAU1@@ranges@std@@YA?A_T$$QEAPEAU?$vec4t@H@@@Z 00000001400661b0 f i main.obj
 0001:000651d0       ??$_Unwrap_iter@PEAU?$vec4t@M@@PEAU1@@ranges@std@@YA?A_T$$QEAPEAU?$vec4t@M@@@Z 00000001400661d0 f i main.obj
 0001:000651f0       ??$_Unwrap_iter@PEAUAnimationChannel@gltf@@PEAU12@@ranges@std@@YA?A_T$$QEAPEAUAnimationChannel@gltf@@@Z 00000001400661f0 f i main.obj
 0001:00065210       ??$_Unwrap_iter@PEAUAnimationSampler@gltf@@PEAU12@@ranges@std@@YA?A_T$$QEAPEAUAnimationSampler@gltf@@@Z 0000000140066210 f i main.obj
 0001:00065230       ??$_Unwrap_iter@PEAUMeshPrimitive@gltf@@PEAU12@@ranges@std@@YA?A_T$$QEAPEAUMeshPrimitive@gltf@@@Z 0000000140066230 f i main.obj
 0001:00065250       ??$_Unwrap_iter@PEAUmat4@@PEAU1@@ranges@std@@YA?A_T$$QEAPEAUmat4@@@Z 0000000140066250 f i main.obj
 0001:00065270       ??$_Unwrap_iter@PEAV?$basic_json@Vmap@std@@Vvector@2@V?$basic_string@DU?$char_traits@D@std@@V?$allocator@D@2@@2@_N_J_KNVallocator@2@Uadl_serializer@json_abi_v3_11_2@nlohmann@@V?$vector@EV?$allocator@E@std@@@2@X@json_abi_v3_11_2@nlohmann@@PEAV123@@ranges@std@@YA?A_T$$QEAPEAV?$basic_json@Vmap@std@@Vvector@2@V?$basic_string@DU?$char_traits@D@std@@V?$allocator@D@2@@2@_N_J_KNVallocator@2@Uadl_serializer@json_abi_v3_11_2@nlohmann@@V?$vector@EV?$allocator@E@std@@@2@X@json_abi_v3_11_2@nlohmann@@@Z 0000000140066270 f i main.obj
 0001:00065290       ??$_Unwrap_iter@PEAVMeshPrimitive@@PEAV1@@ranges@std@@YA?A_T$$QEAPEAVMeshPrimitive@@@Z 0000000140066290 f i main.obj
 0001:000652b0       ??$_Unwrap_iter@PEAVSceneNode@@PEAV1@@ranges@std@@YA?A_T$$QEAPEAVSceneNode@@@Z 00000001400662b0 f i main.obj
 0001:000652d0       ??$_Unwrap_sent@PEAEPEAE@ranges@std@@YA?A_T$$QEAPEAE@Z 00000001400662d0 f i main.obj
 0001:000652f0       ??$_Unwrap_sent@PEAGPEAG@ranges@std@@YA?A_T$$QEAPEAG@Z 00000001400662f0 f i main.obj
 0001:00065310       ??$_Unwrap_sent@PEAHPEAH@ranges@std@@YA?A_T$$QEAPEAH@Z 0000000140066310 f i main.obj
 0001:00065330       ??$_Unwrap_sent@PEAIPEAI@ranges@std@@YA?A_T$$QEAPEAI@Z 0000000140066330 f i main.obj
 0001:00065350       ??$_Unwrap_sent@PEAMPEAM@ranges@std@@YA?A_T$$QEAPEAM@Z 0000000140066350 f i main.obj
 0001:00065370       ??$_Unwrap_sent@PEAU?$pair@V?$basic_string@DU?$char_traits@D@std@@V?$allocator@D@2@@std@@H@std@@PEAU12@@ranges@std@@YA?A_T$$QEAPEAU?$pair@V?$basic_string@DU?$char_traits@D@std@@V?$allocator@D@2@@std@@H@1@@Z 0000000140066370 f i main.obj
 0001:00065390       ??$_Unwrap_sent@PEAU?$vec2t@M@@PEAU1@@ranges@std@@YA?A_T$$QEAPEAU?$vec2t@M@@@Z 0000000140066390 f i main.obj
 0001:000653b0       ??$_Unwrap_sent@PEAU?$vec3t@M@@PEAU1@@ranges@std@@YA?A_T$$QEAPEAU?$vec3t@M@@@Z 00000001400663b0 f i main.obj
 0001:000653d0       ??$_Unwrap_sent@PEAU?$vec4t@H@@PEAU1@@ranges@std@@YA?A_T$$QEAPEAU?$vec4t@H@@@Z 00000001400663d0 f i main.obj
 0001:000653f0       ??$_Unwrap_sent@PEAU?$vec4t@M@@PEAU1@@ranges@std@@YA?A_T$$QEAPEAU?$vec4t@M@@@Z 00000001400663f0 f i main.obj
 0001:00065410       ??$_Unwrap_sent@PEAUAnimationChannel@gltf@@PEAU12@@ranges@std@@YA?A_T$$QEAPEAUAnimationChannel@gltf@@@Z 0000000140066410 f i main.obj
 0001:00065430       ??$_Unwrap_sent@PEAUAnimationSampler@gltf@@PEAU12@@ranges@std@@YA?A_T$$QEAPEAUAnimationSampler@gltf@@@Z 0000000140066430 f i main.obj
 0001:00065450       ??$_Unwrap_sent@PEAUMeshPrimitive@gltf@@PEAU12@@ranges@std@@YA?A_T$$QEAPEAUMeshPrimitive@gltf@@@Z 0000000140066450 f i main.obj
 0001:00065470       ??$_Unwrap_sent@PEAUmat4@@PEAU1@@ranges@std@@YA?A_T$$QEAPEAUmat4@@@Z 0000000140066470 f i main.obj
 0001:00065490       ??$_Unwrap_sent@PEAV?$basic_json@Vmap@std@@Vvector@2@V?$basic_string@DU?$char_traits@D@std@@V?$allocator@D@2@@2@_N_J_KNVallocator@2@Uadl_serializer@json_abi_v3_11_2@nlohmann@@V?$vector@EV?$allocator@E@std@@@2@X@json_abi_v3_11_2@nlohmann@@PEAV123@@ranges@std@@YA?A_T$$QEAPEAV?$basic_json@Vmap@std@@Vvector@2@V?$basic_string@DU?$char_traits@D@std@@V?$allocator@D@2@@2@_N_J_KNVallocator@2@Uadl_serializer@json_abi_v3_11_2@nlohmann@@V?$vector@EV?$allocator@E@std@@@2@X@json_abi_v3_11_2@nlohmann@@@Z 0000000140066490 f i main.obj
 0001:000654b0       ??$_Unwrap_sent@PEAVMeshPrimitive@@PEAV1@@ranges@std@@YA?A_T$$QEAPEAVMeshPrimitive@@@Z 00000001400664b0 f i main.obj
 0001:000654d0       ??$_Unwrap_sent@PEAVSceneNode@@PEAV1@@ranges@std@@YA?A_T$$QEAPEAVSceneNode@@@Z 00000001400664d0 f i main.obj
 0001:000654f0       ??$_Voidify_iter@PEAD@std@@YAPEAXPEAD@Z 00000001400664f0 f i main.obj
 0001:00065500       ??$_Voidify_iter@PEAE@std@@YAPEAXPEAE@Z 0000000140066500 f i main.obj
 0001:00065510       ??$_Voidify_iter@PEAG@std@@YAPEAXPEAG@Z 0000000140066510 f i main.obj
 0001:00065520       ??$_Voidify_iter@PEAH@std@@YAPEAXPEAH@Z 0000000140066520 f i main.obj
 0001:00065530       ??$_Voidify_iter@PEAI@std@@YAPEAXPEAI@Z 0000000140066530 f i main.obj
 0001:00065540       ??$_Voidify_iter@PEAM@std@@YAPEAXPEAM@Z 0000000140066540 f i main.obj
 0001:00065550       ??$_Voidify_iter@PEAPEAD@std@@YAPEAXPEAPEAD@Z 0000000140066550 f i main.obj
 0001:00065560       ??$_Voidify_iter@PEAPEAU?$_Tree_node@U?$pair@$$CBV?$basic_string@DU?$char_traits@D@std@@V?$allocator@D@2@@std@@PEAUmat4@@@std@@PEAX@std@@@std@@YAPEAXPEAPEAU?$_Tree_node@U?$pair@$$CBV?$basic_string@DU?$char_traits@D@std@@V?$allocator@D@2@@std@@PEAUmat4@@@std@@PEAX@0@@Z 0000000140066560 f i main.obj
 0001:00065570       ??$_Voidify_iter@PEAPEAU?$_Tree_node@U?$pair@$$CBV?$basic_string@DU?$char_traits@D@std@@V?$allocator@D@2@@std@@V?$basic_json@Vmap@std@@Vvector@2@V?$basic_string@DU?$char_traits@D@std@@V?$allocator@D@2@@2@_N_J_KNVallocator@2@Uadl_serializer@json_abi_v3_11_2@nlohmann@@V?$vector@EV?$allocator@E@std@@@2@X@json_abi_v3_11_2@nlohmann@@@std@@PEAX@std@@@std@@YAPEAXPEAPEAU?$_Tree_node@U?$pair@$$CBV?$basic_string@DU?$char_traits@D@std@@V?$allocator@D@2@@std@@V?$basic_json@Vmap@std@@Vvector@2@V?$basic_string@DU?$char_traits@D@std@@V?$allocator@D@2@@2@_N_J_KNVallocator@2@Uadl_serializer@json_abi_v3_11_2@nlohmann@@V?$vector@EV?$allocator@E@std@@@2@X@json_abi_v3_11_2@nlohmann@@@std@@PEAX@0@@Z 0000000140066570 f i main.obj
 0001:00065580       ??$_Voidify_iter@PEAPEAU?$_Tree_node@U?$pair@$$CBV?$basic_string@DU?$char_traits@D@std@@V?$allocator@D@2@@std@@V?$weak_ptr@VImage@@@2@@std@@PEAX@std@@@std@@YAPEAXPEAPEAU?$_Tree_node@U?$pair@$$CBV?$basic_string@DU?$char_traits@D@std@@V?$allocator@D@2@@std@@V?$weak_ptr@VImage@@@2@@std@@PEAX@0@@Z 0000000140066580 f i main.obj
 0001:00065590       ??$_Voidify_iter@PEAPEAU?$_Tree_node@U?$pair@$$CBV?$basic_string@DU?$char_traits@D@std@@V?$allocator@D@2@@std@@V?$weak_ptr@VScenes@@@2@@std@@PEAX@std@@@std@@YAPEAXPEAPEAU?$_Tree_node@U?$pair@$$CBV?$basic_string@DU?$char_traits@D@std@@V?$allocator@D@2@@std@@V?$weak_ptr@VScenes@@@2@@std@@PEAX@0@@Z 0000000140066590 f i main.obj
 0001:000655a0       ??$_Voidify_iter@PEAPEAU?$_Tree_node@U?$pair@$$CBV?$basic_string@DU?$char_traits@D@std@@V?$allocator@D@2@@std@@V?$weak_ptr@VShader@@@2@@std@@PEAX@std@@@std@@YAPEAXPEAPEAU?$_Tree_node@U?$pair@$$CBV?$basic_string@DU?$char_traits@D@std@@V?$allocator@D@2@@std@@V?$weak_ptr@VShader@@@2@@std@@PEAX@0@@Z 00000001400665a0 f i main.obj
 0001:000655b0       ??$_Voidify_iter@PEAPEAU?$_Tree_node@U?$pair@$$CBV?$basic_string@DU?$char_traits@D@std@@V?$allocator@D@2@@std@@V?$weak_ptr@VTexture2D@@@2@@std@@PEAX@std@@@std@@YAPEAXPEAPEAU?$_Tree_node@U?$pair@$$CBV?$basic_string@DU?$char_traits@D@std@@V?$allocator@D@2@@std@@V?$weak_ptr@VTexture2D@@@2@@std@@PEAX@0@@Z 00000001400665b0 f i main.obj
 0001:000655c0       ??$_Voidify_iter@PEAPEAV?$basic_json@Vmap@std@@Vvector@2@V?$basic_string@DU?$char_traits@D@std@@V?$allocator@D@2@@2@_N_J_KNVallocator@2@Uadl_serializer@json_abi_v3_11_2@nlohmann@@V?$vector@EV?$allocator@E@std@@@2@X@json_abi_v3_11_2@nlohmann@@@std@@YAPEAXPEAPEAV?$basic_json@Vmap@std@@Vvector@2@V?$basic_string@DU?$char_traits@D@std@@V?$allocator@D@2@@2@_N_J_KNVallocator@2@Uadl_serializer@json_abi_v3_11_2@nlohmann@@V?$vector@EV?$allocator@E@std@@@2@X@json_abi_v3_11_2@nlohmann@@@Z 00000001400665c0 f i main.obj
 0001:000655d0       ??$_Voidify_iter@PEAPEAVActor@@@std@@YAPEAXPEAPEAVActor@@@Z 00000001400665d0 f i main.obj
 0001:000655e0       ??$_Voidify_iter@PEAPEAVAnimationChannel@@@std@@YAPEAXPEAPEAVAnimationChannel@@@Z 00000001400665e0 f i main.obj
 0001:000655f0       ??$_Voidify_iter@PEAPEAVComponent@@@std@@YAPEAXPEAPEAVComponent@@@Z 00000001400665f0 f i main.obj
 0001:00065600       ??$_Voidify_iter@PEAPEAVNode@@@std@@YAPEAXPEAPEAVNode@@@Z 0000000140066600 f i main.obj
 0001:00065610       ??$_Voidify_iter@PEAPEAVSkinInstance@@@std@@YAPEAXPEAPEAVSkinInstance@@@Z 0000000140066610 f i main.obj
 0001:00065620       ??$_Voidify_iter@PEAPEA_W@std@@YAPEAXPEAPEA_W@Z 0000000140066620 f i main.obj
 0001:00065630       ??$_Voidify_iter@PEAU?$pair@$$CBV?$basic_string@DU?$char_traits@D@std@@V?$allocator@D@2@@std@@PEAUmat4@@@std@@@std@@YAPEAXPEAU?$pair@$$CBV?$basic_string@DU?$char_traits@D@std@@V?$allocator@D@2@@std@@PEAUmat4@@@0@@Z 0000000140066630 f i main.obj
 0001:00065640       ??$_Voidify_iter@PEAU?$pair@$$CBV?$basic_string@DU?$char_traits@D@std@@V?$allocator@D@2@@std@@V?$basic_json@Vmap@std@@Vvector@2@V?$basic_string@DU?$char_traits@D@std@@V?$allocator@D@2@@2@_N_J_KNVallocator@2@Uadl_serializer@json_abi_v3_11_2@nlohmann@@V?$vector@EV?$allocator@E@std@@@2@X@json_abi_v3_11_2@nlohmann@@@std@@@std@@YAPEAXPEAU?$pair@$$CBV?$basic_string@DU?$char_traits@D@std@@V?$allocator@D@2@@std@@V?$basic_json@Vmap@std@@Vvector@2@V?$basic_string@DU?$char_traits@D@std@@V?$allocator@D@2@@2@_N_J_KNVallocator@2@Uadl_serializer@json_abi_v3_11_2@nlohmann@@V?$vector@EV?$allocator@E@std@@@2@X@json_abi_v3_11_2@nlohmann@@@0@@Z 0000000140066640 f i main.obj
 0001:00065650       ??$_Voidify_iter@PEAU?$pair@$$CBV?$basic_string@DU?$char_traits@D@std@@V?$allocator@D@2@@std@@V?$weak_ptr@VImage@@@2@@std@@@std@@YAPEAXPEAU?$pair@$$CBV?$basic_string@DU?$char_traits@D@std@@V?$allocator@D@2@@std@@V?$weak_ptr@VImage@@@2@@0@@Z 0000000140066650 f i main.obj
 0001:00065660       ??$_Voidify_iter@PEAU?$pair@$$CBV?$basic_string@DU?$char_traits@D@std@@V?$allocator@D@2@@std@@V?$weak_ptr@VScenes@@@2@@std@@@std@@YAPEAXPEAU?$pair@$$CBV?$basic_string@DU?$char_traits@D@std@@V?$allocator@D@2@@std@@V?$weak_ptr@VScenes@@@2@@0@@Z 0000000140066660 f i main.obj
 0001:00065670       ??$_Voidify_iter@PEAU?$pair@$$CBV?$basic_string@DU?$char_traits@D@std@@V?$allocator@D@2@@std@@V?$weak_ptr@VShader@@@2@@std@@@std@@YAPEAXPEAU?$pair@$$CBV?$basic_string@DU?$char_traits@D@std@@V?$allocator@D@2@@std@@V?$weak_ptr@VShader@@@2@@0@@Z 0000000140066670 f i main.obj
 0001:00065680       ??$_Voidify_iter@PEAU?$pair@$$CBV?$basic_string@DU?$char_traits@D@std@@V?$allocator@D@2@@std@@V?$weak_ptr@VTexture2D@@@2@@std@@@std@@YAPEAXPEAU?$pair@$$CBV?$basic_string@DU?$char_traits@D@std@@V?$allocator@D@2@@std@@V?$weak_ptr@VTexture2D@@@2@@0@@Z 0000000140066680 f i main.obj
 0001:00065690       ??$_Voidify_iter@PEAU?$pair@V?$basic_string@DU?$char_traits@D@std@@V?$allocator@D@2@@std@@H@std@@@std@@YAPEAXPEAU?$pair@V?$basic_string@DU?$char_traits@D@std@@V?$allocator@D@2@@std@@H@0@@Z 0000000140066690 f i main.obj
 0001:000656a0       ??$_Voidify_iter@PEAU?$pair@V?$basic_string@DU?$char_traits@D@std@@V?$allocator@D@2@@std@@V?$shared_ptr@VTexture2D@@@2@@std@@@std@@YAPEAXPEAU?$pair@V?$basic_string@DU?$char_traits@D@std@@V?$allocator@D@2@@std@@V?$shared_ptr@VTexture2D@@@2@@0@@Z 00000001400666a0 f i main.obj
 0001:000656b0       ??$_Voidify_iter@PEAU?$quatt@M@@@std@@YAPEAXPEAU?$quatt@M@@@Z 00000001400666b0 f i main.obj
 0001:000656c0       ??$_Voidify_iter@PEAU?$vec2t@M@@@std@@YAPEAXPEAU?$vec2t@M@@@Z 00000001400666c0 f i main.obj
 0001:000656d0       ??$_Voidify_iter@PEAU?$vec3t@M@@@std@@YAPEAXPEAU?$vec3t@M@@@Z 00000001400666d0 f i main.obj
 0001:000656e0       ??$_Voidify_iter@PEAU?$vec4t@H@@@std@@YAPEAXPEAU?$vec4t@H@@@Z 00000001400666e0 f i main.obj
 0001:000656f0       ??$_Voidify_iter@PEAU?$vec4t@M@@@std@@YAPEAXPEAU?$vec4t@M@@@Z 00000001400666f0 f i main.obj
 0001:00065700       ??$_Voidify_iter@PEAUAccessor@gltf@@@std@@YAPEAXPEAUAccessor@gltf@@@Z 0000000140066700 f i main.obj
 0001:00065710       ??$_Voidify_iter@PEAUAnimation@gltf@@@std@@YAPEAXPEAUAnimation@gltf@@@Z 0000000140066710 f i main.obj
 0001:00065720       ??$_Voidify_iter@PEAUAnimationChannel@gltf@@@std@@YAPEAXPEAUAnimationChannel@gltf@@@Z 0000000140066720 f i main.obj
 0001:00065730       ??$_Voidify_iter@PEAUAnimationSampler@gltf@@@std@@YAPEAXPEAUAnimationSampler@gltf@@@Z 0000000140066730 f i main.obj
 0001:00065740       ??$_Voidify_iter@PEAUBuffer@gltf@@@std@@YAPEAXPEAUBuffer@gltf@@@Z 0000000140066740 f i main.obj
 0001:00065750       ??$_Voidify_iter@PEAUBufferView@gltf@@@std@@YAPEAXPEAUBufferView@gltf@@@Z 0000000140066750 f i main.obj
 0001:00065760       ??$_Voidify_iter@PEAUImage@gltf@@@std@@YAPEAXPEAUImage@gltf@@@Z 0000000140066760 f i main.obj
 0001:00065770       ??$_Voidify_iter@PEAUMaterial@gltf@@@std@@YAPEAXPEAUMaterial@gltf@@@Z 0000000140066770 f i main.obj
 0001:00065780       ??$_Voidify_iter@PEAUMesh@gltf@@@std@@YAPEAXPEAUMesh@gltf@@@Z 0000000140066780 f i main.obj
 0001:00065790       ??$_Voidify_iter@PEAUMeshPrimitive@gltf@@@std@@YAPEAXPEAUMeshPrimitive@gltf@@@Z 0000000140066790 f i main.obj
 0001:000657a0       ??$_Voidify_iter@PEAUNode@gltf@@@std@@YAPEAXPEAUNode@gltf@@@Z 00000001400667a0 f i main.obj
 0001:000657b0       ??$_Voidify_iter@PEAUSampler@gltf@@@std@@YAPEAXPEAUSampler@gltf@@@Z 00000001400667b0 f i main.obj
 0001:000657c0       ??$_Voidify_iter@PEAUScene@gltf@@@std@@YAPEAXPEAUScene@gltf@@@Z 00000001400667c0 f i main.obj
 0001:000657d0       ??$_Voidify_iter@PEAUSkin@gltf@@@std@@YAPEAXPEAUSkin@gltf@@@Z 00000001400667d0 f i main.obj
 0001:000657e0       ??$_Voidify_iter@PEAUTexture@gltf@@@std@@YAPEAXPEAUTexture@gltf@@@Z 00000001400667e0 f i main.obj
 0001:000657f0       ??$_Voidify_iter@PEAUmat4@@@std@@YAPEAXPEAUmat4@@@Z 00000001400667f0 f i main.obj
 0001:00065800       ??$_Voidify_iter@PEAV?$basic_json@Vmap@std@@Vvector@2@V?$basic_string@DU?$char_traits@D@std@@V?$allocator@D@2@@2@_N_J_KNVallocator@2@Uadl_serializer@json_abi_v3_11_2@nlohmann@@V?$vector@EV?$allocator@E@std@@@2@X@json_abi_v3_11_2@nlohmann@@@std@@YAPEAXPEAV?$basic_json@Vmap@std@@Vvector@2@V?$basic_string@DU?$char_traits@D@std@@V?$allocator@D@2@@2@_N_J_KNVallocator@2@Uadl_serializer@json_abi_v3_11_2@nlohmann@@V?$vector@EV?$allocator@E@std@@@2@X@json_abi_v3_11_2@nlohmann@@@Z 0000000140066800 f i main.obj
 0001:00065810       ??$_Voidify_iter@PEAV?$basic_string@DU?$char_traits@D@std@@V?$allocator@D@2@@std@@@std@@YAPEAXPEAV?$basic_string@DU?$char_traits@D@std@@V?$allocator@D@2@@0@@Z 0000000140066810 f i main.obj
 0001:00065820       ??$_Voidify_iter@PEAV?$byte_container_with_subtype@V?$vector@EV?$allocator@E@std@@@std@@@json_abi_v3_11_2@nlohmann@@@std@@YAPEAXPEAV?$byte_container_with_subtype@V?$vector@EV?$allocator@E@std@@@std@@@json_abi_v3_11_2@nlohmann@@@Z 0000000140066820 f i main.obj
 0001:00065830       ??$_Voidify_iter@PEAV?$map@V?$basic_string@DU?$char_traits@D@std@@V?$allocator@D@2@@std@@V?$basic_json@Vmap@std@@Vvector@2@V?$basic_string@DU?$char_traits@D@std@@V?$allocator@D@2@@2@_N_J_KNVallocator@2@Uadl_serializer@json_abi_v3_11_2@nlohmann@@V?$vector@EV?$allocator@E@std@@@2@X@json_abi_v3_11_2@nlohmann@@U?$less@X@2@V?$allocator@U?$pair@$$CBV?$basic_string@DU?$char_traits@D@std@@V?$allocator@D@2@@std@@V?$basic_json@Vmap@std@@Vvector@2@V?$basic_string@DU?$char_traits@D@std@@V?$allocator@D@2@@2@_N_J_KNVallocator@2@Uadl_serializer@json_abi_v3_11_2@nlohmann@@V?$vector@EV?$allocator@E@std@@@2@X@json_abi_v3_11_2@nlohmann@@@std@@@2@@std@@@std@@YAPEAXPEAV?$map@V?$basic_string@DU?$char_traits@D@std@@V?$allocator@D@2@@std@@V?$basic_json@Vmap@std@@Vvector@2@V?$basic_string@DU?$char_traits@D@std@@V?$allocator@D@2@@2@_N_J_KNVallocator@2@Uadl_serializer@json_abi_v3_11_2@nlohmann@@V?$vector@EV?$allocator@E@std@@@2@X@json_abi_v3_11_2@nlohmann@@U?$less@X@2@V?$allocator@U?$pair@$$CBV?$basic_string@DU?$char_traits@D@std@@V?$allocator@D@2@@std@@V?$basic_json@Vmap@std@@Vvector@2@V?$basic_string@DU?$char_traits@D@std@@V?$allocator@D@2@@2@_N_J_KNVallocator@2@Uadl_serializer@json_abi_v3_11_2@nlohmann@@V?$vector@EV?$allocator@E@std@@@2@X@json_abi_v3_11_2@nlohmann@@@std@@@2@@0@@Z 0000000140066830 f i main.obj
 0001:00065840       ??$_Voidify_iter@PEAV?$shared_ptr@VAnimation@@@std@@@std@@YAPEAXPEAV?$shared_ptr@VAnimation@@@0@@Z 0000000140066840 f i main.obj
 0001:00065850       ??$_Voidify_iter@PEAV?$shared_ptr@VMaterial@@@std@@@std@@YAPEAXPEAV?$shared_ptr@VMaterial@@@0@@Z 0000000140066850 f i main.obj
 0001:00065860       ??$_Voidify_iter@PEAV?$shared_ptr@VMesh@@@std@@@std@@YAPEAXPEAV?$shared_ptr@VMesh@@@0@@Z 0000000140066860 f i main.obj
 0001:00065870       ??$_Voidify_iter@PEAV?$shared_ptr@VSkin@@@std@@@std@@YAPEAXPEAV?$shared_ptr@VSkin@@@0@@Z 0000000140066870 f i main.obj
 0001:00065880       ??$_Voidify_iter@PEAV?$shared_ptr@VTexture2D@@@std@@@std@@YAPEAXPEAV?$shared_ptr@VTexture2D@@@0@@Z 0000000140066880 f i main.obj
 0001:00065890       ??$_Voidify_iter@PEAV?$vector@V?$basic_json@Vmap@std@@Vvector@2@V?$basic_string@DU?$char_traits@D@std@@V?$allocator@D@2@@2@_N_J_KNVallocator@2@Uadl_serializer@json_abi_v3_11_2@nlohmann@@V?$vector@EV?$allocator@E@std@@@2@X@json_abi_v3_11_2@nlohmann@@V?$allocator@V?$basic_json@Vmap@std@@Vvector@2@V?$basic_string@DU?$char_traits@D@std@@V?$allocator@D@2@@2@_N_J_KNVallocator@2@Uadl_serializer@json_abi_v3_11_2@nlohmann@@V?$vector@EV?$allocator@E@std@@@2@X@json_abi_v3_11_2@nlohmann@@@std@@@std@@@std@@YAPEAXPEAV?$vector@V?$basic_json@Vmap@std@@Vvector@2@V?$basic_string@DU?$char_traits@D@std@@V?$allocator@D@2@@2@_N_J_KNVallocator@2@Uadl_serializer@json_abi_v3_11_2@nlohmann@@V?$vector@EV?$allocator@E@std@@@2@X@json_abi_v3_11_2@nlohmann@@V?$allocator@V?$basic_json@Vmap@std@@Vvector@2@V?$basic_string@DU?$char_traits@D@std@@V?$allocator@D@2@@2@_N_J_KNVallocator@2@Uadl_serializer@json_abi_v3_11_2@nlohmann@@V?$vector@EV?$allocator@E@std@@@2@X@json_abi_v3_11_2@nlohmann@@@std@@@0@@Z 0000000140066890 f i main.obj
 0001:000658a0       ??$_Voidify_iter@PEAVAnimation@@@std@@YAPEAXPEAVAnimation@@@Z 00000001400668a0 f i main.obj
 0001:000658b0       ??$_Voidify_iter@PEAVAnimationChannel@@@std@@YAPEAXPEAVAnimationChannel@@@Z 00000001400668b0 f i main.obj
 0001:000658c0       ??$_Voidify_iter@PEAVAnimationInstance@@@std@@YAPEAXPEAVAnimationInstance@@@Z 00000001400668c0 f i main.obj
 0001:000658d0       ??$_Voidify_iter@PEAVAnimationInstanceView@@@std@@YAPEAXPEAVAnimationInstanceView@@@Z 00000001400668d0 f i main.obj
 0001:000658e0       ??$_Voidify_iter@PEAVAnimationSampler@@@std@@YAPEAXPEAVAnimationSampler@@@Z 00000001400668e0 f i main.obj
 0001:000658f0       ??$_Voidify_iter@PEAVImage@@@std@@YAPEAXPEAVImage@@@Z 00000001400668f0 f i main.obj
 0001:00065900       ??$_Voidify_iter@PEAVMaterial@@@std@@YAPEAXPEAVMaterial@@@Z 0000000140066900 f i main.obj
 0001:00065910       ??$_Voidify_iter@PEAVMesh@@@std@@YAPEAXPEAVMesh@@@Z 0000000140066910 f i main.obj
 0001:00065920       ??$_Voidify_iter@PEAVMeshPrimitive@@@std@@YAPEAXPEAVMeshPrimitive@@@Z 0000000140066920 f i main.obj
 0001:00065930       ??$_Voidify_iter@PEAVScene@@@std@@YAPEAXPEAVScene@@@Z 0000000140066930 f i main.obj
 0001:00065940       ??$_Voidify_iter@PEAVSceneNode@@@std@@YAPEAXPEAVSceneNode@@@Z 0000000140066940 f i main.obj
 0001:00065950       ??$_Voidify_iter@PEAVScenes@@@std@@YAPEAXPEAVScenes@@@Z 0000000140066950 f i main.obj
 0001:00065960       ??$_Voidify_iter@PEAVShader@@@std@@YAPEAXPEAVShader@@@Z 0000000140066960 f i main.obj
 0001:00065970       ??$_Voidify_iter@PEAVSkin@@@std@@YAPEAXPEAVSkin@@@Z 0000000140066970 f i main.obj
 0001:00065980       ??$_Voidify_iter@PEAVTexture2D@@@std@@YAPEAXPEAVTexture2D@@@Z 0000000140066980 f i main.obj
 0001:00065990       ??$_Voidify_iter@PEA_W@std@@YAPEAXPEA_W@Z 0000000140066990 f i main.obj
 0001:000659a0       ??$_Weakly_construct_from@VImage@@@?$_Ptr_base@VImage@@@std@@IEAAXAEBV01@@Z 00000001400669a0 f i main.obj
 0001:00065a10       ??$_Weakly_construct_from@VScenes@@@?$_Ptr_base@VScenes@@@std@@IEAAXAEBV01@@Z 0000000140066a10 f i main.obj
 0001:00065a80       ??$_Weakly_construct_from@VShader@@@?$_Ptr_base@VShader@@@std@@IEAAXAEBV01@@Z 0000000140066a80 f i main.obj
 0001:00065af0       ??$_Weakly_construct_from@VTexture2D@@@?$_Ptr_base@VTexture2D@@@std@@IEAAXAEBV01@@Z 0000000140066af0 f i main.obj
 0001:00065b60       ??$_Zero_range@PEAG@std@@YAPEAGQEAG0@Z 0000000140066b60 f i main.obj
 0001:00065bd0       ??$_Zero_range@PEAH@std@@YAPEAHQEAH0@Z 0000000140066bd0 f i main.obj
 0001:00065c40       ??$_Zero_range@PEAI@std@@YAPEAIQEAI0@Z 0000000140066c40 f i main.obj
 0001:00065cb0       ??$_Zero_range@PEAM@std@@YAPEAMQEAM0@Z 0000000140066cb0 f i main.obj
 0001:00065d20       ??$_Zero_range@PEAPEAVActor@@@std@@YAPEAPEAVActor@@QEAPEAV1@0@Z 0000000140066d20 f i main.obj
 0001:00065d90       ??$_Zero_range@PEAPEAVSkinInstance@@@std@@YAPEAPEAVSkinInstance@@QEAPEAV1@0@Z 0000000140066d90 f i main.obj
 0001:00065e00       ??$addressof@$$CBV?$_String_val@U?$_Simple_types@D@std@@@std@@@std@@YAPEBV?$_String_val@U?$_Simple_types@D@std@@@0@AEBV10@@Z 0000000140066e00 f i main.obj
 0001:00065e10       ??$addressof@$$CBV?$_Tree_val@U?$_Tree_simple_types@U?$pair@$$CBV?$basic_string@DU?$char_traits@D@std@@V?$allocator@D@2@@std@@PEAUmat4@@@std@@@std@@@std@@@std@@YAPEBV?$_Tree_val@U?$_Tree_simple_types@U?$pair@$$CBV?$basic_string@DU?$char_traits@D@std@@V?$allocator@D@2@@std@@PEAUmat4@@@std@@@std@@@0@AEBV10@@Z 0000000140066e10 f i main.obj
 0001:00065e20       ??$addressof@$$CBV?$_Tree_val@U?$_Tree_simple_types@U?$pair@$$CBV?$basic_string@DU?$char_traits@D@std@@V?$allocator@D@2@@std@@V?$basic_json@Vmap@std@@Vvector@2@V?$basic_string@DU?$char_traits@D@std@@V?$allocator@D@2@@2@_N_J_KNVallocator@2@Uadl_serializer@json_abi_v3_11_2@nlohmann@@V?$vector@EV?$allocator@E@std@@@2@X@json_abi_v3_11_2@nlohmann@@@std@@@std@@@std@@@std@@YAPEBV?$_Tree_val@U?$_Tree_simple_types@U?$pair@$$CBV?$basic_string@DU?$char_traits@D@std@@V?$allocator@D@2@@std@@V?$basic_json@Vmap@std@@Vvector@2@V?$basic_string@DU?$char_traits@D@std@@V?$allocator@D@2@@2@_N_J_KNVallocator@2@Uadl_serializer@json_abi_v3_11_2@nlohmann@@V?$vector@EV?$allocator@E@std@@@2@X@json_abi_v3_11_2@nlohmann@@@std@@@std@@@0@AEBV10@@Z 0000000140066e20 f i main.obj
 0001:00065e30       ??$addressof@$$CBV?$_Tree_val@U?$_Tree_simple_types@U?$pair@$$CBV?$basic_string@DU?$char_traits@D@std@@V?$allocator@D@2@@std@@V?$weak_ptr@VImage@@@2@@std@@@std@@@std@@@std@@YAPEBV?$_Tree_val@U?$_Tree_simple_types@U?$pair@$$CBV?$basic_string@DU?$char_traits@D@std@@V?$allocator@D@2@@std@@V?$weak_ptr@VImage@@@2@@std@@@std@@@0@AEBV10@@Z 0000000140066e30 f i main.obj
 0001:00065e40       ??$addressof@$$CBV?$_Tree_val@U?$_Tree_simple_types@U?$pair@$$CBV?$basic_string@DU?$char_traits@D@std@@V?$allocator@D@2@@std@@V?$weak_ptr@VScenes@@@2@@std@@@std@@@std@@@std@@YAPEBV?$_Tree_val@U?$_Tree_simple_types@U?$pair@$$CBV?$basic_string@DU?$char_traits@D@std@@V?$allocator@D@2@@std@@V?$weak_ptr@VScenes@@@2@@std@@@std@@@0@AEBV10@@Z 0000000140066e40 f i main.obj
 0001:00065e50       ??$addressof@$$CBV?$_Tree_val@U?$_Tree_simple_types@U?$pair@$$CBV?$basic_string@DU?$char_traits@D@std@@V?$allocator@D@2@@std@@V?$weak_ptr@VShader@@@2@@std@@@std@@@std@@@std@@YAPEBV?$_Tree_val@U?$_Tree_simple_types@U?$pair@$$CBV?$basic_string@DU?$char_traits@D@std@@V?$allocator@D@2@@std@@V?$weak_ptr@VShader@@@2@@std@@@std@@@0@AEBV10@@Z 0000000140066e50 f i main.obj
 0001:00065e60       ??$addressof@$$CBV?$_Tree_val@U?$_Tree_simple_types@U?$pair@$$CBV?$basic_string@DU?$char_traits@D@std@@V?$allocator@D@2@@std@@V?$weak_ptr@VTexture2D@@@2@@std@@@std@@@std@@@std@@YAPEBV?$_Tree_val@U?$_Tree_simple_types@U?$pair@$$CBV?$basic_string@DU?$char_traits@D@std@@V?$allocator@D@2@@std@@V?$weak_ptr@VTexture2D@@@2@@std@@@std@@@0@AEBV10@@Z 0000000140066e60 f i main.obj
 0001:00065e70       ??$addressof@$$CBV?$_Vector_val@U?$_Simple_types@U?$pair@V?$basic_string@DU?$char_traits@D@std@@V?$allocator@D@2@@std@@H@std@@@std@@@std@@@std@@YAPEBV?$_Vector_val@U?$_Simple_types@U?$pair@V?$basic_string@DU?$char_traits@D@std@@V?$allocator@D@2@@std@@H@std@@@std@@@0@AEBV10@@Z 0000000140066e70 f i main.obj
 0001:00065e80       ??$addressof@$$CBV?$basic_string@DU?$char_traits@D@std@@V?$allocator@D@2@@std@@@std@@YAPEBV?$basic_string@DU?$char_traits@D@std@@V?$allocator@D@2@@0@AEBV10@@Z 0000000140066e80 f i main.obj
 0001:00065e90       ??$addressof@$$CBV?$codecvt@DDU_Mbstatet@@@std@@@std@@YAPEBV?$codecvt@DDU_Mbstatet@@@0@AEBV10@@Z 0000000140066e90 f i main.obj
 0001:00065ea0       ??$addressof@$$CBV?$vector@HV?$allocator@H@std@@@std@@@std@@YAPEBV?$vector@HV?$allocator@H@std@@@0@AEBV10@@Z 0000000140066ea0 f i main.obj
 0001:00065eb0       ??$addressof@D@std@@YAPEADAEAD@Z 0000000140066eb0 f i main.obj
 0001:00065ec0       ??$addressof@H@std@@YAPEAHAEAH@Z 0000000140066ec0 f i main.obj
 0001:00065ed0       ??$addressof@M@std@@YAPEAMAEAM@Z 0000000140066ed0 f i main.obj
 0001:00065ee0       ??$addressof@PEAD@std@@YAPEAPEADAEAPEAD@Z 0000000140066ee0 f i main.obj
 0001:00065ef0       ??$addressof@PEAU?$_Tree_node@U?$pair@$$CBV?$basic_string@DU?$char_traits@D@std@@V?$allocator@D@2@@std@@PEAUmat4@@@std@@PEAX@std@@@std@@YAPEAPEAU?$_Tree_node@U?$pair@$$CBV?$basic_string@DU?$char_traits@D@std@@V?$allocator@D@2@@std@@PEAUmat4@@@std@@PEAX@0@AEAPEAU10@@Z 0000000140066ef0 f i main.obj
 0001:00065f00       ??$addressof@PEAU?$_Tree_node@U?$pair@$$CBV?$basic_string@DU?$char_traits@D@std@@V?$allocator@D@2@@std@@V?$basic_json@Vmap@std@@Vvector@2@V?$basic_string@DU?$char_traits@D@std@@V?$allocator@D@2@@2@_N_J_KNVallocator@2@Uadl_serializer@json_abi_v3_11_2@nlohmann@@V?$vector@EV?$allocator@E@std@@@2@X@json_abi_v3_11_2@nlohmann@@@std@@PEAX@std@@@std@@YAPEAPEAU?$_Tree_node@U?$pair@$$CBV?$basic_string@DU?$char_traits@D@std@@V?$allocator@D@2@@std@@V?$basic_json@Vmap@std@@Vvector@2@V?$basic_string@DU?$char_traits@D@std@@V?$allocator@D@2@@2@_N_J_KNVallocator@2@Uadl_serializer@json_abi_v3_11_2@nlohmann@@V?$vector@EV?$allocator@E@std@@@2@X@json_abi_v3_11_2@nlohmann@@@std@@PEAX@0@AEAPEAU10@@Z 0000000140066f00 f i main.obj
 0001:00065f10       ??$addressof@PEAU?$_Tree_node@U?$pair@$$CBV?$basic_string@DU?$char_traits@D@std@@V?$allocator@D@2@@std@@V?$weak_ptr@VImage@@@2@@std@@PEAX@std@@@std@@YAPEAPEAU?$_Tree_node@U?$pair@$$CBV?$basic_string@DU?$char_traits@D@std@@V?$allocator@D@2@@std@@V?$weak_ptr@VImage@@@2@@std@@PEAX@0@AEAPEAU10@@Z 0000000140066f10 f i main.obj
 0001:00065f20       ??$addressof@PEAU?$_Tree_node@U?$pair@$$CBV?$basic_string@DU?$char_traits@D@std@@V?$allocator@D@2@@std@@V?$weak_ptr@VScenes@@@2@@std@@PEAX@std@@@std@@YAPEAPEAU?$_Tree_node@U?$pair@$$CBV?$basic_string@DU?$char_traits@D@std@@V?$allocator@D@2@@std@@V?$weak_ptr@VScenes@@@2@@std@@PEAX@0@AEAPEAU10@@Z 0000000140066f20 f i main.obj
 0001:00065f30       ??$addressof@PEAU?$_Tree_node@U?$pair@$$CBV?$basic_string@DU?$char_traits@D@std@@V?$allocator@D@2@@std@@V?$weak_ptr@VShader@@@2@@std@@PEAX@std@@@std@@YAPEAPEAU?$_Tree_node@U?$pair@$$CBV?$basic_string@DU?$char_traits@D@std@@V?$allocator@D@2@@std@@V?$weak_ptr@VShader@@@2@@std@@PEAX@0@AEAPEAU10@@Z 0000000140066f30 f i main.obj
 0001:00065f40       ??$addressof@PEAU?$_Tree_node@U?$pair@$$CBV?$basic_string@DU?$char_traits@D@std@@V?$allocator@D@2@@std@@V?$weak_ptr@VTexture2D@@@2@@std@@PEAX@std@@@std@@YAPEAPEAU?$_Tree_node@U?$pair@$$CBV?$basic_string@DU?$char_traits@D@std@@V?$allocator@D@2@@std@@V?$weak_ptr@VTexture2D@@@2@@std@@PEAX@0@AEAPEAU10@@Z 0000000140066f40 f i main.obj
 0001:00065f50       ??$addressof@PEAV?$basic_json@Vmap@std@@Vvector@2@V?$basic_string@DU?$char_traits@D@std@@V?$allocator@D@2@@2@_N_J_KNVallocator@2@Uadl_serializer@json_abi_v3_11_2@nlohmann@@V?$vector@EV?$allocator@E@std@@@2@X@json_abi_v3_11_2@nlohmann@@@std@@YAPEAPEAV?$basic_json@Vmap@std@@Vvector@2@V?$basic_string@DU?$char_traits@D@std@@V?$allocator@D@2@@2@_N_J_KNVallocator@2@Uadl_serializer@json_abi_v3_11_2@nlohmann@@V?$vector@EV?$allocator@E@std@@@2@X@json_abi_v3_11_2@nlohmann@@AEAPEAV123@@Z 0000000140066f50 f i main.obj
 0001:00065f60       ??$addressof@PEAVAnimationChannel@@@std@@YAPEAPEAVAnimationChannel@@AEAPEAV1@@Z 0000000140066f60 f i main.obj
 0001:00065f70       ??$addressof@PEAVComponent@@@std@@YAPEAPEAVComponent@@AEAPEAV1@@Z 0000000140066f70 f i main.obj
 0001:00065f80       ??$addressof@PEAVNode@@@std@@YAPEAPEAVNode@@AEAPEAV1@@Z 0000000140066f80 f i main.obj
 0001:00065f90       ??$addressof@PEA_W@std@@YAPEAPEA_WAEAPEA_W@Z 0000000140066f90 f i main.obj
 0001:00065fa0       ??$addressof@U?$pair@$$CBV?$basic_string@DU?$char_traits@D@std@@V?$allocator@D@2@@std@@PEAUmat4@@@std@@@std@@YAPEAU?$pair@$$CBV?$basic_string@DU?$char_traits@D@std@@V?$allocator@D@2@@std@@PEAUmat4@@@0@AEAU10@@Z 0000000140066fa0 f i main.obj
 0001:00065fb0       ??$addressof@U?$pair@$$CBV?$basic_string@DU?$char_traits@D@std@@V?$allocator@D@2@@std@@V?$basic_json@Vmap@std@@Vvector@2@V?$basic_string@DU?$char_traits@D@std@@V?$allocator@D@2@@2@_N_J_KNVallocator@2@Uadl_serializer@json_abi_v3_11_2@nlohmann@@V?$vector@EV?$allocator@E@std@@@2@X@json_abi_v3_11_2@nlohmann@@@std@@@std@@YAPEAU?$pair@$$CBV?$basic_string@DU?$char_traits@D@std@@V?$allocator@D@2@@std@@V?$basic_json@Vmap@std@@Vvector@2@V?$basic_string@DU?$char_traits@D@std@@V?$allocator@D@2@@2@_N_J_KNVallocator@2@Uadl_serializer@json_abi_v3_11_2@nlohmann@@V?$vector@EV?$allocator@E@std@@@2@X@json_abi_v3_11_2@nlohmann@@@0@AEAU10@@Z 0000000140066fb0 f i main.obj
 0001:00065fc0       ??$addressof@U?$pair@$$CBV?$basic_string@DU?$char_traits@D@std@@V?$allocator@D@2@@std@@V?$weak_ptr@VImage@@@2@@std@@@std@@YAPEAU?$pair@$$CBV?$basic_string@DU?$char_traits@D@std@@V?$allocator@D@2@@std@@V?$weak_ptr@VImage@@@2@@0@AEAU10@@Z 0000000140066fc0 f i main.obj
 0001:00065fd0       ??$addressof@U?$pair@$$CBV?$basic_string@DU?$char_traits@D@std@@V?$allocator@D@2@@std@@V?$weak_ptr@VScenes@@@2@@std@@@std@@YAPEAU?$pair@$$CBV?$basic_string@DU?$char_traits@D@std@@V?$allocator@D@2@@std@@V?$weak_ptr@VScenes@@@2@@0@AEAU10@@Z 0000000140066fd0 f i main.obj
 0001:00065fe0       ??$addressof@U?$pair@$$CBV?$basic_string@DU?$char_traits@D@std@@V?$allocator@D@2@@std@@V?$weak_ptr@VShader@@@2@@std@@@std@@YAPEAU?$pair@$$CBV?$basic_string@DU?$char_traits@D@std@@V?$allocator@D@2@@std@@V?$weak_ptr@VShader@@@2@@0@AEAU10@@Z 0000000140066fe0 f i main.obj
 0001:00065ff0       ??$addressof@U?$pair@$$CBV?$basic_string@DU?$char_traits@D@std@@V?$allocator@D@2@@std@@V?$weak_ptr@VTexture2D@@@2@@std@@@std@@YAPEAU?$pair@$$CBV?$basic_string@DU?$char_traits@D@std@@V?$allocator@D@2@@std@@V?$weak_ptr@VTexture2D@@@2@@0@AEAU10@@Z 0000000140066ff0 f i main.obj
 0001:00066000       ??$addressof@U?$pair@V?$basic_string@DU?$char_traits@D@std@@V?$allocator@D@2@@std@@H@std@@@std@@YAPEAU?$pair@V?$basic_string@DU?$char_traits@D@std@@V?$allocator@D@2@@std@@H@0@AEAU10@@Z 0000000140067000 f i main.obj
 0001:00066010       ??$addressof@U?$pair@V?$basic_string@DU?$char_traits@D@std@@V?$allocator@D@2@@std@@V?$shared_ptr@VTexture2D@@@2@@std@@@std@@YAPEAU?$pair@V?$basic_string@DU?$char_traits@D@std@@V?$allocator@D@2@@std@@V?$shared_ptr@VTexture2D@@@2@@0@AEAU10@@Z 0000000140067010 f i main.obj
 0001:00066020       ??$addressof@V?$_String_val@U?$_Simple_types@D@std@@@std@@@std@@YAPEAV?$_String_val@U?$_Simple_types@D@std@@@0@AEAV10@@Z 0000000140067020 f i main.obj
 0001:00066030       ??$addressof@V?$_Tree_val@U?$_Tree_simple_types@U?$pair@$$CBV?$basic_string@DU?$char_traits@D@std@@V?$allocator@D@2@@std@@PEAUmat4@@@std@@@std@@@std@@@std@@YAPEAV?$_Tree_val@U?$_Tree_simple_types@U?$pair@$$CBV?$basic_string@DU?$char_traits@D@std@@V?$allocator@D@2@@std@@PEAUmat4@@@std@@@std@@@0@AEAV10@@Z 0000000140067030 f i main.obj
 0001:00066040       ??$addressof@V?$_Tree_val@U?$_Tree_simple_types@U?$pair@$$CBV?$basic_string@DU?$char_traits@D@std@@V?$allocator@D@2@@std@@V?$basic_json@Vmap@std@@Vvector@2@V?$basic_string@DU?$char_traits@D@std@@V?$allocator@D@2@@2@_N_J_KNVallocator@2@Uadl_serializer@json_abi_v3_11_2@nlohmann@@V?$vector@EV?$allocator@E@std@@@2@X@json_abi_v3_11_2@nlohmann@@@std@@@std@@@std@@@std@@YAPEAV?$_Tree_val@U?$_Tree_simple_types@U?$pair@$$CBV?$basic_string@DU?$char_traits@D@std@@V?$allocator@D@2@@std@@V?$basic_json@Vmap@std@@Vvector@2@V?$basic_string@DU?$char_traits@D@std@@V?$allocator@D@2@@2@_N_J_KNVallocator@2@Uadl_serializer@json_abi_v3_11_2@nlohmann@@V?$vector@EV?$allocator@E@std@@@2@X@json_abi_v3_11_2@nlohmann@@@std@@@std@@@0@AEAV10@@Z 0000000140067040 f i main.obj
 0001:00066050       ??$addressof@V?$_Tree_val@U?$_Tree_simple_types@U?$pair@$$CBV?$basic_string@DU?$char_traits@D@std@@V?$allocator@D@2@@std@@V?$weak_ptr@VImage@@@2@@std@@@std@@@std@@@std@@YAPEAV?$_Tree_val@U?$_Tree_simple_types@U?$pair@$$CBV?$basic_string@DU?$char_traits@D@std@@V?$allocator@D@2@@std@@V?$weak_ptr@VImage@@@2@@std@@@std@@@0@AEAV10@@Z 0000000140067050 f i main.obj
 0001:00066060       ??$addressof@V?$_Tree_val@U?$_Tree_simple_types@U?$pair@$$CBV?$basic_string@DU?$char_traits@D@std@@V?$allocator@D@2@@std@@V?$weak_ptr@VScenes@@@2@@std@@@std@@@std@@@std@@YAPEAV?$_Tree_val@U?$_Tree_simple_types@U?$pair@$$CBV?$basic_string@DU?$char_traits@D@std@@V?$allocator@D@2@@std@@V?$weak_ptr@VScenes@@@2@@std@@@std@@@0@AEAV10@@Z 0000000140067060 f i main.obj
 0001:00066070       ??$addressof@V?$_Tree_val@U?$_Tree_simple_types@U?$pair@$$CBV?$basic_string@DU?$char_traits@D@std@@V?$allocator@D@2@@std@@V?$weak_ptr@VShader@@@2@@std@@@std@@@std@@@std@@YAPEAV?$_Tree_val@U?$_Tree_simple_types@U?$pair@$$CBV?$basic_string@DU?$char_traits@D@std@@V?$allocator@D@2@@std@@V?$weak_ptr@VShader@@@2@@std@@@std@@@0@AEAV10@@Z 0000000140067070 f i main.obj
 0001:00066080       ??$addressof@V?$_Tree_val@U?$_Tree_simple_types@U?$pair@$$CBV?$basic_string@DU?$char_traits@D@std@@V?$allocator@D@2@@std@@V?$weak_ptr@VTexture2D@@@2@@std@@@std@@@std@@@std@@YAPEAV?$_Tree_val@U?$_Tree_simple_types@U?$pair@$$CBV?$basic_string@DU?$char_traits@D@std@@V?$allocator@D@2@@std@@V?$weak_ptr@VTexture2D@@@2@@std@@@std@@@0@AEAV10@@Z 0000000140067080 f i main.obj
 0001:00066090       ??$addressof@V?$_Vector_val@U?$_Simple_types@G@std@@@std@@@std@@YAPEAV?$_Vector_val@U?$_Simple_types@G@std@@@0@AEAV10@@Z 0000000140067090 f i main.obj
 0001:000660a0       ??$addressof@V?$_Vector_val@U?$_Simple_types@I@std@@@std@@@std@@YAPEAV?$_Vector_val@U?$_Simple_types@I@std@@@0@AEAV10@@Z 00000001400670a0 f i main.obj
 0001:000660b0       ??$addressof@V?$_Vector_val@U?$_Simple_types@V?$basic_json@Vmap@std@@Vvector@2@V?$basic_string@DU?$char_traits@D@std@@V?$allocator@D@2@@2@_N_J_KNVallocator@2@Uadl_serializer@json_abi_v3_11_2@nlohmann@@V?$vector@EV?$allocator@E@std@@@2@X@json_abi_v3_11_2@nlohmann@@@std@@@std@@@std@@YAPEAV?$_Vector_val@U?$_Simple_types@V?$basic_json@Vmap@std@@Vvector@2@V?$basic_string@DU?$char_traits@D@std@@V?$allocator@D@2@@2@_N_J_KNVallocator@2@Uadl_serializer@json_abi_v3_11_2@nlohmann@@V?$vector@EV?$allocator@E@std@@@2@X@json_abi_v3_11_2@nlohmann@@@std@@@0@AEAV10@@Z 00000001400670b0 f i main.obj
 0001:000660c0       ??$addressof@V?$basic_filebuf@DU?$char_traits@D@std@@@std@@@std@@YAPEAV?$basic_filebuf@DU?$char_traits@D@std@@@0@AEAV10@@Z 00000001400670c0 f i main.obj
 0001:000660d0       ??$addressof@V?$basic_json@Vmap@std@@Vvector@2@V?$basic_string@DU?$char_traits@D@std@@V?$allocator@D@2@@2@_N_J_KNVallocator@2@Uadl_serializer@json_abi_v3_11_2@nlohmann@@V?$vector@EV?$allocator@E@std@@@2@X@json_abi_v3_11_2@nlohmann@@@std@@YAPEAV?$basic_json@Vmap@std@@Vvector@2@V?$basic_string@DU?$char_traits@D@std@@V?$allocator@D@2@@2@_N_J_KNVallocator@2@Uadl_serializer@json_abi_v3_11_2@nlohmann@@V?$vector@EV?$allocator@E@std@@@2@X@json_abi_v3_11_2@nlohmann@@AEAV123@@Z 00000001400670d0 f i main.obj
 0001:000660e0       ??$addressof@V?$basic_string@DU?$char_traits@D@std@@V?$allocator@D@2@@std@@@std@@YAPEAV?$basic_string@DU?$char_traits@D@std@@V?$allocator@D@2@@0@AEAV10@@Z 00000001400670e0 f i main.obj
 0001:000660f0       ??$addressof@V?$vector@IV?$allocator@I@std@@@std@@@std@@YAPEAV?$vector@IV?$allocator@I@std@@@0@AEAV10@@Z 00000001400670f0 f i main.obj
 0001:00066100       ??$addressof@V?$vector@V?$basic_json@Vmap@std@@Vvector@2@V?$basic_string@DU?$char_traits@D@std@@V?$allocator@D@2@@2@_N_J_KNVallocator@2@Uadl_serializer@json_abi_v3_11_2@nlohmann@@V?$vector@EV?$allocator@E@std@@@2@X@json_abi_v3_11_2@nlohmann@@V?$allocator@V?$basic_json@Vmap@std@@Vvector@2@V?$basic_string@DU?$char_traits@D@std@@V?$allocator@D@2@@2@_N_J_KNVallocator@2@Uadl_serializer@json_abi_v3_11_2@nlohmann@@V?$vector@EV?$allocator@E@std@@@2@X@json_abi_v3_11_2@nlohmann@@@std@@@std@@@std@@YAPEAV?$vector@V?$basic_json@Vmap@std@@Vvector@2@V?$basic_string@DU?$char_traits@D@std@@V?$allocator@D@2@@2@_N_J_KNVallocator@2@Uadl_serializer@json_abi_v3_11_2@nlohmann@@V?$vector@EV?$allocator@E@std@@@2@X@json_abi_v3_11_2@nlohmann@@V?$allocator@V?$basic_json@Vmap@std@@Vvector@2@V?$basic_string@DU?$char_traits@D@std@@V?$allocator@D@2@@2@_N_J_KNVallocator@2@Uadl_serializer@json_abi_v3_11_2@nlohmann@@V?$vector@EV?$allocator@E@std@@@2@X@json_abi_v3_11_2@nlohmann@@@std@@@0@AEAV10@@Z 0000000140067100 f i main.obj
 0001:00066110       ??$addressof@VAnimation@@@std@@YAPEAVAnimation@@AEAV1@@Z 0000000140067110 f i main.obj
 0001:00066120       ??$addressof@VAnimationInstanceView@@@std@@YAPEAVAnimationInstanceView@@AEAV1@@Z 0000000140067120 f i main.obj
 0001:00066130       ??$addressof@VImage@@@std@@YAPEAVImage@@AEAV1@@Z 0000000140067130 f i main.obj
 0001:00066140       ??$addressof@VMaterial@@@std@@YAPEAVMaterial@@AEAV1@@Z 0000000140067140 f i main.obj
 0001:00066150       ??$addressof@VMesh@@@std@@YAPEAVMesh@@AEAV1@@Z 0000000140067150 f i main.obj
 0001:00066160       ??$addressof@VScenes@@@std@@YAPEAVScenes@@AEAV1@@Z 0000000140067160 f i main.obj
 0001:00066170       ??$addressof@VShader@@@std@@YAPEAVShader@@AEAV1@@Z 0000000140067170 f i main.obj
 0001:00066180       ??$addressof@VSkin@@@std@@YAPEAVSkin@@AEAV1@@Z 0000000140067180 f i main.obj
 0001:00066190       ??$addressof@VTexture2D@@@std@@YAPEAVTexture2D@@AEAV1@@Z 0000000140067190 f i main.obj
 0001:000661a0       ??$addressof@_W@std@@YAPEA_WAEA_W@Z 00000001400671a0 f i main.obj
 0001:000661b0       ??$advance@V?$_Tree_iterator@V?$_Tree_val@U?$_Tree_simple_types@U?$pair@$$CBV?$basic_string@DU?$char_traits@D@std@@V?$allocator@D@2@@std@@V?$basic_json@Vmap@std@@Vvector@2@V?$basic_string@DU?$char_traits@D@std@@V?$allocator@D@2@@2@_N_J_KNVallocator@2@Uadl_serializer@json_abi_v3_11_2@nlohmann@@V?$vector@EV?$allocator@E@std@@@2@X@json_abi_v3_11_2@nlohmann@@@std@@@std@@@std@@@std@@H@std@@YAXAEAV?$_Tree_iterator@V?$_Tree_val@U?$_Tree_simple_types@U?$pair@$$CBV?$basic_string@DU?$char_traits@D@std@@V?$allocator@D@2@@std@@V?$basic_json@Vmap@std@@Vvector@2@V?$basic_string@DU?$char_traits@D@std@@V?$allocator@D@2@@2@_N_J_KNVallocator@2@Uadl_serializer@json_abi_v3_11_2@nlohmann@@V?$vector@EV?$allocator@E@std@@@2@X@json_abi_v3_11_2@nlohmann@@@std@@@std@@@std@@@0@H@Z 00000001400671b0 f i main.obj
 0001:00066250       ??$advance@V?$_Vector_iterator@V?$_Vector_val@U?$_Simple_types@V?$basic_json@Vmap@std@@Vvector@2@V?$basic_string@DU?$char_traits@D@std@@V?$allocator@D@2@@2@_N_J_KNVallocator@2@Uadl_serializer@json_abi_v3_11_2@nlohmann@@V?$vector@EV?$allocator@E@std@@@2@X@json_abi_v3_11_2@nlohmann@@@std@@@std@@@std@@H@std@@YAXAEAV?$_Vector_iterator@V?$_Vector_val@U?$_Simple_types@V?$basic_json@Vmap@std@@Vvector@2@V?$basic_string@DU?$char_traits@D@std@@V?$allocator@D@2@@2@_N_J_KNVallocator@2@Uadl_serializer@json_abi_v3_11_2@nlohmann@@V?$vector@EV?$allocator@E@std@@@2@X@json_abi_v3_11_2@nlohmann@@@std@@@std@@@0@H@Z 0000000140067250 f i main.obj
